
code-stm32f746.elf:     file format elf32-littlearm

Sections:
Idx Name          Size      VMA       LMA       File off  Algn
  0 .isr_vector   000001c8  08000000  08000000  00010000  2**0
                  CONTENTS, ALLOC, LOAD, READONLY, DATA
  1 .text         00007480  080001d0  080001d0  000101d0  2**4
                  CONTENTS, ALLOC, LOAD, READONLY, CODE
  2 .rodata       000003d0  08007650  08007650  00017650  2**3
                  CONTENTS, ALLOC, LOAD, READONLY, DATA
  3 .ARM.extab    00000000  08007a20  08007a20  00020ec8  2**0
                  CONTENTS
  4 .ARM          00000008  08007a20  08007a20  00017a20  2**2
                  CONTENTS, ALLOC, LOAD, READONLY, DATA
  5 .preinit_array 00000000  08007a28  08007a28  00020ec8  2**0
                  CONTENTS, ALLOC, LOAD, DATA
  6 .init_array   00000008  08007a28  08007a28  00017a28  2**2
                  CONTENTS, ALLOC, LOAD, DATA
  7 .fini_array   00000004  08007a30  08007a30  00017a30  2**2
                  CONTENTS, ALLOC, LOAD, DATA
  8 .data         00000ec8  20000000  08007a34  00020000  2**3
                  CONTENTS, ALLOC, LOAD, DATA
  9 .bss          000002fc  20000ec8  080088fc  00020ec8  2**2
                  ALLOC
 10 ._user_heap_stack 00000604  200011c4  080088fc  000211c4  2**0
                  ALLOC
 11 .ARM.attributes 00000030  00000000  00000000  00020ec8  2**0
                  CONTENTS, READONLY
 12 .comment      0000007b  00000000  00000000  00020ef8  2**0
                  CONTENTS, READONLY
 13 .debug_frame  00001454  00000000  00000000  00020f74  2**2
                  CONTENTS, READONLY, DEBUGGING

Disassembly of section .text:

080001d0 <__do_global_dtors_aux>:
 80001d0:	b510      	push	{r4, lr}
 80001d2:	4c05      	ldr	r4, [pc, #20]	; (80001e8 <__do_global_dtors_aux+0x18>)
 80001d4:	7823      	ldrb	r3, [r4, #0]
 80001d6:	b933      	cbnz	r3, 80001e6 <__do_global_dtors_aux+0x16>
 80001d8:	4b04      	ldr	r3, [pc, #16]	; (80001ec <__do_global_dtors_aux+0x1c>)
 80001da:	b113      	cbz	r3, 80001e2 <__do_global_dtors_aux+0x12>
 80001dc:	4804      	ldr	r0, [pc, #16]	; (80001f0 <__do_global_dtors_aux+0x20>)
 80001de:	f3af 8000 	nop.w
 80001e2:	2301      	movs	r3, #1
 80001e4:	7023      	strb	r3, [r4, #0]
 80001e6:	bd10      	pop	{r4, pc}
 80001e8:	20000ec8 	.word	0x20000ec8
 80001ec:	00000000 	.word	0x00000000
 80001f0:	08007638 	.word	0x08007638

080001f4 <frame_dummy>:
 80001f4:	b508      	push	{r3, lr}
 80001f6:	4b03      	ldr	r3, [pc, #12]	; (8000204 <frame_dummy+0x10>)
 80001f8:	b11b      	cbz	r3, 8000202 <frame_dummy+0xe>
 80001fa:	4903      	ldr	r1, [pc, #12]	; (8000208 <frame_dummy+0x14>)
 80001fc:	4803      	ldr	r0, [pc, #12]	; (800020c <frame_dummy+0x18>)
 80001fe:	f3af 8000 	nop.w
 8000202:	bd08      	pop	{r3, pc}
 8000204:	00000000 	.word	0x00000000
 8000208:	20000ecc 	.word	0x20000ecc
 800020c:	08007638 	.word	0x08007638

08000210 <strlen>:
 8000210:	4603      	mov	r3, r0
 8000212:	f813 2b01 	ldrb.w	r2, [r3], #1
 8000216:	2a00      	cmp	r2, #0
 8000218:	d1fb      	bne.n	8000212 <strlen+0x2>
 800021a:	1a18      	subs	r0, r3, r0
 800021c:	3801      	subs	r0, #1
 800021e:	4770      	bx	lr

08000220 <memchr>:
 8000220:	f001 01ff 	and.w	r1, r1, #255	; 0xff
 8000224:	2a10      	cmp	r2, #16
 8000226:	db2b      	blt.n	8000280 <memchr+0x60>
 8000228:	f010 0f07 	tst.w	r0, #7
 800022c:	d008      	beq.n	8000240 <memchr+0x20>
 800022e:	f810 3b01 	ldrb.w	r3, [r0], #1
 8000232:	3a01      	subs	r2, #1
 8000234:	428b      	cmp	r3, r1
 8000236:	d02d      	beq.n	8000294 <memchr+0x74>
 8000238:	f010 0f07 	tst.w	r0, #7
 800023c:	b342      	cbz	r2, 8000290 <memchr+0x70>
 800023e:	d1f6      	bne.n	800022e <memchr+0xe>
 8000240:	b4f0      	push	{r4, r5, r6, r7}
 8000242:	ea41 2101 	orr.w	r1, r1, r1, lsl #8
 8000246:	ea41 4101 	orr.w	r1, r1, r1, lsl #16
 800024a:	f022 0407 	bic.w	r4, r2, #7
 800024e:	f07f 0700 	mvns.w	r7, #0
 8000252:	2300      	movs	r3, #0
 8000254:	e8f0 5602 	ldrd	r5, r6, [r0], #8
 8000258:	3c08      	subs	r4, #8
 800025a:	ea85 0501 	eor.w	r5, r5, r1
 800025e:	ea86 0601 	eor.w	r6, r6, r1
 8000262:	fa85 f547 	uadd8	r5, r5, r7
 8000266:	faa3 f587 	sel	r5, r3, r7
 800026a:	fa86 f647 	uadd8	r6, r6, r7
 800026e:	faa5 f687 	sel	r6, r5, r7
 8000272:	b98e      	cbnz	r6, 8000298 <memchr+0x78>
 8000274:	d1ee      	bne.n	8000254 <memchr+0x34>
 8000276:	bcf0      	pop	{r4, r5, r6, r7}
 8000278:	f001 01ff 	and.w	r1, r1, #255	; 0xff
 800027c:	f002 0207 	and.w	r2, r2, #7
 8000280:	b132      	cbz	r2, 8000290 <memchr+0x70>
 8000282:	f810 3b01 	ldrb.w	r3, [r0], #1
 8000286:	3a01      	subs	r2, #1
 8000288:	ea83 0301 	eor.w	r3, r3, r1
 800028c:	b113      	cbz	r3, 8000294 <memchr+0x74>
 800028e:	d1f8      	bne.n	8000282 <memchr+0x62>
 8000290:	2000      	movs	r0, #0
 8000292:	4770      	bx	lr
 8000294:	3801      	subs	r0, #1
 8000296:	4770      	bx	lr
 8000298:	2d00      	cmp	r5, #0
 800029a:	bf06      	itte	eq
 800029c:	4635      	moveq	r5, r6
 800029e:	3803      	subeq	r0, #3
 80002a0:	3807      	subne	r0, #7
 80002a2:	f015 0f01 	tst.w	r5, #1
 80002a6:	d107      	bne.n	80002b8 <memchr+0x98>
 80002a8:	3001      	adds	r0, #1
 80002aa:	f415 7f80 	tst.w	r5, #256	; 0x100
 80002ae:	bf02      	ittt	eq
 80002b0:	3001      	addeq	r0, #1
 80002b2:	f415 3fc0 	tsteq.w	r5, #98304	; 0x18000
 80002b6:	3001      	addeq	r0, #1
 80002b8:	bcf0      	pop	{r4, r5, r6, r7}
 80002ba:	3801      	subs	r0, #1
 80002bc:	4770      	bx	lr
 80002be:	bf00      	nop

080002c0 <__aeabi_drsub>:
 80002c0:	f081 4100 	eor.w	r1, r1, #2147483648	; 0x80000000
 80002c4:	e002      	b.n	80002cc <__adddf3>
 80002c6:	bf00      	nop

080002c8 <__aeabi_dsub>:
 80002c8:	f083 4300 	eor.w	r3, r3, #2147483648	; 0x80000000

080002cc <__adddf3>:
 80002cc:	b530      	push	{r4, r5, lr}
 80002ce:	ea4f 0441 	mov.w	r4, r1, lsl #1
 80002d2:	ea4f 0543 	mov.w	r5, r3, lsl #1
 80002d6:	ea94 0f05 	teq	r4, r5
 80002da:	bf08      	it	eq
 80002dc:	ea90 0f02 	teqeq	r0, r2
 80002e0:	bf1f      	itttt	ne
 80002e2:	ea54 0c00 	orrsne.w	ip, r4, r0
 80002e6:	ea55 0c02 	orrsne.w	ip, r5, r2
 80002ea:	ea7f 5c64 	mvnsne.w	ip, r4, asr #21
 80002ee:	ea7f 5c65 	mvnsne.w	ip, r5, asr #21
 80002f2:	f000 80e2 	beq.w	80004ba <__adddf3+0x1ee>
 80002f6:	ea4f 5454 	mov.w	r4, r4, lsr #21
 80002fa:	ebd4 5555 	rsbs	r5, r4, r5, lsr #21
 80002fe:	bfb8      	it	lt
 8000300:	426d      	neglt	r5, r5
 8000302:	dd0c      	ble.n	800031e <__adddf3+0x52>
 8000304:	442c      	add	r4, r5
 8000306:	ea80 0202 	eor.w	r2, r0, r2
 800030a:	ea81 0303 	eor.w	r3, r1, r3
 800030e:	ea82 0000 	eor.w	r0, r2, r0
 8000312:	ea83 0101 	eor.w	r1, r3, r1
 8000316:	ea80 0202 	eor.w	r2, r0, r2
 800031a:	ea81 0303 	eor.w	r3, r1, r3
 800031e:	2d36      	cmp	r5, #54	; 0x36
 8000320:	bf88      	it	hi
 8000322:	bd30      	pophi	{r4, r5, pc}
 8000324:	f011 4f00 	tst.w	r1, #2147483648	; 0x80000000
 8000328:	ea4f 3101 	mov.w	r1, r1, lsl #12
 800032c:	f44f 1c80 	mov.w	ip, #1048576	; 0x100000
 8000330:	ea4c 3111 	orr.w	r1, ip, r1, lsr #12
 8000334:	d002      	beq.n	800033c <__adddf3+0x70>
 8000336:	4240      	negs	r0, r0
 8000338:	eb61 0141 	sbc.w	r1, r1, r1, lsl #1
 800033c:	f013 4f00 	tst.w	r3, #2147483648	; 0x80000000
 8000340:	ea4f 3303 	mov.w	r3, r3, lsl #12
 8000344:	ea4c 3313 	orr.w	r3, ip, r3, lsr #12
 8000348:	d002      	beq.n	8000350 <__adddf3+0x84>
 800034a:	4252      	negs	r2, r2
 800034c:	eb63 0343 	sbc.w	r3, r3, r3, lsl #1
 8000350:	ea94 0f05 	teq	r4, r5
 8000354:	f000 80a7 	beq.w	80004a6 <__adddf3+0x1da>
 8000358:	f1a4 0401 	sub.w	r4, r4, #1
 800035c:	f1d5 0e20 	rsbs	lr, r5, #32
 8000360:	db0d      	blt.n	800037e <__adddf3+0xb2>
 8000362:	fa02 fc0e 	lsl.w	ip, r2, lr
 8000366:	fa22 f205 	lsr.w	r2, r2, r5
 800036a:	1880      	adds	r0, r0, r2
 800036c:	f141 0100 	adc.w	r1, r1, #0
 8000370:	fa03 f20e 	lsl.w	r2, r3, lr
 8000374:	1880      	adds	r0, r0, r2
 8000376:	fa43 f305 	asr.w	r3, r3, r5
 800037a:	4159      	adcs	r1, r3
 800037c:	e00e      	b.n	800039c <__adddf3+0xd0>
 800037e:	f1a5 0520 	sub.w	r5, r5, #32
 8000382:	f10e 0e20 	add.w	lr, lr, #32
 8000386:	2a01      	cmp	r2, #1
 8000388:	fa03 fc0e 	lsl.w	ip, r3, lr
 800038c:	bf28      	it	cs
 800038e:	f04c 0c02 	orrcs.w	ip, ip, #2
 8000392:	fa43 f305 	asr.w	r3, r3, r5
 8000396:	18c0      	adds	r0, r0, r3
 8000398:	eb51 71e3 	adcs.w	r1, r1, r3, asr #31
 800039c:	f001 4500 	and.w	r5, r1, #2147483648	; 0x80000000
 80003a0:	d507      	bpl.n	80003b2 <__adddf3+0xe6>
 80003a2:	f04f 0e00 	mov.w	lr, #0
 80003a6:	f1dc 0c00 	rsbs	ip, ip, #0
 80003aa:	eb7e 0000 	sbcs.w	r0, lr, r0
 80003ae:	eb6e 0101 	sbc.w	r1, lr, r1
 80003b2:	f5b1 1f80 	cmp.w	r1, #1048576	; 0x100000
 80003b6:	d31b      	bcc.n	80003f0 <__adddf3+0x124>
 80003b8:	f5b1 1f00 	cmp.w	r1, #2097152	; 0x200000
 80003bc:	d30c      	bcc.n	80003d8 <__adddf3+0x10c>
 80003be:	0849      	lsrs	r1, r1, #1
 80003c0:	ea5f 0030 	movs.w	r0, r0, rrx
 80003c4:	ea4f 0c3c 	mov.w	ip, ip, rrx
 80003c8:	f104 0401 	add.w	r4, r4, #1
 80003cc:	ea4f 5244 	mov.w	r2, r4, lsl #21
 80003d0:	f512 0f80 	cmn.w	r2, #4194304	; 0x400000
 80003d4:	f080 809a 	bcs.w	800050c <__adddf3+0x240>
 80003d8:	f1bc 4f00 	cmp.w	ip, #2147483648	; 0x80000000
 80003dc:	bf08      	it	eq
 80003de:	ea5f 0c50 	movseq.w	ip, r0, lsr #1
 80003e2:	f150 0000 	adcs.w	r0, r0, #0
 80003e6:	eb41 5104 	adc.w	r1, r1, r4, lsl #20
 80003ea:	ea41 0105 	orr.w	r1, r1, r5
 80003ee:	bd30      	pop	{r4, r5, pc}
 80003f0:	ea5f 0c4c 	movs.w	ip, ip, lsl #1
 80003f4:	4140      	adcs	r0, r0
 80003f6:	eb41 0101 	adc.w	r1, r1, r1
 80003fa:	f411 1f80 	tst.w	r1, #1048576	; 0x100000
 80003fe:	f1a4 0401 	sub.w	r4, r4, #1
 8000402:	d1e9      	bne.n	80003d8 <__adddf3+0x10c>
 8000404:	f091 0f00 	teq	r1, #0
 8000408:	bf04      	itt	eq
 800040a:	4601      	moveq	r1, r0
 800040c:	2000      	moveq	r0, #0
 800040e:	fab1 f381 	clz	r3, r1
 8000412:	bf08      	it	eq
 8000414:	3320      	addeq	r3, #32
 8000416:	f1a3 030b 	sub.w	r3, r3, #11
 800041a:	f1b3 0220 	subs.w	r2, r3, #32
 800041e:	da0c      	bge.n	800043a <__adddf3+0x16e>
 8000420:	320c      	adds	r2, #12
 8000422:	dd08      	ble.n	8000436 <__adddf3+0x16a>
 8000424:	f102 0c14 	add.w	ip, r2, #20
 8000428:	f1c2 020c 	rsb	r2, r2, #12
 800042c:	fa01 f00c 	lsl.w	r0, r1, ip
 8000430:	fa21 f102 	lsr.w	r1, r1, r2
 8000434:	e00c      	b.n	8000450 <__adddf3+0x184>
 8000436:	f102 0214 	add.w	r2, r2, #20
 800043a:	bfd8      	it	le
 800043c:	f1c2 0c20 	rsble	ip, r2, #32
 8000440:	fa01 f102 	lsl.w	r1, r1, r2
 8000444:	fa20 fc0c 	lsr.w	ip, r0, ip
 8000448:	bfdc      	itt	le
 800044a:	ea41 010c 	orrle.w	r1, r1, ip
 800044e:	4090      	lslle	r0, r2
 8000450:	1ae4      	subs	r4, r4, r3
 8000452:	bfa2      	ittt	ge
 8000454:	eb01 5104 	addge.w	r1, r1, r4, lsl #20
 8000458:	4329      	orrge	r1, r5
 800045a:	bd30      	popge	{r4, r5, pc}
 800045c:	ea6f 0404 	mvn.w	r4, r4
 8000460:	3c1f      	subs	r4, #31
 8000462:	da1c      	bge.n	800049e <__adddf3+0x1d2>
 8000464:	340c      	adds	r4, #12
 8000466:	dc0e      	bgt.n	8000486 <__adddf3+0x1ba>
 8000468:	f104 0414 	add.w	r4, r4, #20
 800046c:	f1c4 0220 	rsb	r2, r4, #32
 8000470:	fa20 f004 	lsr.w	r0, r0, r4
 8000474:	fa01 f302 	lsl.w	r3, r1, r2
 8000478:	ea40 0003 	orr.w	r0, r0, r3
 800047c:	fa21 f304 	lsr.w	r3, r1, r4
 8000480:	ea45 0103 	orr.w	r1, r5, r3
 8000484:	bd30      	pop	{r4, r5, pc}
 8000486:	f1c4 040c 	rsb	r4, r4, #12
 800048a:	f1c4 0220 	rsb	r2, r4, #32
 800048e:	fa20 f002 	lsr.w	r0, r0, r2
 8000492:	fa01 f304 	lsl.w	r3, r1, r4
 8000496:	ea40 0003 	orr.w	r0, r0, r3
 800049a:	4629      	mov	r1, r5
 800049c:	bd30      	pop	{r4, r5, pc}
 800049e:	fa21 f004 	lsr.w	r0, r1, r4
 80004a2:	4629      	mov	r1, r5
 80004a4:	bd30      	pop	{r4, r5, pc}
 80004a6:	f094 0f00 	teq	r4, #0
 80004aa:	f483 1380 	eor.w	r3, r3, #1048576	; 0x100000
 80004ae:	bf06      	itte	eq
 80004b0:	f481 1180 	eoreq.w	r1, r1, #1048576	; 0x100000
 80004b4:	3401      	addeq	r4, #1
 80004b6:	3d01      	subne	r5, #1
 80004b8:	e74e      	b.n	8000358 <__adddf3+0x8c>
 80004ba:	ea7f 5c64 	mvns.w	ip, r4, asr #21
 80004be:	bf18      	it	ne
 80004c0:	ea7f 5c65 	mvnsne.w	ip, r5, asr #21
 80004c4:	d029      	beq.n	800051a <__adddf3+0x24e>
 80004c6:	ea94 0f05 	teq	r4, r5
 80004ca:	bf08      	it	eq
 80004cc:	ea90 0f02 	teqeq	r0, r2
 80004d0:	d005      	beq.n	80004de <__adddf3+0x212>
 80004d2:	ea54 0c00 	orrs.w	ip, r4, r0
 80004d6:	bf04      	itt	eq
 80004d8:	4619      	moveq	r1, r3
 80004da:	4610      	moveq	r0, r2
 80004dc:	bd30      	pop	{r4, r5, pc}
 80004de:	ea91 0f03 	teq	r1, r3
 80004e2:	bf1e      	ittt	ne
 80004e4:	2100      	movne	r1, #0
 80004e6:	2000      	movne	r0, #0
 80004e8:	bd30      	popne	{r4, r5, pc}
 80004ea:	ea5f 5c54 	movs.w	ip, r4, lsr #21
 80004ee:	d105      	bne.n	80004fc <__adddf3+0x230>
 80004f0:	0040      	lsls	r0, r0, #1
 80004f2:	4149      	adcs	r1, r1
 80004f4:	bf28      	it	cs
 80004f6:	f041 4100 	orrcs.w	r1, r1, #2147483648	; 0x80000000
 80004fa:	bd30      	pop	{r4, r5, pc}
 80004fc:	f514 0480 	adds.w	r4, r4, #4194304	; 0x400000
 8000500:	bf3c      	itt	cc
 8000502:	f501 1180 	addcc.w	r1, r1, #1048576	; 0x100000
 8000506:	bd30      	popcc	{r4, r5, pc}
 8000508:	f001 4500 	and.w	r5, r1, #2147483648	; 0x80000000
 800050c:	f045 41fe 	orr.w	r1, r5, #2130706432	; 0x7f000000
 8000510:	f441 0170 	orr.w	r1, r1, #15728640	; 0xf00000
 8000514:	f04f 0000 	mov.w	r0, #0
 8000518:	bd30      	pop	{r4, r5, pc}
 800051a:	ea7f 5c64 	mvns.w	ip, r4, asr #21
 800051e:	bf1a      	itte	ne
 8000520:	4619      	movne	r1, r3
 8000522:	4610      	movne	r0, r2
 8000524:	ea7f 5c65 	mvnseq.w	ip, r5, asr #21
 8000528:	bf1c      	itt	ne
 800052a:	460b      	movne	r3, r1
 800052c:	4602      	movne	r2, r0
 800052e:	ea50 3401 	orrs.w	r4, r0, r1, lsl #12
 8000532:	bf06      	itte	eq
 8000534:	ea52 3503 	orrseq.w	r5, r2, r3, lsl #12
 8000538:	ea91 0f03 	teqeq	r1, r3
 800053c:	f441 2100 	orrne.w	r1, r1, #524288	; 0x80000
 8000540:	bd30      	pop	{r4, r5, pc}
 8000542:	bf00      	nop

08000544 <__aeabi_ui2d>:
 8000544:	f090 0f00 	teq	r0, #0
 8000548:	bf04      	itt	eq
 800054a:	2100      	moveq	r1, #0
 800054c:	4770      	bxeq	lr
 800054e:	b530      	push	{r4, r5, lr}
 8000550:	f44f 6480 	mov.w	r4, #1024	; 0x400
 8000554:	f104 0432 	add.w	r4, r4, #50	; 0x32
 8000558:	f04f 0500 	mov.w	r5, #0
 800055c:	f04f 0100 	mov.w	r1, #0
 8000560:	e750      	b.n	8000404 <__adddf3+0x138>
 8000562:	bf00      	nop

08000564 <__aeabi_i2d>:
 8000564:	f090 0f00 	teq	r0, #0
 8000568:	bf04      	itt	eq
 800056a:	2100      	moveq	r1, #0
 800056c:	4770      	bxeq	lr
 800056e:	b530      	push	{r4, r5, lr}
 8000570:	f44f 6480 	mov.w	r4, #1024	; 0x400
 8000574:	f104 0432 	add.w	r4, r4, #50	; 0x32
 8000578:	f010 4500 	ands.w	r5, r0, #2147483648	; 0x80000000
 800057c:	bf48      	it	mi
 800057e:	4240      	negmi	r0, r0
 8000580:	f04f 0100 	mov.w	r1, #0
 8000584:	e73e      	b.n	8000404 <__adddf3+0x138>
 8000586:	bf00      	nop

08000588 <__aeabi_f2d>:
 8000588:	0042      	lsls	r2, r0, #1
 800058a:	ea4f 01e2 	mov.w	r1, r2, asr #3
 800058e:	ea4f 0131 	mov.w	r1, r1, rrx
 8000592:	ea4f 7002 	mov.w	r0, r2, lsl #28
 8000596:	bf1f      	itttt	ne
 8000598:	f012 437f 	andsne.w	r3, r2, #4278190080	; 0xff000000
 800059c:	f093 4f7f 	teqne	r3, #4278190080	; 0xff000000
 80005a0:	f081 5160 	eorne.w	r1, r1, #939524096	; 0x38000000
 80005a4:	4770      	bxne	lr
 80005a6:	f032 427f 	bics.w	r2, r2, #4278190080	; 0xff000000
 80005aa:	bf08      	it	eq
 80005ac:	4770      	bxeq	lr
 80005ae:	f093 4f7f 	teq	r3, #4278190080	; 0xff000000
 80005b2:	bf04      	itt	eq
 80005b4:	f441 2100 	orreq.w	r1, r1, #524288	; 0x80000
 80005b8:	4770      	bxeq	lr
 80005ba:	b530      	push	{r4, r5, lr}
 80005bc:	f44f 7460 	mov.w	r4, #896	; 0x380
 80005c0:	f001 4500 	and.w	r5, r1, #2147483648	; 0x80000000
 80005c4:	f021 4100 	bic.w	r1, r1, #2147483648	; 0x80000000
 80005c8:	e71c      	b.n	8000404 <__adddf3+0x138>
 80005ca:	bf00      	nop

080005cc <__aeabi_ul2d>:
 80005cc:	ea50 0201 	orrs.w	r2, r0, r1
 80005d0:	bf08      	it	eq
 80005d2:	4770      	bxeq	lr
 80005d4:	b530      	push	{r4, r5, lr}
 80005d6:	f04f 0500 	mov.w	r5, #0
 80005da:	e00a      	b.n	80005f2 <__aeabi_l2d+0x16>

080005dc <__aeabi_l2d>:
 80005dc:	ea50 0201 	orrs.w	r2, r0, r1
 80005e0:	bf08      	it	eq
 80005e2:	4770      	bxeq	lr
 80005e4:	b530      	push	{r4, r5, lr}
 80005e6:	f011 4500 	ands.w	r5, r1, #2147483648	; 0x80000000
 80005ea:	d502      	bpl.n	80005f2 <__aeabi_l2d+0x16>
 80005ec:	4240      	negs	r0, r0
 80005ee:	eb61 0141 	sbc.w	r1, r1, r1, lsl #1
 80005f2:	f44f 6480 	mov.w	r4, #1024	; 0x400
 80005f6:	f104 0432 	add.w	r4, r4, #50	; 0x32
 80005fa:	ea5f 5c91 	movs.w	ip, r1, lsr #22
 80005fe:	f43f aed8 	beq.w	80003b2 <__adddf3+0xe6>
 8000602:	f04f 0203 	mov.w	r2, #3
 8000606:	ea5f 0cdc 	movs.w	ip, ip, lsr #3
 800060a:	bf18      	it	ne
 800060c:	3203      	addne	r2, #3
 800060e:	ea5f 0cdc 	movs.w	ip, ip, lsr #3
 8000612:	bf18      	it	ne
 8000614:	3203      	addne	r2, #3
 8000616:	eb02 02dc 	add.w	r2, r2, ip, lsr #3
 800061a:	f1c2 0320 	rsb	r3, r2, #32
 800061e:	fa00 fc03 	lsl.w	ip, r0, r3
 8000622:	fa20 f002 	lsr.w	r0, r0, r2
 8000626:	fa01 fe03 	lsl.w	lr, r1, r3
 800062a:	ea40 000e 	orr.w	r0, r0, lr
 800062e:	fa21 f102 	lsr.w	r1, r1, r2
 8000632:	4414      	add	r4, r2
 8000634:	e6bd      	b.n	80003b2 <__adddf3+0xe6>
 8000636:	bf00      	nop

08000638 <__aeabi_dmul>:
 8000638:	b570      	push	{r4, r5, r6, lr}
 800063a:	f04f 0cff 	mov.w	ip, #255	; 0xff
 800063e:	f44c 6ce0 	orr.w	ip, ip, #1792	; 0x700
 8000642:	ea1c 5411 	ands.w	r4, ip, r1, lsr #20
 8000646:	bf1d      	ittte	ne
 8000648:	ea1c 5513 	andsne.w	r5, ip, r3, lsr #20
 800064c:	ea94 0f0c 	teqne	r4, ip
 8000650:	ea95 0f0c 	teqne	r5, ip
 8000654:	f000 f8de 	bleq	8000814 <__aeabi_dmul+0x1dc>
 8000658:	442c      	add	r4, r5
 800065a:	ea81 0603 	eor.w	r6, r1, r3
 800065e:	ea21 514c 	bic.w	r1, r1, ip, lsl #21
 8000662:	ea23 534c 	bic.w	r3, r3, ip, lsl #21
 8000666:	ea50 3501 	orrs.w	r5, r0, r1, lsl #12
 800066a:	bf18      	it	ne
 800066c:	ea52 3503 	orrsne.w	r5, r2, r3, lsl #12
 8000670:	f441 1180 	orr.w	r1, r1, #1048576	; 0x100000
 8000674:	f443 1380 	orr.w	r3, r3, #1048576	; 0x100000
 8000678:	d038      	beq.n	80006ec <__aeabi_dmul+0xb4>
 800067a:	fba0 ce02 	umull	ip, lr, r0, r2
 800067e:	f04f 0500 	mov.w	r5, #0
 8000682:	fbe1 e502 	umlal	lr, r5, r1, r2
 8000686:	f006 4200 	and.w	r2, r6, #2147483648	; 0x80000000
 800068a:	fbe0 e503 	umlal	lr, r5, r0, r3
 800068e:	f04f 0600 	mov.w	r6, #0
 8000692:	fbe1 5603 	umlal	r5, r6, r1, r3
 8000696:	f09c 0f00 	teq	ip, #0
 800069a:	bf18      	it	ne
 800069c:	f04e 0e01 	orrne.w	lr, lr, #1
 80006a0:	f1a4 04ff 	sub.w	r4, r4, #255	; 0xff
 80006a4:	f5b6 7f00 	cmp.w	r6, #512	; 0x200
 80006a8:	f564 7440 	sbc.w	r4, r4, #768	; 0x300
 80006ac:	d204      	bcs.n	80006b8 <__aeabi_dmul+0x80>
 80006ae:	ea5f 0e4e 	movs.w	lr, lr, lsl #1
 80006b2:	416d      	adcs	r5, r5
 80006b4:	eb46 0606 	adc.w	r6, r6, r6
 80006b8:	ea42 21c6 	orr.w	r1, r2, r6, lsl #11
 80006bc:	ea41 5155 	orr.w	r1, r1, r5, lsr #21
 80006c0:	ea4f 20c5 	mov.w	r0, r5, lsl #11
 80006c4:	ea40 505e 	orr.w	r0, r0, lr, lsr #21
 80006c8:	ea4f 2ece 	mov.w	lr, lr, lsl #11
 80006cc:	f1b4 0cfd 	subs.w	ip, r4, #253	; 0xfd
 80006d0:	bf88      	it	hi
 80006d2:	f5bc 6fe0 	cmphi.w	ip, #1792	; 0x700
 80006d6:	d81e      	bhi.n	8000716 <__aeabi_dmul+0xde>
 80006d8:	f1be 4f00 	cmp.w	lr, #2147483648	; 0x80000000
 80006dc:	bf08      	it	eq
 80006de:	ea5f 0e50 	movseq.w	lr, r0, lsr #1
 80006e2:	f150 0000 	adcs.w	r0, r0, #0
 80006e6:	eb41 5104 	adc.w	r1, r1, r4, lsl #20
 80006ea:	bd70      	pop	{r4, r5, r6, pc}
 80006ec:	f006 4600 	and.w	r6, r6, #2147483648	; 0x80000000
 80006f0:	ea46 0101 	orr.w	r1, r6, r1
 80006f4:	ea40 0002 	orr.w	r0, r0, r2
 80006f8:	ea81 0103 	eor.w	r1, r1, r3
 80006fc:	ebb4 045c 	subs.w	r4, r4, ip, lsr #1
 8000700:	bfc2      	ittt	gt
 8000702:	ebd4 050c 	rsbsgt	r5, r4, ip
 8000706:	ea41 5104 	orrgt.w	r1, r1, r4, lsl #20
 800070a:	bd70      	popgt	{r4, r5, r6, pc}
 800070c:	f441 1180 	orr.w	r1, r1, #1048576	; 0x100000
 8000710:	f04f 0e00 	mov.w	lr, #0
 8000714:	3c01      	subs	r4, #1
 8000716:	f300 80ab 	bgt.w	8000870 <__aeabi_dmul+0x238>
 800071a:	f114 0f36 	cmn.w	r4, #54	; 0x36
 800071e:	bfde      	ittt	le
 8000720:	2000      	movle	r0, #0
 8000722:	f001 4100 	andle.w	r1, r1, #2147483648	; 0x80000000
 8000726:	bd70      	pople	{r4, r5, r6, pc}
 8000728:	f1c4 0400 	rsb	r4, r4, #0
 800072c:	3c20      	subs	r4, #32
 800072e:	da35      	bge.n	800079c <__aeabi_dmul+0x164>
 8000730:	340c      	adds	r4, #12
 8000732:	dc1b      	bgt.n	800076c <__aeabi_dmul+0x134>
 8000734:	f104 0414 	add.w	r4, r4, #20
 8000738:	f1c4 0520 	rsb	r5, r4, #32
 800073c:	fa00 f305 	lsl.w	r3, r0, r5
 8000740:	fa20 f004 	lsr.w	r0, r0, r4
 8000744:	fa01 f205 	lsl.w	r2, r1, r5
 8000748:	ea40 0002 	orr.w	r0, r0, r2
 800074c:	f001 4200 	and.w	r2, r1, #2147483648	; 0x80000000
 8000750:	f021 4100 	bic.w	r1, r1, #2147483648	; 0x80000000
 8000754:	eb10 70d3 	adds.w	r0, r0, r3, lsr #31
 8000758:	fa21 f604 	lsr.w	r6, r1, r4
 800075c:	eb42 0106 	adc.w	r1, r2, r6
 8000760:	ea5e 0e43 	orrs.w	lr, lr, r3, lsl #1
 8000764:	bf08      	it	eq
 8000766:	ea20 70d3 	biceq.w	r0, r0, r3, lsr #31
 800076a:	bd70      	pop	{r4, r5, r6, pc}
 800076c:	f1c4 040c 	rsb	r4, r4, #12
 8000770:	f1c4 0520 	rsb	r5, r4, #32
 8000774:	fa00 f304 	lsl.w	r3, r0, r4
 8000778:	fa20 f005 	lsr.w	r0, r0, r5
 800077c:	fa01 f204 	lsl.w	r2, r1, r4
 8000780:	ea40 0002 	orr.w	r0, r0, r2
 8000784:	f001 4100 	and.w	r1, r1, #2147483648	; 0x80000000
 8000788:	eb10 70d3 	adds.w	r0, r0, r3, lsr #31
 800078c:	f141 0100 	adc.w	r1, r1, #0
 8000790:	ea5e 0e43 	orrs.w	lr, lr, r3, lsl #1
 8000794:	bf08      	it	eq
 8000796:	ea20 70d3 	biceq.w	r0, r0, r3, lsr #31
 800079a:	bd70      	pop	{r4, r5, r6, pc}
 800079c:	f1c4 0520 	rsb	r5, r4, #32
 80007a0:	fa00 f205 	lsl.w	r2, r0, r5
 80007a4:	ea4e 0e02 	orr.w	lr, lr, r2
 80007a8:	fa20 f304 	lsr.w	r3, r0, r4
 80007ac:	fa01 f205 	lsl.w	r2, r1, r5
 80007b0:	ea43 0302 	orr.w	r3, r3, r2
 80007b4:	fa21 f004 	lsr.w	r0, r1, r4
 80007b8:	f001 4100 	and.w	r1, r1, #2147483648	; 0x80000000
 80007bc:	fa21 f204 	lsr.w	r2, r1, r4
 80007c0:	ea20 0002 	bic.w	r0, r0, r2
 80007c4:	eb00 70d3 	add.w	r0, r0, r3, lsr #31
 80007c8:	ea5e 0e43 	orrs.w	lr, lr, r3, lsl #1
 80007cc:	bf08      	it	eq
 80007ce:	ea20 70d3 	biceq.w	r0, r0, r3, lsr #31
 80007d2:	bd70      	pop	{r4, r5, r6, pc}
 80007d4:	f094 0f00 	teq	r4, #0
 80007d8:	d10f      	bne.n	80007fa <__aeabi_dmul+0x1c2>
 80007da:	f001 4600 	and.w	r6, r1, #2147483648	; 0x80000000
 80007de:	0040      	lsls	r0, r0, #1
 80007e0:	eb41 0101 	adc.w	r1, r1, r1
 80007e4:	f411 1f80 	tst.w	r1, #1048576	; 0x100000
 80007e8:	bf08      	it	eq
 80007ea:	3c01      	subeq	r4, #1
 80007ec:	d0f7      	beq.n	80007de <__aeabi_dmul+0x1a6>
 80007ee:	ea41 0106 	orr.w	r1, r1, r6
 80007f2:	f095 0f00 	teq	r5, #0
 80007f6:	bf18      	it	ne
 80007f8:	4770      	bxne	lr
 80007fa:	f003 4600 	and.w	r6, r3, #2147483648	; 0x80000000
 80007fe:	0052      	lsls	r2, r2, #1
 8000800:	eb43 0303 	adc.w	r3, r3, r3
 8000804:	f413 1f80 	tst.w	r3, #1048576	; 0x100000
 8000808:	bf08      	it	eq
 800080a:	3d01      	subeq	r5, #1
 800080c:	d0f7      	beq.n	80007fe <__aeabi_dmul+0x1c6>
 800080e:	ea43 0306 	orr.w	r3, r3, r6
 8000812:	4770      	bx	lr
 8000814:	ea94 0f0c 	teq	r4, ip
 8000818:	ea0c 5513 	and.w	r5, ip, r3, lsr #20
 800081c:	bf18      	it	ne
 800081e:	ea95 0f0c 	teqne	r5, ip
 8000822:	d00c      	beq.n	800083e <__aeabi_dmul+0x206>
 8000824:	ea50 0641 	orrs.w	r6, r0, r1, lsl #1
 8000828:	bf18      	it	ne
 800082a:	ea52 0643 	orrsne.w	r6, r2, r3, lsl #1
 800082e:	d1d1      	bne.n	80007d4 <__aeabi_dmul+0x19c>
 8000830:	ea81 0103 	eor.w	r1, r1, r3
 8000834:	f001 4100 	and.w	r1, r1, #2147483648	; 0x80000000
 8000838:	f04f 0000 	mov.w	r0, #0
 800083c:	bd70      	pop	{r4, r5, r6, pc}
 800083e:	ea50 0641 	orrs.w	r6, r0, r1, lsl #1
 8000842:	bf06      	itte	eq
 8000844:	4610      	moveq	r0, r2
 8000846:	4619      	moveq	r1, r3
 8000848:	ea52 0643 	orrsne.w	r6, r2, r3, lsl #1
 800084c:	d019      	beq.n	8000882 <__aeabi_dmul+0x24a>
 800084e:	ea94 0f0c 	teq	r4, ip
 8000852:	d102      	bne.n	800085a <__aeabi_dmul+0x222>
 8000854:	ea50 3601 	orrs.w	r6, r0, r1, lsl #12
 8000858:	d113      	bne.n	8000882 <__aeabi_dmul+0x24a>
 800085a:	ea95 0f0c 	teq	r5, ip
 800085e:	d105      	bne.n	800086c <__aeabi_dmul+0x234>
 8000860:	ea52 3603 	orrs.w	r6, r2, r3, lsl #12
 8000864:	bf1c      	itt	ne
 8000866:	4610      	movne	r0, r2
 8000868:	4619      	movne	r1, r3
 800086a:	d10a      	bne.n	8000882 <__aeabi_dmul+0x24a>
 800086c:	ea81 0103 	eor.w	r1, r1, r3
 8000870:	f001 4100 	and.w	r1, r1, #2147483648	; 0x80000000
 8000874:	f041 41fe 	orr.w	r1, r1, #2130706432	; 0x7f000000
 8000878:	f441 0170 	orr.w	r1, r1, #15728640	; 0xf00000
 800087c:	f04f 0000 	mov.w	r0, #0
 8000880:	bd70      	pop	{r4, r5, r6, pc}
 8000882:	f041 41fe 	orr.w	r1, r1, #2130706432	; 0x7f000000
 8000886:	f441 0178 	orr.w	r1, r1, #16252928	; 0xf80000
 800088a:	bd70      	pop	{r4, r5, r6, pc}

0800088c <__aeabi_ddiv>:
 800088c:	b570      	push	{r4, r5, r6, lr}
 800088e:	f04f 0cff 	mov.w	ip, #255	; 0xff
 8000892:	f44c 6ce0 	orr.w	ip, ip, #1792	; 0x700
 8000896:	ea1c 5411 	ands.w	r4, ip, r1, lsr #20
 800089a:	bf1d      	ittte	ne
 800089c:	ea1c 5513 	andsne.w	r5, ip, r3, lsr #20
 80008a0:	ea94 0f0c 	teqne	r4, ip
 80008a4:	ea95 0f0c 	teqne	r5, ip
 80008a8:	f000 f8a7 	bleq	80009fa <__aeabi_ddiv+0x16e>
 80008ac:	eba4 0405 	sub.w	r4, r4, r5
 80008b0:	ea81 0e03 	eor.w	lr, r1, r3
 80008b4:	ea52 3503 	orrs.w	r5, r2, r3, lsl #12
 80008b8:	ea4f 3101 	mov.w	r1, r1, lsl #12
 80008bc:	f000 8088 	beq.w	80009d0 <__aeabi_ddiv+0x144>
 80008c0:	ea4f 3303 	mov.w	r3, r3, lsl #12
 80008c4:	f04f 5580 	mov.w	r5, #268435456	; 0x10000000
 80008c8:	ea45 1313 	orr.w	r3, r5, r3, lsr #4
 80008cc:	ea43 6312 	orr.w	r3, r3, r2, lsr #24
 80008d0:	ea4f 2202 	mov.w	r2, r2, lsl #8
 80008d4:	ea45 1511 	orr.w	r5, r5, r1, lsr #4
 80008d8:	ea45 6510 	orr.w	r5, r5, r0, lsr #24
 80008dc:	ea4f 2600 	mov.w	r6, r0, lsl #8
 80008e0:	f00e 4100 	and.w	r1, lr, #2147483648	; 0x80000000
 80008e4:	429d      	cmp	r5, r3
 80008e6:	bf08      	it	eq
 80008e8:	4296      	cmpeq	r6, r2
 80008ea:	f144 04fd 	adc.w	r4, r4, #253	; 0xfd
 80008ee:	f504 7440 	add.w	r4, r4, #768	; 0x300
 80008f2:	d202      	bcs.n	80008fa <__aeabi_ddiv+0x6e>
 80008f4:	085b      	lsrs	r3, r3, #1
 80008f6:	ea4f 0232 	mov.w	r2, r2, rrx
 80008fa:	1ab6      	subs	r6, r6, r2
 80008fc:	eb65 0503 	sbc.w	r5, r5, r3
 8000900:	085b      	lsrs	r3, r3, #1
 8000902:	ea4f 0232 	mov.w	r2, r2, rrx
 8000906:	f44f 1080 	mov.w	r0, #1048576	; 0x100000
 800090a:	f44f 2c00 	mov.w	ip, #524288	; 0x80000
 800090e:	ebb6 0e02 	subs.w	lr, r6, r2
 8000912:	eb75 0e03 	sbcs.w	lr, r5, r3
 8000916:	bf22      	ittt	cs
 8000918:	1ab6      	subcs	r6, r6, r2
 800091a:	4675      	movcs	r5, lr
 800091c:	ea40 000c 	orrcs.w	r0, r0, ip
 8000920:	085b      	lsrs	r3, r3, #1
 8000922:	ea4f 0232 	mov.w	r2, r2, rrx
 8000926:	ebb6 0e02 	subs.w	lr, r6, r2
 800092a:	eb75 0e03 	sbcs.w	lr, r5, r3
 800092e:	bf22      	ittt	cs
 8000930:	1ab6      	subcs	r6, r6, r2
 8000932:	4675      	movcs	r5, lr
 8000934:	ea40 005c 	orrcs.w	r0, r0, ip, lsr #1
 8000938:	085b      	lsrs	r3, r3, #1
 800093a:	ea4f 0232 	mov.w	r2, r2, rrx
 800093e:	ebb6 0e02 	subs.w	lr, r6, r2
 8000942:	eb75 0e03 	sbcs.w	lr, r5, r3
 8000946:	bf22      	ittt	cs
 8000948:	1ab6      	subcs	r6, r6, r2
 800094a:	4675      	movcs	r5, lr
 800094c:	ea40 009c 	orrcs.w	r0, r0, ip, lsr #2
 8000950:	085b      	lsrs	r3, r3, #1
 8000952:	ea4f 0232 	mov.w	r2, r2, rrx
 8000956:	ebb6 0e02 	subs.w	lr, r6, r2
 800095a:	eb75 0e03 	sbcs.w	lr, r5, r3
 800095e:	bf22      	ittt	cs
 8000960:	1ab6      	subcs	r6, r6, r2
 8000962:	4675      	movcs	r5, lr
 8000964:	ea40 00dc 	orrcs.w	r0, r0, ip, lsr #3
 8000968:	ea55 0e06 	orrs.w	lr, r5, r6
 800096c:	d018      	beq.n	80009a0 <__aeabi_ddiv+0x114>
 800096e:	ea4f 1505 	mov.w	r5, r5, lsl #4
 8000972:	ea45 7516 	orr.w	r5, r5, r6, lsr #28
 8000976:	ea4f 1606 	mov.w	r6, r6, lsl #4
 800097a:	ea4f 03c3 	mov.w	r3, r3, lsl #3
 800097e:	ea43 7352 	orr.w	r3, r3, r2, lsr #29
 8000982:	ea4f 02c2 	mov.w	r2, r2, lsl #3
 8000986:	ea5f 1c1c 	movs.w	ip, ip, lsr #4
 800098a:	d1c0      	bne.n	800090e <__aeabi_ddiv+0x82>
 800098c:	f411 1f80 	tst.w	r1, #1048576	; 0x100000
 8000990:	d10b      	bne.n	80009aa <__aeabi_ddiv+0x11e>
 8000992:	ea41 0100 	orr.w	r1, r1, r0
 8000996:	f04f 0000 	mov.w	r0, #0
 800099a:	f04f 4c00 	mov.w	ip, #2147483648	; 0x80000000
 800099e:	e7b6      	b.n	800090e <__aeabi_ddiv+0x82>
 80009a0:	f411 1f80 	tst.w	r1, #1048576	; 0x100000
 80009a4:	bf04      	itt	eq
 80009a6:	4301      	orreq	r1, r0
 80009a8:	2000      	moveq	r0, #0
 80009aa:	f1b4 0cfd 	subs.w	ip, r4, #253	; 0xfd
 80009ae:	bf88      	it	hi
 80009b0:	f5bc 6fe0 	cmphi.w	ip, #1792	; 0x700
 80009b4:	f63f aeaf 	bhi.w	8000716 <__aeabi_dmul+0xde>
 80009b8:	ebb5 0c03 	subs.w	ip, r5, r3
 80009bc:	bf04      	itt	eq
 80009be:	ebb6 0c02 	subseq.w	ip, r6, r2
 80009c2:	ea5f 0c50 	movseq.w	ip, r0, lsr #1
 80009c6:	f150 0000 	adcs.w	r0, r0, #0
 80009ca:	eb41 5104 	adc.w	r1, r1, r4, lsl #20
 80009ce:	bd70      	pop	{r4, r5, r6, pc}
 80009d0:	f00e 4e00 	and.w	lr, lr, #2147483648	; 0x80000000
 80009d4:	ea4e 3111 	orr.w	r1, lr, r1, lsr #12
 80009d8:	eb14 045c 	adds.w	r4, r4, ip, lsr #1
 80009dc:	bfc2      	ittt	gt
 80009de:	ebd4 050c 	rsbsgt	r5, r4, ip
 80009e2:	ea41 5104 	orrgt.w	r1, r1, r4, lsl #20
 80009e6:	bd70      	popgt	{r4, r5, r6, pc}
 80009e8:	f441 1180 	orr.w	r1, r1, #1048576	; 0x100000
 80009ec:	f04f 0e00 	mov.w	lr, #0
 80009f0:	3c01      	subs	r4, #1
 80009f2:	e690      	b.n	8000716 <__aeabi_dmul+0xde>
 80009f4:	ea45 0e06 	orr.w	lr, r5, r6
 80009f8:	e68d      	b.n	8000716 <__aeabi_dmul+0xde>
 80009fa:	ea0c 5513 	and.w	r5, ip, r3, lsr #20
 80009fe:	ea94 0f0c 	teq	r4, ip
 8000a02:	bf08      	it	eq
 8000a04:	ea95 0f0c 	teqeq	r5, ip
 8000a08:	f43f af3b 	beq.w	8000882 <__aeabi_dmul+0x24a>
 8000a0c:	ea94 0f0c 	teq	r4, ip
 8000a10:	d10a      	bne.n	8000a28 <__aeabi_ddiv+0x19c>
 8000a12:	ea50 3401 	orrs.w	r4, r0, r1, lsl #12
 8000a16:	f47f af34 	bne.w	8000882 <__aeabi_dmul+0x24a>
 8000a1a:	ea95 0f0c 	teq	r5, ip
 8000a1e:	f47f af25 	bne.w	800086c <__aeabi_dmul+0x234>
 8000a22:	4610      	mov	r0, r2
 8000a24:	4619      	mov	r1, r3
 8000a26:	e72c      	b.n	8000882 <__aeabi_dmul+0x24a>
 8000a28:	ea95 0f0c 	teq	r5, ip
 8000a2c:	d106      	bne.n	8000a3c <__aeabi_ddiv+0x1b0>
 8000a2e:	ea52 3503 	orrs.w	r5, r2, r3, lsl #12
 8000a32:	f43f aefd 	beq.w	8000830 <__aeabi_dmul+0x1f8>
 8000a36:	4610      	mov	r0, r2
 8000a38:	4619      	mov	r1, r3
 8000a3a:	e722      	b.n	8000882 <__aeabi_dmul+0x24a>
 8000a3c:	ea50 0641 	orrs.w	r6, r0, r1, lsl #1
 8000a40:	bf18      	it	ne
 8000a42:	ea52 0643 	orrsne.w	r6, r2, r3, lsl #1
 8000a46:	f47f aec5 	bne.w	80007d4 <__aeabi_dmul+0x19c>
 8000a4a:	ea50 0441 	orrs.w	r4, r0, r1, lsl #1
 8000a4e:	f47f af0d 	bne.w	800086c <__aeabi_dmul+0x234>
 8000a52:	ea52 0543 	orrs.w	r5, r2, r3, lsl #1
 8000a56:	f47f aeeb 	bne.w	8000830 <__aeabi_dmul+0x1f8>
 8000a5a:	e712      	b.n	8000882 <__aeabi_dmul+0x24a>

08000a5c <__gedf2>:
 8000a5c:	f04f 3cff 	mov.w	ip, #4294967295	; 0xffffffff
 8000a60:	e006      	b.n	8000a70 <__cmpdf2+0x4>
 8000a62:	bf00      	nop

08000a64 <__ledf2>:
 8000a64:	f04f 0c01 	mov.w	ip, #1
 8000a68:	e002      	b.n	8000a70 <__cmpdf2+0x4>
 8000a6a:	bf00      	nop

08000a6c <__cmpdf2>:
 8000a6c:	f04f 0c01 	mov.w	ip, #1
 8000a70:	f84d cd04 	str.w	ip, [sp, #-4]!
 8000a74:	ea4f 0c41 	mov.w	ip, r1, lsl #1
 8000a78:	ea7f 5c6c 	mvns.w	ip, ip, asr #21
 8000a7c:	ea4f 0c43 	mov.w	ip, r3, lsl #1
 8000a80:	bf18      	it	ne
 8000a82:	ea7f 5c6c 	mvnsne.w	ip, ip, asr #21
 8000a86:	d01b      	beq.n	8000ac0 <__cmpdf2+0x54>
 8000a88:	b001      	add	sp, #4
 8000a8a:	ea50 0c41 	orrs.w	ip, r0, r1, lsl #1
 8000a8e:	bf0c      	ite	eq
 8000a90:	ea52 0c43 	orrseq.w	ip, r2, r3, lsl #1
 8000a94:	ea91 0f03 	teqne	r1, r3
 8000a98:	bf02      	ittt	eq
 8000a9a:	ea90 0f02 	teqeq	r0, r2
 8000a9e:	2000      	moveq	r0, #0
 8000aa0:	4770      	bxeq	lr
 8000aa2:	f110 0f00 	cmn.w	r0, #0
 8000aa6:	ea91 0f03 	teq	r1, r3
 8000aaa:	bf58      	it	pl
 8000aac:	4299      	cmppl	r1, r3
 8000aae:	bf08      	it	eq
 8000ab0:	4290      	cmpeq	r0, r2
 8000ab2:	bf2c      	ite	cs
 8000ab4:	17d8      	asrcs	r0, r3, #31
 8000ab6:	ea6f 70e3 	mvncc.w	r0, r3, asr #31
 8000aba:	f040 0001 	orr.w	r0, r0, #1
 8000abe:	4770      	bx	lr
 8000ac0:	ea4f 0c41 	mov.w	ip, r1, lsl #1
 8000ac4:	ea7f 5c6c 	mvns.w	ip, ip, asr #21
 8000ac8:	d102      	bne.n	8000ad0 <__cmpdf2+0x64>
 8000aca:	ea50 3c01 	orrs.w	ip, r0, r1, lsl #12
 8000ace:	d107      	bne.n	8000ae0 <__cmpdf2+0x74>
 8000ad0:	ea4f 0c43 	mov.w	ip, r3, lsl #1
 8000ad4:	ea7f 5c6c 	mvns.w	ip, ip, asr #21
 8000ad8:	d1d6      	bne.n	8000a88 <__cmpdf2+0x1c>
 8000ada:	ea52 3c03 	orrs.w	ip, r2, r3, lsl #12
 8000ade:	d0d3      	beq.n	8000a88 <__cmpdf2+0x1c>
 8000ae0:	f85d 0b04 	ldr.w	r0, [sp], #4
 8000ae4:	4770      	bx	lr
 8000ae6:	bf00      	nop

08000ae8 <__aeabi_cdrcmple>:
 8000ae8:	4684      	mov	ip, r0
 8000aea:	4610      	mov	r0, r2
 8000aec:	4662      	mov	r2, ip
 8000aee:	468c      	mov	ip, r1
 8000af0:	4619      	mov	r1, r3
 8000af2:	4663      	mov	r3, ip
 8000af4:	e000      	b.n	8000af8 <__aeabi_cdcmpeq>
 8000af6:	bf00      	nop

08000af8 <__aeabi_cdcmpeq>:
 8000af8:	b501      	push	{r0, lr}
 8000afa:	f7ff ffb7 	bl	8000a6c <__cmpdf2>
 8000afe:	2800      	cmp	r0, #0
 8000b00:	bf48      	it	mi
 8000b02:	f110 0f00 	cmnmi.w	r0, #0
 8000b06:	bd01      	pop	{r0, pc}

08000b08 <__aeabi_dcmpeq>:
 8000b08:	f84d ed08 	str.w	lr, [sp, #-8]!
 8000b0c:	f7ff fff4 	bl	8000af8 <__aeabi_cdcmpeq>
 8000b10:	bf0c      	ite	eq
 8000b12:	2001      	moveq	r0, #1
 8000b14:	2000      	movne	r0, #0
 8000b16:	f85d fb08 	ldr.w	pc, [sp], #8
 8000b1a:	bf00      	nop

08000b1c <__aeabi_dcmplt>:
 8000b1c:	f84d ed08 	str.w	lr, [sp, #-8]!
 8000b20:	f7ff ffea 	bl	8000af8 <__aeabi_cdcmpeq>
 8000b24:	bf34      	ite	cc
 8000b26:	2001      	movcc	r0, #1
 8000b28:	2000      	movcs	r0, #0
 8000b2a:	f85d fb08 	ldr.w	pc, [sp], #8
 8000b2e:	bf00      	nop

08000b30 <__aeabi_dcmple>:
 8000b30:	f84d ed08 	str.w	lr, [sp, #-8]!
 8000b34:	f7ff ffe0 	bl	8000af8 <__aeabi_cdcmpeq>
 8000b38:	bf94      	ite	ls
 8000b3a:	2001      	movls	r0, #1
 8000b3c:	2000      	movhi	r0, #0
 8000b3e:	f85d fb08 	ldr.w	pc, [sp], #8
 8000b42:	bf00      	nop

08000b44 <__aeabi_dcmpge>:
 8000b44:	f84d ed08 	str.w	lr, [sp, #-8]!
 8000b48:	f7ff ffce 	bl	8000ae8 <__aeabi_cdrcmple>
 8000b4c:	bf94      	ite	ls
 8000b4e:	2001      	movls	r0, #1
 8000b50:	2000      	movhi	r0, #0
 8000b52:	f85d fb08 	ldr.w	pc, [sp], #8
 8000b56:	bf00      	nop

08000b58 <__aeabi_dcmpgt>:
 8000b58:	f84d ed08 	str.w	lr, [sp, #-8]!
 8000b5c:	f7ff ffc4 	bl	8000ae8 <__aeabi_cdrcmple>
 8000b60:	bf34      	ite	cc
 8000b62:	2001      	movcc	r0, #1
 8000b64:	2000      	movcs	r0, #0
 8000b66:	f85d fb08 	ldr.w	pc, [sp], #8
 8000b6a:	bf00      	nop

08000b6c <__aeabi_dcmpun>:
 8000b6c:	ea4f 0c41 	mov.w	ip, r1, lsl #1
 8000b70:	ea7f 5c6c 	mvns.w	ip, ip, asr #21
 8000b74:	d102      	bne.n	8000b7c <__aeabi_dcmpun+0x10>
 8000b76:	ea50 3c01 	orrs.w	ip, r0, r1, lsl #12
 8000b7a:	d10a      	bne.n	8000b92 <__aeabi_dcmpun+0x26>
 8000b7c:	ea4f 0c43 	mov.w	ip, r3, lsl #1
 8000b80:	ea7f 5c6c 	mvns.w	ip, ip, asr #21
 8000b84:	d102      	bne.n	8000b8c <__aeabi_dcmpun+0x20>
 8000b86:	ea52 3c03 	orrs.w	ip, r2, r3, lsl #12
 8000b8a:	d102      	bne.n	8000b92 <__aeabi_dcmpun+0x26>
 8000b8c:	f04f 0000 	mov.w	r0, #0
 8000b90:	4770      	bx	lr
 8000b92:	f04f 0001 	mov.w	r0, #1
 8000b96:	4770      	bx	lr

08000b98 <__aeabi_d2iz>:
 8000b98:	ea4f 0241 	mov.w	r2, r1, lsl #1
 8000b9c:	f512 1200 	adds.w	r2, r2, #2097152	; 0x200000
 8000ba0:	d215      	bcs.n	8000bce <__aeabi_d2iz+0x36>
 8000ba2:	d511      	bpl.n	8000bc8 <__aeabi_d2iz+0x30>
 8000ba4:	f46f 7378 	mvn.w	r3, #992	; 0x3e0
 8000ba8:	ebb3 5262 	subs.w	r2, r3, r2, asr #21
 8000bac:	d912      	bls.n	8000bd4 <__aeabi_d2iz+0x3c>
 8000bae:	ea4f 23c1 	mov.w	r3, r1, lsl #11
 8000bb2:	f043 4300 	orr.w	r3, r3, #2147483648	; 0x80000000
 8000bb6:	ea43 5350 	orr.w	r3, r3, r0, lsr #21
 8000bba:	f011 4f00 	tst.w	r1, #2147483648	; 0x80000000
 8000bbe:	fa23 f002 	lsr.w	r0, r3, r2
 8000bc2:	bf18      	it	ne
 8000bc4:	4240      	negne	r0, r0
 8000bc6:	4770      	bx	lr
 8000bc8:	f04f 0000 	mov.w	r0, #0
 8000bcc:	4770      	bx	lr
 8000bce:	ea50 3001 	orrs.w	r0, r0, r1, lsl #12
 8000bd2:	d105      	bne.n	8000be0 <__aeabi_d2iz+0x48>
 8000bd4:	f011 4000 	ands.w	r0, r1, #2147483648	; 0x80000000
 8000bd8:	bf08      	it	eq
 8000bda:	f06f 4000 	mvneq.w	r0, #2147483648	; 0x80000000
 8000bde:	4770      	bx	lr
 8000be0:	f04f 0000 	mov.w	r0, #0
 8000be4:	4770      	bx	lr
 8000be6:	bf00      	nop

08000be8 <__aeabi_uldivmod>:
 8000be8:	b953      	cbnz	r3, 8000c00 <__aeabi_uldivmod+0x18>
 8000bea:	b94a      	cbnz	r2, 8000c00 <__aeabi_uldivmod+0x18>
 8000bec:	2900      	cmp	r1, #0
 8000bee:	bf08      	it	eq
 8000bf0:	2800      	cmpeq	r0, #0
 8000bf2:	bf1c      	itt	ne
 8000bf4:	f04f 31ff 	movne.w	r1, #4294967295	; 0xffffffff
 8000bf8:	f04f 30ff 	movne.w	r0, #4294967295	; 0xffffffff
 8000bfc:	f000 b972 	b.w	8000ee4 <__aeabi_idiv0>
 8000c00:	f1ad 0c08 	sub.w	ip, sp, #8
 8000c04:	e96d ce04 	strd	ip, lr, [sp, #-16]!
 8000c08:	f000 f806 	bl	8000c18 <__udivmoddi4>
 8000c0c:	f8dd e004 	ldr.w	lr, [sp, #4]
 8000c10:	e9dd 2302 	ldrd	r2, r3, [sp, #8]
 8000c14:	b004      	add	sp, #16
 8000c16:	4770      	bx	lr

08000c18 <__udivmoddi4>:
 8000c18:	e92d 47f0 	stmdb	sp!, {r4, r5, r6, r7, r8, r9, sl, lr}
 8000c1c:	9e08      	ldr	r6, [sp, #32]
 8000c1e:	4604      	mov	r4, r0
 8000c20:	4688      	mov	r8, r1
 8000c22:	2b00      	cmp	r3, #0
 8000c24:	d14b      	bne.n	8000cbe <__udivmoddi4+0xa6>
 8000c26:	428a      	cmp	r2, r1
 8000c28:	4615      	mov	r5, r2
 8000c2a:	d967      	bls.n	8000cfc <__udivmoddi4+0xe4>
 8000c2c:	fab2 f282 	clz	r2, r2
 8000c30:	b14a      	cbz	r2, 8000c46 <__udivmoddi4+0x2e>
 8000c32:	f1c2 0720 	rsb	r7, r2, #32
 8000c36:	fa01 f302 	lsl.w	r3, r1, r2
 8000c3a:	fa20 f707 	lsr.w	r7, r0, r7
 8000c3e:	4095      	lsls	r5, r2
 8000c40:	ea47 0803 	orr.w	r8, r7, r3
 8000c44:	4094      	lsls	r4, r2
 8000c46:	ea4f 4e15 	mov.w	lr, r5, lsr #16
 8000c4a:	0c23      	lsrs	r3, r4, #16
 8000c4c:	fbb8 f7fe 	udiv	r7, r8, lr
 8000c50:	fa1f fc85 	uxth.w	ip, r5
 8000c54:	fb0e 8817 	mls	r8, lr, r7, r8
 8000c58:	ea43 4308 	orr.w	r3, r3, r8, lsl #16
 8000c5c:	fb07 f10c 	mul.w	r1, r7, ip
 8000c60:	4299      	cmp	r1, r3
 8000c62:	d909      	bls.n	8000c78 <__udivmoddi4+0x60>
 8000c64:	18eb      	adds	r3, r5, r3
 8000c66:	f107 30ff 	add.w	r0, r7, #4294967295	; 0xffffffff
 8000c6a:	f080 811b 	bcs.w	8000ea4 <__udivmoddi4+0x28c>
 8000c6e:	4299      	cmp	r1, r3
 8000c70:	f240 8118 	bls.w	8000ea4 <__udivmoddi4+0x28c>
 8000c74:	3f02      	subs	r7, #2
 8000c76:	442b      	add	r3, r5
 8000c78:	1a5b      	subs	r3, r3, r1
 8000c7a:	b2a4      	uxth	r4, r4
 8000c7c:	fbb3 f0fe 	udiv	r0, r3, lr
 8000c80:	fb0e 3310 	mls	r3, lr, r0, r3
 8000c84:	ea44 4403 	orr.w	r4, r4, r3, lsl #16
 8000c88:	fb00 fc0c 	mul.w	ip, r0, ip
 8000c8c:	45a4      	cmp	ip, r4
 8000c8e:	d909      	bls.n	8000ca4 <__udivmoddi4+0x8c>
 8000c90:	192c      	adds	r4, r5, r4
 8000c92:	f100 33ff 	add.w	r3, r0, #4294967295	; 0xffffffff
 8000c96:	f080 8107 	bcs.w	8000ea8 <__udivmoddi4+0x290>
 8000c9a:	45a4      	cmp	ip, r4
 8000c9c:	f240 8104 	bls.w	8000ea8 <__udivmoddi4+0x290>
 8000ca0:	3802      	subs	r0, #2
 8000ca2:	442c      	add	r4, r5
 8000ca4:	ea40 4007 	orr.w	r0, r0, r7, lsl #16
 8000ca8:	eba4 040c 	sub.w	r4, r4, ip
 8000cac:	2700      	movs	r7, #0
 8000cae:	b11e      	cbz	r6, 8000cb8 <__udivmoddi4+0xa0>
 8000cb0:	40d4      	lsrs	r4, r2
 8000cb2:	2300      	movs	r3, #0
 8000cb4:	e9c6 4300 	strd	r4, r3, [r6]
 8000cb8:	4639      	mov	r1, r7
 8000cba:	e8bd 87f0 	ldmia.w	sp!, {r4, r5, r6, r7, r8, r9, sl, pc}
 8000cbe:	428b      	cmp	r3, r1
 8000cc0:	d909      	bls.n	8000cd6 <__udivmoddi4+0xbe>
 8000cc2:	2e00      	cmp	r6, #0
 8000cc4:	f000 80eb 	beq.w	8000e9e <__udivmoddi4+0x286>
 8000cc8:	2700      	movs	r7, #0
 8000cca:	e9c6 0100 	strd	r0, r1, [r6]
 8000cce:	4638      	mov	r0, r7
 8000cd0:	4639      	mov	r1, r7
 8000cd2:	e8bd 87f0 	ldmia.w	sp!, {r4, r5, r6, r7, r8, r9, sl, pc}
 8000cd6:	fab3 f783 	clz	r7, r3
 8000cda:	2f00      	cmp	r7, #0
 8000cdc:	d147      	bne.n	8000d6e <__udivmoddi4+0x156>
 8000cde:	428b      	cmp	r3, r1
 8000ce0:	d302      	bcc.n	8000ce8 <__udivmoddi4+0xd0>
 8000ce2:	4282      	cmp	r2, r0
 8000ce4:	f200 80fa 	bhi.w	8000edc <__udivmoddi4+0x2c4>
 8000ce8:	1a84      	subs	r4, r0, r2
 8000cea:	eb61 0303 	sbc.w	r3, r1, r3
 8000cee:	2001      	movs	r0, #1
 8000cf0:	4698      	mov	r8, r3
 8000cf2:	2e00      	cmp	r6, #0
 8000cf4:	d0e0      	beq.n	8000cb8 <__udivmoddi4+0xa0>
 8000cf6:	e9c6 4800 	strd	r4, r8, [r6]
 8000cfa:	e7dd      	b.n	8000cb8 <__udivmoddi4+0xa0>
 8000cfc:	b902      	cbnz	r2, 8000d00 <__udivmoddi4+0xe8>
 8000cfe:	deff      	udf	#255	; 0xff
 8000d00:	fab2 f282 	clz	r2, r2
 8000d04:	2a00      	cmp	r2, #0
 8000d06:	f040 808f 	bne.w	8000e28 <__udivmoddi4+0x210>
 8000d0a:	1b49      	subs	r1, r1, r5
 8000d0c:	ea4f 4e15 	mov.w	lr, r5, lsr #16
 8000d10:	fa1f f885 	uxth.w	r8, r5
 8000d14:	2701      	movs	r7, #1
 8000d16:	fbb1 fcfe 	udiv	ip, r1, lr
 8000d1a:	0c23      	lsrs	r3, r4, #16
 8000d1c:	fb0e 111c 	mls	r1, lr, ip, r1
 8000d20:	ea43 4301 	orr.w	r3, r3, r1, lsl #16
 8000d24:	fb08 f10c 	mul.w	r1, r8, ip
 8000d28:	4299      	cmp	r1, r3
 8000d2a:	d907      	bls.n	8000d3c <__udivmoddi4+0x124>
 8000d2c:	18eb      	adds	r3, r5, r3
 8000d2e:	f10c 30ff 	add.w	r0, ip, #4294967295	; 0xffffffff
 8000d32:	d202      	bcs.n	8000d3a <__udivmoddi4+0x122>
 8000d34:	4299      	cmp	r1, r3
 8000d36:	f200 80cd 	bhi.w	8000ed4 <__udivmoddi4+0x2bc>
 8000d3a:	4684      	mov	ip, r0
 8000d3c:	1a59      	subs	r1, r3, r1
 8000d3e:	b2a3      	uxth	r3, r4
 8000d40:	fbb1 f0fe 	udiv	r0, r1, lr
 8000d44:	fb0e 1410 	mls	r4, lr, r0, r1
 8000d48:	ea43 4404 	orr.w	r4, r3, r4, lsl #16
 8000d4c:	fb08 f800 	mul.w	r8, r8, r0
 8000d50:	45a0      	cmp	r8, r4
 8000d52:	d907      	bls.n	8000d64 <__udivmoddi4+0x14c>
 8000d54:	192c      	adds	r4, r5, r4
 8000d56:	f100 33ff 	add.w	r3, r0, #4294967295	; 0xffffffff
 8000d5a:	d202      	bcs.n	8000d62 <__udivmoddi4+0x14a>
 8000d5c:	45a0      	cmp	r8, r4
 8000d5e:	f200 80b6 	bhi.w	8000ece <__udivmoddi4+0x2b6>
 8000d62:	4618      	mov	r0, r3
 8000d64:	eba4 0408 	sub.w	r4, r4, r8
 8000d68:	ea40 400c 	orr.w	r0, r0, ip, lsl #16
 8000d6c:	e79f      	b.n	8000cae <__udivmoddi4+0x96>
 8000d6e:	f1c7 0c20 	rsb	ip, r7, #32
 8000d72:	40bb      	lsls	r3, r7
 8000d74:	fa22 fe0c 	lsr.w	lr, r2, ip
 8000d78:	ea4e 0e03 	orr.w	lr, lr, r3
 8000d7c:	fa01 f407 	lsl.w	r4, r1, r7
 8000d80:	fa20 f50c 	lsr.w	r5, r0, ip
 8000d84:	fa21 f30c 	lsr.w	r3, r1, ip
 8000d88:	ea4f 481e 	mov.w	r8, lr, lsr #16
 8000d8c:	4325      	orrs	r5, r4
 8000d8e:	fbb3 f9f8 	udiv	r9, r3, r8
 8000d92:	0c2c      	lsrs	r4, r5, #16
 8000d94:	fb08 3319 	mls	r3, r8, r9, r3
 8000d98:	fa1f fa8e 	uxth.w	sl, lr
 8000d9c:	ea44 4303 	orr.w	r3, r4, r3, lsl #16
 8000da0:	fb09 f40a 	mul.w	r4, r9, sl
 8000da4:	429c      	cmp	r4, r3
 8000da6:	fa02 f207 	lsl.w	r2, r2, r7
 8000daa:	fa00 f107 	lsl.w	r1, r0, r7
 8000dae:	d90b      	bls.n	8000dc8 <__udivmoddi4+0x1b0>
 8000db0:	eb1e 0303 	adds.w	r3, lr, r3
 8000db4:	f109 30ff 	add.w	r0, r9, #4294967295	; 0xffffffff
 8000db8:	f080 8087 	bcs.w	8000eca <__udivmoddi4+0x2b2>
 8000dbc:	429c      	cmp	r4, r3
 8000dbe:	f240 8084 	bls.w	8000eca <__udivmoddi4+0x2b2>
 8000dc2:	f1a9 0902 	sub.w	r9, r9, #2
 8000dc6:	4473      	add	r3, lr
 8000dc8:	1b1b      	subs	r3, r3, r4
 8000dca:	b2ad      	uxth	r5, r5
 8000dcc:	fbb3 f0f8 	udiv	r0, r3, r8
 8000dd0:	fb08 3310 	mls	r3, r8, r0, r3
 8000dd4:	ea45 4403 	orr.w	r4, r5, r3, lsl #16
 8000dd8:	fb00 fa0a 	mul.w	sl, r0, sl
 8000ddc:	45a2      	cmp	sl, r4
 8000dde:	d908      	bls.n	8000df2 <__udivmoddi4+0x1da>
 8000de0:	eb1e 0404 	adds.w	r4, lr, r4
 8000de4:	f100 33ff 	add.w	r3, r0, #4294967295	; 0xffffffff
 8000de8:	d26b      	bcs.n	8000ec2 <__udivmoddi4+0x2aa>
 8000dea:	45a2      	cmp	sl, r4
 8000dec:	d969      	bls.n	8000ec2 <__udivmoddi4+0x2aa>
 8000dee:	3802      	subs	r0, #2
 8000df0:	4474      	add	r4, lr
 8000df2:	ea40 4009 	orr.w	r0, r0, r9, lsl #16
 8000df6:	fba0 8902 	umull	r8, r9, r0, r2
 8000dfa:	eba4 040a 	sub.w	r4, r4, sl
 8000dfe:	454c      	cmp	r4, r9
 8000e00:	46c2      	mov	sl, r8
 8000e02:	464b      	mov	r3, r9
 8000e04:	d354      	bcc.n	8000eb0 <__udivmoddi4+0x298>
 8000e06:	d051      	beq.n	8000eac <__udivmoddi4+0x294>
 8000e08:	2e00      	cmp	r6, #0
 8000e0a:	d069      	beq.n	8000ee0 <__udivmoddi4+0x2c8>
 8000e0c:	ebb1 050a 	subs.w	r5, r1, sl
 8000e10:	eb64 0403 	sbc.w	r4, r4, r3
 8000e14:	fa04 fc0c 	lsl.w	ip, r4, ip
 8000e18:	40fd      	lsrs	r5, r7
 8000e1a:	40fc      	lsrs	r4, r7
 8000e1c:	ea4c 0505 	orr.w	r5, ip, r5
 8000e20:	e9c6 5400 	strd	r5, r4, [r6]
 8000e24:	2700      	movs	r7, #0
 8000e26:	e747      	b.n	8000cb8 <__udivmoddi4+0xa0>
 8000e28:	f1c2 0320 	rsb	r3, r2, #32
 8000e2c:	fa20 f703 	lsr.w	r7, r0, r3
 8000e30:	4095      	lsls	r5, r2
 8000e32:	fa01 f002 	lsl.w	r0, r1, r2
 8000e36:	fa21 f303 	lsr.w	r3, r1, r3
 8000e3a:	ea4f 4e15 	mov.w	lr, r5, lsr #16
 8000e3e:	4338      	orrs	r0, r7
 8000e40:	0c01      	lsrs	r1, r0, #16
 8000e42:	fbb3 f7fe 	udiv	r7, r3, lr
 8000e46:	fa1f f885 	uxth.w	r8, r5
 8000e4a:	fb0e 3317 	mls	r3, lr, r7, r3
 8000e4e:	ea41 4103 	orr.w	r1, r1, r3, lsl #16
 8000e52:	fb07 f308 	mul.w	r3, r7, r8
 8000e56:	428b      	cmp	r3, r1
 8000e58:	fa04 f402 	lsl.w	r4, r4, r2
 8000e5c:	d907      	bls.n	8000e6e <__udivmoddi4+0x256>
 8000e5e:	1869      	adds	r1, r5, r1
 8000e60:	f107 3cff 	add.w	ip, r7, #4294967295	; 0xffffffff
 8000e64:	d22f      	bcs.n	8000ec6 <__udivmoddi4+0x2ae>
 8000e66:	428b      	cmp	r3, r1
 8000e68:	d92d      	bls.n	8000ec6 <__udivmoddi4+0x2ae>
 8000e6a:	3f02      	subs	r7, #2
 8000e6c:	4429      	add	r1, r5
 8000e6e:	1acb      	subs	r3, r1, r3
 8000e70:	b281      	uxth	r1, r0
 8000e72:	fbb3 f0fe 	udiv	r0, r3, lr
 8000e76:	fb0e 3310 	mls	r3, lr, r0, r3
 8000e7a:	ea41 4103 	orr.w	r1, r1, r3, lsl #16
 8000e7e:	fb00 f308 	mul.w	r3, r0, r8
 8000e82:	428b      	cmp	r3, r1
 8000e84:	d907      	bls.n	8000e96 <__udivmoddi4+0x27e>
 8000e86:	1869      	adds	r1, r5, r1
 8000e88:	f100 3cff 	add.w	ip, r0, #4294967295	; 0xffffffff
 8000e8c:	d217      	bcs.n	8000ebe <__udivmoddi4+0x2a6>
 8000e8e:	428b      	cmp	r3, r1
 8000e90:	d915      	bls.n	8000ebe <__udivmoddi4+0x2a6>
 8000e92:	3802      	subs	r0, #2
 8000e94:	4429      	add	r1, r5
 8000e96:	1ac9      	subs	r1, r1, r3
 8000e98:	ea40 4707 	orr.w	r7, r0, r7, lsl #16
 8000e9c:	e73b      	b.n	8000d16 <__udivmoddi4+0xfe>
 8000e9e:	4637      	mov	r7, r6
 8000ea0:	4630      	mov	r0, r6
 8000ea2:	e709      	b.n	8000cb8 <__udivmoddi4+0xa0>
 8000ea4:	4607      	mov	r7, r0
 8000ea6:	e6e7      	b.n	8000c78 <__udivmoddi4+0x60>
 8000ea8:	4618      	mov	r0, r3
 8000eaa:	e6fb      	b.n	8000ca4 <__udivmoddi4+0x8c>
 8000eac:	4541      	cmp	r1, r8
 8000eae:	d2ab      	bcs.n	8000e08 <__udivmoddi4+0x1f0>
 8000eb0:	ebb8 0a02 	subs.w	sl, r8, r2
 8000eb4:	eb69 020e 	sbc.w	r2, r9, lr
 8000eb8:	3801      	subs	r0, #1
 8000eba:	4613      	mov	r3, r2
 8000ebc:	e7a4      	b.n	8000e08 <__udivmoddi4+0x1f0>
 8000ebe:	4660      	mov	r0, ip
 8000ec0:	e7e9      	b.n	8000e96 <__udivmoddi4+0x27e>
 8000ec2:	4618      	mov	r0, r3
 8000ec4:	e795      	b.n	8000df2 <__udivmoddi4+0x1da>
 8000ec6:	4667      	mov	r7, ip
 8000ec8:	e7d1      	b.n	8000e6e <__udivmoddi4+0x256>
 8000eca:	4681      	mov	r9, r0
 8000ecc:	e77c      	b.n	8000dc8 <__udivmoddi4+0x1b0>
 8000ece:	3802      	subs	r0, #2
 8000ed0:	442c      	add	r4, r5
 8000ed2:	e747      	b.n	8000d64 <__udivmoddi4+0x14c>
 8000ed4:	f1ac 0c02 	sub.w	ip, ip, #2
 8000ed8:	442b      	add	r3, r5
 8000eda:	e72f      	b.n	8000d3c <__udivmoddi4+0x124>
 8000edc:	4638      	mov	r0, r7
 8000ede:	e708      	b.n	8000cf2 <__udivmoddi4+0xda>
 8000ee0:	4637      	mov	r7, r6
 8000ee2:	e6e9      	b.n	8000cb8 <__udivmoddi4+0xa0>

08000ee4 <__aeabi_idiv0>:
 8000ee4:	4770      	bx	lr
 8000ee6:	bf00      	nop

08000ee8 <HAL_InitTick>:
 8000ee8:	4a0e      	ldr	r2, [pc, #56]	; (8000f24 <HAL_InitTick+0x3c>)
 8000eea:	f44f 737a 	mov.w	r3, #1000	; 0x3e8
 8000eee:	490e      	ldr	r1, [pc, #56]	; (8000f28 <HAL_InitTick+0x40>)
 8000ef0:	7812      	ldrb	r2, [r2, #0]
 8000ef2:	fbb3 f3f2 	udiv	r3, r3, r2
 8000ef6:	b510      	push	{r4, lr}
 8000ef8:	4604      	mov	r4, r0
 8000efa:	6808      	ldr	r0, [r1, #0]
 8000efc:	fbb0 f0f3 	udiv	r0, r0, r3
 8000f00:	f000 f88c 	bl	800101c <HAL_SYSTICK_Config>
 8000f04:	b908      	cbnz	r0, 8000f0a <HAL_InitTick+0x22>
 8000f06:	2c0f      	cmp	r4, #15
 8000f08:	d901      	bls.n	8000f0e <HAL_InitTick+0x26>
 8000f0a:	2001      	movs	r0, #1
 8000f0c:	bd10      	pop	{r4, pc}
 8000f0e:	2200      	movs	r2, #0
 8000f10:	4621      	mov	r1, r4
 8000f12:	f04f 30ff 	mov.w	r0, #4294967295	; 0xffffffff
 8000f16:	f000 f83d 	bl	8000f94 <HAL_NVIC_SetPriority>
 8000f1a:	4b04      	ldr	r3, [pc, #16]	; (8000f2c <HAL_InitTick+0x44>)
 8000f1c:	2000      	movs	r0, #0
 8000f1e:	601c      	str	r4, [r3, #0]
 8000f20:	bd10      	pop	{r4, pc}
 8000f22:	bf00      	nop
 8000f24:	20000000 	.word	0x20000000
 8000f28:	20000510 	.word	0x20000510
 8000f2c:	20000004 	.word	0x20000004

08000f30 <HAL_Init>:
 8000f30:	b508      	push	{r3, lr}
 8000f32:	2003      	movs	r0, #3
 8000f34:	f000 f81a 	bl	8000f6c <HAL_NVIC_SetPriorityGrouping>
 8000f38:	2000      	movs	r0, #0
 8000f3a:	f7ff ffd5 	bl	8000ee8 <HAL_InitTick>
 8000f3e:	f001 ff85 	bl	8002e4c <HAL_MspInit>
 8000f42:	2000      	movs	r0, #0
 8000f44:	bd08      	pop	{r3, pc}
 8000f46:	bf00      	nop

08000f48 <HAL_IncTick>:
 8000f48:	4a03      	ldr	r2, [pc, #12]	; (8000f58 <HAL_IncTick+0x10>)
 8000f4a:	4b04      	ldr	r3, [pc, #16]	; (8000f5c <HAL_IncTick+0x14>)
 8000f4c:	6811      	ldr	r1, [r2, #0]
 8000f4e:	781b      	ldrb	r3, [r3, #0]
 8000f50:	440b      	add	r3, r1
 8000f52:	6013      	str	r3, [r2, #0]
 8000f54:	4770      	bx	lr
 8000f56:	bf00      	nop
 8000f58:	20000f28 	.word	0x20000f28
 8000f5c:	20000000 	.word	0x20000000

08000f60 <HAL_GetTick>:
 8000f60:	4b01      	ldr	r3, [pc, #4]	; (8000f68 <HAL_GetTick+0x8>)
 8000f62:	6818      	ldr	r0, [r3, #0]
 8000f64:	4770      	bx	lr
 8000f66:	bf00      	nop
 8000f68:	20000f28 	.word	0x20000f28

08000f6c <HAL_NVIC_SetPriorityGrouping>:
 8000f6c:	4907      	ldr	r1, [pc, #28]	; (8000f8c <HAL_NVIC_SetPriorityGrouping+0x20>)
 8000f6e:	0200      	lsls	r0, r0, #8
 8000f70:	4b07      	ldr	r3, [pc, #28]	; (8000f90 <HAL_NVIC_SetPriorityGrouping+0x24>)
 8000f72:	68ca      	ldr	r2, [r1, #12]
 8000f74:	f400 60e0 	and.w	r0, r0, #1792	; 0x700
 8000f78:	b410      	push	{r4}
 8000f7a:	f64f 04ff 	movw	r4, #63743	; 0xf8ff
 8000f7e:	4022      	ands	r2, r4
 8000f80:	f85d 4b04 	ldr.w	r4, [sp], #4
 8000f84:	4313      	orrs	r3, r2
 8000f86:	4318      	orrs	r0, r3
 8000f88:	60c8      	str	r0, [r1, #12]
 8000f8a:	4770      	bx	lr
 8000f8c:	e000ed00 	.word	0xe000ed00
 8000f90:	05fa0000 	.word	0x05fa0000

08000f94 <HAL_NVIC_SetPriority>:
 8000f94:	4b17      	ldr	r3, [pc, #92]	; (8000ff4 <HAL_NVIC_SetPriority+0x60>)
 8000f96:	68db      	ldr	r3, [r3, #12]
 8000f98:	f3c3 2302 	ubfx	r3, r3, #8, #3
 8000f9c:	b430      	push	{r4, r5}
 8000f9e:	f1c3 0507 	rsb	r5, r3, #7
 8000fa2:	1d1c      	adds	r4, r3, #4
 8000fa4:	2d04      	cmp	r5, #4
 8000fa6:	bf28      	it	cs
 8000fa8:	2504      	movcs	r5, #4
 8000faa:	2c06      	cmp	r4, #6
 8000fac:	d918      	bls.n	8000fe0 <HAL_NVIC_SetPriority+0x4c>
 8000fae:	3b03      	subs	r3, #3
 8000fb0:	f04f 34ff 	mov.w	r4, #4294967295	; 0xffffffff
 8000fb4:	409c      	lsls	r4, r3
 8000fb6:	ea22 0404 	bic.w	r4, r2, r4
 8000fba:	f04f 32ff 	mov.w	r2, #4294967295	; 0xffffffff
 8000fbe:	2800      	cmp	r0, #0
 8000fc0:	fa02 f205 	lsl.w	r2, r2, r5
 8000fc4:	ea21 0102 	bic.w	r1, r1, r2
 8000fc8:	fa01 f203 	lsl.w	r2, r1, r3
 8000fcc:	ea42 0204 	orr.w	r2, r2, r4
 8000fd0:	ea4f 1202 	mov.w	r2, r2, lsl #4
 8000fd4:	b2d2      	uxtb	r2, r2
 8000fd6:	db06      	blt.n	8000fe6 <HAL_NVIC_SetPriority+0x52>
 8000fd8:	4b07      	ldr	r3, [pc, #28]	; (8000ff8 <HAL_NVIC_SetPriority+0x64>)
 8000fda:	541a      	strb	r2, [r3, r0]
 8000fdc:	bc30      	pop	{r4, r5}
 8000fde:	4770      	bx	lr
 8000fe0:	2400      	movs	r4, #0
 8000fe2:	4623      	mov	r3, r4
 8000fe4:	e7e9      	b.n	8000fba <HAL_NVIC_SetPriority+0x26>
 8000fe6:	f000 000f 	and.w	r0, r0, #15
 8000fea:	4b04      	ldr	r3, [pc, #16]	; (8000ffc <HAL_NVIC_SetPriority+0x68>)
 8000fec:	541a      	strb	r2, [r3, r0]
 8000fee:	bc30      	pop	{r4, r5}
 8000ff0:	4770      	bx	lr
 8000ff2:	bf00      	nop
 8000ff4:	e000ed00 	.word	0xe000ed00
 8000ff8:	e000e400 	.word	0xe000e400
 8000ffc:	e000ed14 	.word	0xe000ed14

08001000 <HAL_NVIC_EnableIRQ>:
 8001000:	2800      	cmp	r0, #0
 8001002:	db07      	blt.n	8001014 <HAL_NVIC_EnableIRQ+0x14>
 8001004:	f000 011f 	and.w	r1, r0, #31
 8001008:	2301      	movs	r3, #1
 800100a:	0940      	lsrs	r0, r0, #5
 800100c:	4a02      	ldr	r2, [pc, #8]	; (8001018 <HAL_NVIC_EnableIRQ+0x18>)
 800100e:	408b      	lsls	r3, r1
 8001010:	f842 3020 	str.w	r3, [r2, r0, lsl #2]
 8001014:	4770      	bx	lr
 8001016:	bf00      	nop
 8001018:	e000e100 	.word	0xe000e100

0800101c <HAL_SYSTICK_Config>:
 800101c:	3801      	subs	r0, #1
 800101e:	f1b0 7f80 	cmp.w	r0, #16777216	; 0x1000000
 8001022:	d20d      	bcs.n	8001040 <HAL_SYSTICK_Config+0x24>
 8001024:	4b07      	ldr	r3, [pc, #28]	; (8001044 <HAL_SYSTICK_Config+0x28>)
 8001026:	2200      	movs	r2, #0
 8001028:	2107      	movs	r1, #7
 800102a:	b430      	push	{r4, r5}
 800102c:	25f0      	movs	r5, #240	; 0xf0
 800102e:	4c06      	ldr	r4, [pc, #24]	; (8001048 <HAL_SYSTICK_Config+0x2c>)
 8001030:	6058      	str	r0, [r3, #4]
 8001032:	4610      	mov	r0, r2
 8001034:	f884 5023 	strb.w	r5, [r4, #35]	; 0x23
 8001038:	609a      	str	r2, [r3, #8]
 800103a:	6019      	str	r1, [r3, #0]
 800103c:	bc30      	pop	{r4, r5}
 800103e:	4770      	bx	lr
 8001040:	2001      	movs	r0, #1
 8001042:	4770      	bx	lr
 8001044:	e000e010 	.word	0xe000e010
 8001048:	e000ed00 	.word	0xe000ed00

0800104c <HAL_DMA_Abort_IT>:
 800104c:	f890 2035 	ldrb.w	r2, [r0, #53]	; 0x35
 8001050:	4603      	mov	r3, r0
 8001052:	2a02      	cmp	r2, #2
 8001054:	d003      	beq.n	800105e <HAL_DMA_Abort_IT+0x12>
 8001056:	2280      	movs	r2, #128	; 0x80
 8001058:	2001      	movs	r0, #1
 800105a:	655a      	str	r2, [r3, #84]	; 0x54
 800105c:	4770      	bx	lr
 800105e:	6802      	ldr	r2, [r0, #0]
 8001060:	2105      	movs	r1, #5
 8001062:	2000      	movs	r0, #0
 8001064:	f883 1035 	strb.w	r1, [r3, #53]	; 0x35
 8001068:	6813      	ldr	r3, [r2, #0]
 800106a:	f023 0301 	bic.w	r3, r3, #1
 800106e:	6013      	str	r3, [r2, #0]
 8001070:	4770      	bx	lr
 8001072:	bf00      	nop

08001074 <HAL_GPIO_Init>:
 8001074:	e92d 4ff0 	stmdb	sp!, {r4, r5, r6, r7, r8, r9, sl, fp, lr}
 8001078:	f8df c22c 	ldr.w	ip, [pc, #556]	; 80012a8 <HAL_GPIO_Init+0x234>
 800107c:	b083      	sub	sp, #12
 800107e:	468e      	mov	lr, r1
 8001080:	2500      	movs	r5, #0
 8001082:	f8df 9228 	ldr.w	r9, [pc, #552]	; 80012ac <HAL_GPIO_Init+0x238>
 8001086:	f8d1 8000 	ldr.w	r8, [r1]
 800108a:	e003      	b.n	8001094 <HAL_GPIO_Init+0x20>
 800108c:	3501      	adds	r5, #1
 800108e:	2d10      	cmp	r5, #16
 8001090:	f000 80b6 	beq.w	8001200 <HAL_GPIO_Init+0x18c>
 8001094:	2301      	movs	r3, #1
 8001096:	40ab      	lsls	r3, r5
 8001098:	ea08 0103 	and.w	r1, r8, r3
 800109c:	428b      	cmp	r3, r1
 800109e:	d1f5      	bne.n	800108c <HAL_GPIO_Init+0x18>
 80010a0:	f8de 4004 	ldr.w	r4, [lr, #4]
 80010a4:	f024 0710 	bic.w	r7, r4, #16
 80010a8:	2f02      	cmp	r7, #2
 80010aa:	f040 80ac 	bne.w	8001206 <HAL_GPIO_Init+0x192>
 80010ae:	08ef      	lsrs	r7, r5, #3
 80010b0:	f005 0a07 	and.w	sl, r5, #7
 80010b4:	f04f 0b0f 	mov.w	fp, #15
 80010b8:	f8de 2010 	ldr.w	r2, [lr, #16]
 80010bc:	eb00 0787 	add.w	r7, r0, r7, lsl #2
 80010c0:	ea4f 0a8a 	mov.w	sl, sl, lsl #2
 80010c4:	6a3e      	ldr	r6, [r7, #32]
 80010c6:	fa0b fb0a 	lsl.w	fp, fp, sl
 80010ca:	fa02 f20a 	lsl.w	r2, r2, sl
 80010ce:	ea4f 0a45 	mov.w	sl, r5, lsl #1
 80010d2:	ea26 060b 	bic.w	r6, r6, fp
 80010d6:	f04f 0b03 	mov.w	fp, #3
 80010da:	4332      	orrs	r2, r6
 80010dc:	fa0b fb0a 	lsl.w	fp, fp, sl
 80010e0:	f004 0603 	and.w	r6, r4, #3
 80010e4:	623a      	str	r2, [r7, #32]
 80010e6:	ea6f 020b 	mvn.w	r2, fp
 80010ea:	6807      	ldr	r7, [r0, #0]
 80010ec:	fa06 f60a 	lsl.w	r6, r6, sl
 80010f0:	4017      	ands	r7, r2
 80010f2:	433e      	orrs	r6, r7
 80010f4:	6006      	str	r6, [r0, #0]
 80010f6:	6886      	ldr	r6, [r0, #8]
 80010f8:	f3c4 1700 	ubfx	r7, r4, #4, #1
 80010fc:	ea06 0b02 	and.w	fp, r6, r2
 8001100:	f8de 600c 	ldr.w	r6, [lr, #12]
 8001104:	40af      	lsls	r7, r5
 8001106:	fa06 f60a 	lsl.w	r6, r6, sl
 800110a:	ea46 060b 	orr.w	r6, r6, fp
 800110e:	6086      	str	r6, [r0, #8]
 8001110:	6846      	ldr	r6, [r0, #4]
 8001112:	ea26 0303 	bic.w	r3, r6, r3
 8001116:	431f      	orrs	r7, r3
 8001118:	6047      	str	r7, [r0, #4]
 800111a:	68c6      	ldr	r6, [r0, #12]
 800111c:	00e7      	lsls	r7, r4, #3
 800111e:	f8de 3008 	ldr.w	r3, [lr, #8]
 8001122:	ea02 0206 	and.w	r2, r2, r6
 8001126:	fa03 f30a 	lsl.w	r3, r3, sl
 800112a:	ea43 0302 	orr.w	r3, r3, r2
 800112e:	60c3      	str	r3, [r0, #12]
 8001130:	d5ac      	bpl.n	800108c <HAL_GPIO_Init+0x18>
 8001132:	f8d9 6044 	ldr.w	r6, [r9, #68]	; 0x44
 8001136:	f025 0703 	bic.w	r7, r5, #3
 800113a:	f005 0303 	and.w	r3, r5, #3
 800113e:	220f      	movs	r2, #15
 8001140:	f446 4680 	orr.w	r6, r6, #16384	; 0x4000
 8001144:	f107 4780 	add.w	r7, r7, #1073741824	; 0x40000000
 8001148:	009b      	lsls	r3, r3, #2
 800114a:	f8c9 6044 	str.w	r6, [r9, #68]	; 0x44
 800114e:	f507 379c 	add.w	r7, r7, #79872	; 0x13800
 8001152:	f8d9 6044 	ldr.w	r6, [r9, #68]	; 0x44
 8001156:	fa02 fa03 	lsl.w	sl, r2, r3
 800115a:	f406 4680 	and.w	r6, r6, #16384	; 0x4000
 800115e:	9601      	str	r6, [sp, #4]
 8001160:	4e48      	ldr	r6, [pc, #288]	; (8001284 <HAL_GPIO_Init+0x210>)
 8001162:	9a01      	ldr	r2, [sp, #4]
 8001164:	42b0      	cmp	r0, r6
 8001166:	68ba      	ldr	r2, [r7, #8]
 8001168:	ea22 020a 	bic.w	r2, r2, sl
 800116c:	d020      	beq.n	80011b0 <HAL_GPIO_Init+0x13c>
 800116e:	f506 6680 	add.w	r6, r6, #1024	; 0x400
 8001172:	42b0      	cmp	r0, r6
 8001174:	d05e      	beq.n	8001234 <HAL_GPIO_Init+0x1c0>
 8001176:	4e44      	ldr	r6, [pc, #272]	; (8001288 <HAL_GPIO_Init+0x214>)
 8001178:	42b0      	cmp	r0, r6
 800117a:	d060      	beq.n	800123e <HAL_GPIO_Init+0x1ca>
 800117c:	4e43      	ldr	r6, [pc, #268]	; (800128c <HAL_GPIO_Init+0x218>)
 800117e:	42b0      	cmp	r0, r6
 8001180:	d062      	beq.n	8001248 <HAL_GPIO_Init+0x1d4>
 8001182:	4e43      	ldr	r6, [pc, #268]	; (8001290 <HAL_GPIO_Init+0x21c>)
 8001184:	42b0      	cmp	r0, r6
 8001186:	d064      	beq.n	8001252 <HAL_GPIO_Init+0x1de>
 8001188:	4e42      	ldr	r6, [pc, #264]	; (8001294 <HAL_GPIO_Init+0x220>)
 800118a:	42b0      	cmp	r0, r6
 800118c:	d06b      	beq.n	8001266 <HAL_GPIO_Init+0x1f2>
 800118e:	4e42      	ldr	r6, [pc, #264]	; (8001298 <HAL_GPIO_Init+0x224>)
 8001190:	42b0      	cmp	r0, r6
 8001192:	d06d      	beq.n	8001270 <HAL_GPIO_Init+0x1fc>
 8001194:	4e41      	ldr	r6, [pc, #260]	; (800129c <HAL_GPIO_Init+0x228>)
 8001196:	42b0      	cmp	r0, r6
 8001198:	d060      	beq.n	800125c <HAL_GPIO_Init+0x1e8>
 800119a:	4e41      	ldr	r6, [pc, #260]	; (80012a0 <HAL_GPIO_Init+0x22c>)
 800119c:	42b0      	cmp	r0, r6
 800119e:	d06c      	beq.n	800127a <HAL_GPIO_Init+0x206>
 80011a0:	4e40      	ldr	r6, [pc, #256]	; (80012a4 <HAL_GPIO_Init+0x230>)
 80011a2:	42b0      	cmp	r0, r6
 80011a4:	bf0c      	ite	eq
 80011a6:	2609      	moveq	r6, #9
 80011a8:	260a      	movne	r6, #10
 80011aa:	fa06 f303 	lsl.w	r3, r6, r3
 80011ae:	431a      	orrs	r2, r3
 80011b0:	60ba      	str	r2, [r7, #8]
 80011b2:	03e6      	lsls	r6, r4, #15
 80011b4:	f8dc 3000 	ldr.w	r3, [ip]
 80011b8:	ea6f 0201 	mvn.w	r2, r1
 80011bc:	f105 0501 	add.w	r5, r5, #1
 80011c0:	bf54      	ite	pl
 80011c2:	4013      	andpl	r3, r2
 80011c4:	430b      	orrmi	r3, r1
 80011c6:	03a7      	lsls	r7, r4, #14
 80011c8:	f8cc 3000 	str.w	r3, [ip]
 80011cc:	f8dc 3004 	ldr.w	r3, [ip, #4]
 80011d0:	bf54      	ite	pl
 80011d2:	4013      	andpl	r3, r2
 80011d4:	430b      	orrmi	r3, r1
 80011d6:	02e6      	lsls	r6, r4, #11
 80011d8:	f8cc 3004 	str.w	r3, [ip, #4]
 80011dc:	f8dc 3008 	ldr.w	r3, [ip, #8]
 80011e0:	bf54      	ite	pl
 80011e2:	4013      	andpl	r3, r2
 80011e4:	430b      	orrmi	r3, r1
 80011e6:	02a4      	lsls	r4, r4, #10
 80011e8:	f8cc 3008 	str.w	r3, [ip, #8]
 80011ec:	f8dc 300c 	ldr.w	r3, [ip, #12]
 80011f0:	bf54      	ite	pl
 80011f2:	4013      	andpl	r3, r2
 80011f4:	430b      	orrmi	r3, r1
 80011f6:	2d10      	cmp	r5, #16
 80011f8:	f8cc 300c 	str.w	r3, [ip, #12]
 80011fc:	f47f af4a 	bne.w	8001094 <HAL_GPIO_Init+0x20>
 8001200:	b003      	add	sp, #12
 8001202:	e8bd 8ff0 	ldmia.w	sp!, {r4, r5, r6, r7, r8, r9, sl, fp, pc}
 8001206:	ea4f 0a45 	mov.w	sl, r5, lsl #1
 800120a:	2203      	movs	r2, #3
 800120c:	f8d0 b000 	ldr.w	fp, [r0]
 8001210:	3f01      	subs	r7, #1
 8001212:	ea04 0602 	and.w	r6, r4, r2
 8001216:	fa02 f20a 	lsl.w	r2, r2, sl
 800121a:	2f01      	cmp	r7, #1
 800121c:	ea6f 0202 	mvn.w	r2, r2
 8001220:	fa06 f60a 	lsl.w	r6, r6, sl
 8001224:	ea02 0b0b 	and.w	fp, r2, fp
 8001228:	ea46 060b 	orr.w	r6, r6, fp
 800122c:	6006      	str	r6, [r0, #0]
 800122e:	f63f af74 	bhi.w	800111a <HAL_GPIO_Init+0xa6>
 8001232:	e760      	b.n	80010f6 <HAL_GPIO_Init+0x82>
 8001234:	2601      	movs	r6, #1
 8001236:	fa06 f303 	lsl.w	r3, r6, r3
 800123a:	431a      	orrs	r2, r3
 800123c:	e7b8      	b.n	80011b0 <HAL_GPIO_Init+0x13c>
 800123e:	2602      	movs	r6, #2
 8001240:	fa06 f303 	lsl.w	r3, r6, r3
 8001244:	431a      	orrs	r2, r3
 8001246:	e7b3      	b.n	80011b0 <HAL_GPIO_Init+0x13c>
 8001248:	2603      	movs	r6, #3
 800124a:	fa06 f303 	lsl.w	r3, r6, r3
 800124e:	431a      	orrs	r2, r3
 8001250:	e7ae      	b.n	80011b0 <HAL_GPIO_Init+0x13c>
 8001252:	2604      	movs	r6, #4
 8001254:	fa06 f303 	lsl.w	r3, r6, r3
 8001258:	431a      	orrs	r2, r3
 800125a:	e7a9      	b.n	80011b0 <HAL_GPIO_Init+0x13c>
 800125c:	2607      	movs	r6, #7
 800125e:	fa06 f303 	lsl.w	r3, r6, r3
 8001262:	431a      	orrs	r2, r3
 8001264:	e7a4      	b.n	80011b0 <HAL_GPIO_Init+0x13c>
 8001266:	2605      	movs	r6, #5
 8001268:	fa06 f303 	lsl.w	r3, r6, r3
 800126c:	431a      	orrs	r2, r3
 800126e:	e79f      	b.n	80011b0 <HAL_GPIO_Init+0x13c>
 8001270:	2606      	movs	r6, #6
 8001272:	fa06 f303 	lsl.w	r3, r6, r3
 8001276:	431a      	orrs	r2, r3
 8001278:	e79a      	b.n	80011b0 <HAL_GPIO_Init+0x13c>
 800127a:	2608      	movs	r6, #8
 800127c:	fa06 f303 	lsl.w	r3, r6, r3
 8001280:	431a      	orrs	r2, r3
 8001282:	e795      	b.n	80011b0 <HAL_GPIO_Init+0x13c>
 8001284:	40020000 	.word	0x40020000
 8001288:	40020800 	.word	0x40020800
 800128c:	40020c00 	.word	0x40020c00
 8001290:	40021000 	.word	0x40021000
 8001294:	40021400 	.word	0x40021400
 8001298:	40021800 	.word	0x40021800
 800129c:	40021c00 	.word	0x40021c00
 80012a0:	40022000 	.word	0x40022000
 80012a4:	40022400 	.word	0x40022400
 80012a8:	40013c00 	.word	0x40013c00
 80012ac:	40023800 	.word	0x40023800

080012b0 <HAL_GPIO_WritePin>:
 80012b0:	b902      	cbnz	r2, 80012b4 <HAL_GPIO_WritePin+0x4>
 80012b2:	0409      	lsls	r1, r1, #16
 80012b4:	6181      	str	r1, [r0, #24]
 80012b6:	4770      	bx	lr

080012b8 <HAL_PWREx_EnableOverDrive>:
 80012b8:	4a1b      	ldr	r2, [pc, #108]	; (8001328 <HAL_PWREx_EnableOverDrive+0x70>)
 80012ba:	4b1c      	ldr	r3, [pc, #112]	; (800132c <HAL_PWREx_EnableOverDrive+0x74>)
 80012bc:	6c11      	ldr	r1, [r2, #64]	; 0x40
 80012be:	f041 5180 	orr.w	r1, r1, #268435456	; 0x10000000
 80012c2:	b530      	push	{r4, r5, lr}
 80012c4:	6411      	str	r1, [r2, #64]	; 0x40
 80012c6:	b083      	sub	sp, #12
 80012c8:	6c12      	ldr	r2, [r2, #64]	; 0x40
 80012ca:	461c      	mov	r4, r3
 80012cc:	f002 5280 	and.w	r2, r2, #268435456	; 0x10000000
 80012d0:	9201      	str	r2, [sp, #4]
 80012d2:	9a01      	ldr	r2, [sp, #4]
 80012d4:	681a      	ldr	r2, [r3, #0]
 80012d6:	f442 3280 	orr.w	r2, r2, #65536	; 0x10000
 80012da:	601a      	str	r2, [r3, #0]
 80012dc:	f7ff fe40 	bl	8000f60 <HAL_GetTick>
 80012e0:	4605      	mov	r5, r0
 80012e2:	e005      	b.n	80012f0 <HAL_PWREx_EnableOverDrive+0x38>
 80012e4:	f7ff fe3c 	bl	8000f60 <HAL_GetTick>
 80012e8:	1b40      	subs	r0, r0, r5
 80012ea:	f5b0 7f7a 	cmp.w	r0, #1000	; 0x3e8
 80012ee:	d817      	bhi.n	8001320 <HAL_PWREx_EnableOverDrive+0x68>
 80012f0:	6863      	ldr	r3, [r4, #4]
 80012f2:	03da      	lsls	r2, r3, #15
 80012f4:	d5f6      	bpl.n	80012e4 <HAL_PWREx_EnableOverDrive+0x2c>
 80012f6:	6823      	ldr	r3, [r4, #0]
 80012f8:	4d0c      	ldr	r5, [pc, #48]	; (800132c <HAL_PWREx_EnableOverDrive+0x74>)
 80012fa:	f443 3300 	orr.w	r3, r3, #131072	; 0x20000
 80012fe:	6023      	str	r3, [r4, #0]
 8001300:	f7ff fe2e 	bl	8000f60 <HAL_GetTick>
 8001304:	4604      	mov	r4, r0
 8001306:	e005      	b.n	8001314 <HAL_PWREx_EnableOverDrive+0x5c>
 8001308:	f7ff fe2a 	bl	8000f60 <HAL_GetTick>
 800130c:	1b00      	subs	r0, r0, r4
 800130e:	f5b0 7f7a 	cmp.w	r0, #1000	; 0x3e8
 8001312:	d805      	bhi.n	8001320 <HAL_PWREx_EnableOverDrive+0x68>
 8001314:	686b      	ldr	r3, [r5, #4]
 8001316:	039b      	lsls	r3, r3, #14
 8001318:	d5f6      	bpl.n	8001308 <HAL_PWREx_EnableOverDrive+0x50>
 800131a:	2000      	movs	r0, #0
 800131c:	b003      	add	sp, #12
 800131e:	bd30      	pop	{r4, r5, pc}
 8001320:	2003      	movs	r0, #3
 8001322:	b003      	add	sp, #12
 8001324:	bd30      	pop	{r4, r5, pc}
 8001326:	bf00      	nop
 8001328:	40023800 	.word	0x40023800
 800132c:	40007000 	.word	0x40007000

08001330 <HAL_RCC_OscConfig>:
 8001330:	2800      	cmp	r0, #0
 8001332:	f000 8134 	beq.w	800159e <HAL_RCC_OscConfig+0x26e>
 8001336:	6803      	ldr	r3, [r0, #0]
 8001338:	e92d 41f0 	stmdb	sp!, {r4, r5, r6, r7, r8, lr}
 800133c:	07dd      	lsls	r5, r3, #31
 800133e:	b082      	sub	sp, #8
 8001340:	4604      	mov	r4, r0
 8001342:	d535      	bpl.n	80013b0 <HAL_RCC_OscConfig+0x80>
 8001344:	49ab      	ldr	r1, [pc, #684]	; (80015f4 <HAL_RCC_OscConfig+0x2c4>)
 8001346:	688a      	ldr	r2, [r1, #8]
 8001348:	f002 020c 	and.w	r2, r2, #12
 800134c:	2a04      	cmp	r2, #4
 800134e:	f000 80fe 	beq.w	800154e <HAL_RCC_OscConfig+0x21e>
 8001352:	688a      	ldr	r2, [r1, #8]
 8001354:	f002 020c 	and.w	r2, r2, #12
 8001358:	2a08      	cmp	r2, #8
 800135a:	f000 80f4 	beq.w	8001546 <HAL_RCC_OscConfig+0x216>
 800135e:	6863      	ldr	r3, [r4, #4]
 8001360:	f5b3 3f80 	cmp.w	r3, #65536	; 0x10000
 8001364:	d010      	beq.n	8001388 <HAL_RCC_OscConfig+0x58>
 8001366:	2b00      	cmp	r3, #0
 8001368:	f000 811b 	beq.w	80015a2 <HAL_RCC_OscConfig+0x272>
 800136c:	f5b3 2fa0 	cmp.w	r3, #327680	; 0x50000
 8001370:	4ba0      	ldr	r3, [pc, #640]	; (80015f4 <HAL_RCC_OscConfig+0x2c4>)
 8001372:	681a      	ldr	r2, [r3, #0]
 8001374:	f000 8162 	beq.w	800163c <HAL_RCC_OscConfig+0x30c>
 8001378:	f422 3280 	bic.w	r2, r2, #65536	; 0x10000
 800137c:	601a      	str	r2, [r3, #0]
 800137e:	681a      	ldr	r2, [r3, #0]
 8001380:	f422 2280 	bic.w	r2, r2, #262144	; 0x40000
 8001384:	601a      	str	r2, [r3, #0]
 8001386:	e004      	b.n	8001392 <HAL_RCC_OscConfig+0x62>
 8001388:	4a9a      	ldr	r2, [pc, #616]	; (80015f4 <HAL_RCC_OscConfig+0x2c4>)
 800138a:	6813      	ldr	r3, [r2, #0]
 800138c:	f443 3380 	orr.w	r3, r3, #65536	; 0x10000
 8001390:	6013      	str	r3, [r2, #0]
 8001392:	f7ff fde5 	bl	8000f60 <HAL_GetTick>
 8001396:	4d97      	ldr	r5, [pc, #604]	; (80015f4 <HAL_RCC_OscConfig+0x2c4>)
 8001398:	4606      	mov	r6, r0
 800139a:	e005      	b.n	80013a8 <HAL_RCC_OscConfig+0x78>
 800139c:	f7ff fde0 	bl	8000f60 <HAL_GetTick>
 80013a0:	1b80      	subs	r0, r0, r6
 80013a2:	2864      	cmp	r0, #100	; 0x64
 80013a4:	f200 80ee 	bhi.w	8001584 <HAL_RCC_OscConfig+0x254>
 80013a8:	682b      	ldr	r3, [r5, #0]
 80013aa:	039a      	lsls	r2, r3, #14
 80013ac:	d5f6      	bpl.n	800139c <HAL_RCC_OscConfig+0x6c>
 80013ae:	6823      	ldr	r3, [r4, #0]
 80013b0:	079f      	lsls	r7, r3, #30
 80013b2:	d442      	bmi.n	800143a <HAL_RCC_OscConfig+0x10a>
 80013b4:	071a      	lsls	r2, r3, #28
 80013b6:	d517      	bpl.n	80013e8 <HAL_RCC_OscConfig+0xb8>
 80013b8:	6963      	ldr	r3, [r4, #20]
 80013ba:	2b00      	cmp	r3, #0
 80013bc:	f000 80b0 	beq.w	8001520 <HAL_RCC_OscConfig+0x1f0>
 80013c0:	4b8c      	ldr	r3, [pc, #560]	; (80015f4 <HAL_RCC_OscConfig+0x2c4>)
 80013c2:	6f5a      	ldr	r2, [r3, #116]	; 0x74
 80013c4:	461d      	mov	r5, r3
 80013c6:	f042 0201 	orr.w	r2, r2, #1
 80013ca:	675a      	str	r2, [r3, #116]	; 0x74
 80013cc:	f7ff fdc8 	bl	8000f60 <HAL_GetTick>
 80013d0:	4606      	mov	r6, r0
 80013d2:	e005      	b.n	80013e0 <HAL_RCC_OscConfig+0xb0>
 80013d4:	f7ff fdc4 	bl	8000f60 <HAL_GetTick>
 80013d8:	1b80      	subs	r0, r0, r6
 80013da:	2802      	cmp	r0, #2
 80013dc:	f200 80d2 	bhi.w	8001584 <HAL_RCC_OscConfig+0x254>
 80013e0:	6f6b      	ldr	r3, [r5, #116]	; 0x74
 80013e2:	079b      	lsls	r3, r3, #30
 80013e4:	d5f6      	bpl.n	80013d4 <HAL_RCC_OscConfig+0xa4>
 80013e6:	6823      	ldr	r3, [r4, #0]
 80013e8:	075d      	lsls	r5, r3, #29
 80013ea:	d56b      	bpl.n	80014c4 <HAL_RCC_OscConfig+0x194>
 80013ec:	4b81      	ldr	r3, [pc, #516]	; (80015f4 <HAL_RCC_OscConfig+0x2c4>)
 80013ee:	6c1a      	ldr	r2, [r3, #64]	; 0x40
 80013f0:	00d0      	lsls	r0, r2, #3
 80013f2:	f100 80ed 	bmi.w	80015d0 <HAL_RCC_OscConfig+0x2a0>
 80013f6:	6c1a      	ldr	r2, [r3, #64]	; 0x40
 80013f8:	2501      	movs	r5, #1
 80013fa:	f042 5280 	orr.w	r2, r2, #268435456	; 0x10000000
 80013fe:	641a      	str	r2, [r3, #64]	; 0x40
 8001400:	6c1b      	ldr	r3, [r3, #64]	; 0x40
 8001402:	f003 5380 	and.w	r3, r3, #268435456	; 0x10000000
 8001406:	9301      	str	r3, [sp, #4]
 8001408:	9b01      	ldr	r3, [sp, #4]
 800140a:	4b7b      	ldr	r3, [pc, #492]	; (80015f8 <HAL_RCC_OscConfig+0x2c8>)
 800140c:	681a      	ldr	r2, [r3, #0]
 800140e:	05d1      	lsls	r1, r2, #23
 8001410:	f140 80a7 	bpl.w	8001562 <HAL_RCC_OscConfig+0x232>
 8001414:	68a3      	ldr	r3, [r4, #8]
 8001416:	2b01      	cmp	r3, #1
 8001418:	d039      	beq.n	800148e <HAL_RCC_OscConfig+0x15e>
 800141a:	2b00      	cmp	r3, #0
 800141c:	f000 80da 	beq.w	80015d4 <HAL_RCC_OscConfig+0x2a4>
 8001420:	2b05      	cmp	r3, #5
 8001422:	4b74      	ldr	r3, [pc, #464]	; (80015f4 <HAL_RCC_OscConfig+0x2c4>)
 8001424:	6f1a      	ldr	r2, [r3, #112]	; 0x70
 8001426:	f000 8111 	beq.w	800164c <HAL_RCC_OscConfig+0x31c>
 800142a:	f022 0201 	bic.w	r2, r2, #1
 800142e:	671a      	str	r2, [r3, #112]	; 0x70
 8001430:	6f1a      	ldr	r2, [r3, #112]	; 0x70
 8001432:	f022 0204 	bic.w	r2, r2, #4
 8001436:	671a      	str	r2, [r3, #112]	; 0x70
 8001438:	e02e      	b.n	8001498 <HAL_RCC_OscConfig+0x168>
 800143a:	4a6e      	ldr	r2, [pc, #440]	; (80015f4 <HAL_RCC_OscConfig+0x2c4>)
 800143c:	6891      	ldr	r1, [r2, #8]
 800143e:	f011 0f0c 	tst.w	r1, #12
 8001442:	d062      	beq.n	800150a <HAL_RCC_OscConfig+0x1da>
 8001444:	6891      	ldr	r1, [r2, #8]
 8001446:	f001 010c 	and.w	r1, r1, #12
 800144a:	2908      	cmp	r1, #8
 800144c:	d05a      	beq.n	8001504 <HAL_RCC_OscConfig+0x1d4>
 800144e:	68e3      	ldr	r3, [r4, #12]
 8001450:	2b00      	cmp	r3, #0
 8001452:	f000 80df 	beq.w	8001614 <HAL_RCC_OscConfig+0x2e4>
 8001456:	4b67      	ldr	r3, [pc, #412]	; (80015f4 <HAL_RCC_OscConfig+0x2c4>)
 8001458:	681a      	ldr	r2, [r3, #0]
 800145a:	461d      	mov	r5, r3
 800145c:	f042 0201 	orr.w	r2, r2, #1
 8001460:	601a      	str	r2, [r3, #0]
 8001462:	f7ff fd7d 	bl	8000f60 <HAL_GetTick>
 8001466:	4606      	mov	r6, r0
 8001468:	e005      	b.n	8001476 <HAL_RCC_OscConfig+0x146>
 800146a:	f7ff fd79 	bl	8000f60 <HAL_GetTick>
 800146e:	1b80      	subs	r0, r0, r6
 8001470:	2802      	cmp	r0, #2
 8001472:	f200 8087 	bhi.w	8001584 <HAL_RCC_OscConfig+0x254>
 8001476:	682b      	ldr	r3, [r5, #0]
 8001478:	0798      	lsls	r0, r3, #30
 800147a:	d5f6      	bpl.n	800146a <HAL_RCC_OscConfig+0x13a>
 800147c:	682b      	ldr	r3, [r5, #0]
 800147e:	6922      	ldr	r2, [r4, #16]
 8001480:	f023 03f8 	bic.w	r3, r3, #248	; 0xf8
 8001484:	ea43 03c2 	orr.w	r3, r3, r2, lsl #3
 8001488:	602b      	str	r3, [r5, #0]
 800148a:	6823      	ldr	r3, [r4, #0]
 800148c:	e792      	b.n	80013b4 <HAL_RCC_OscConfig+0x84>
 800148e:	4a59      	ldr	r2, [pc, #356]	; (80015f4 <HAL_RCC_OscConfig+0x2c4>)
 8001490:	6f13      	ldr	r3, [r2, #112]	; 0x70
 8001492:	f043 0301 	orr.w	r3, r3, #1
 8001496:	6713      	str	r3, [r2, #112]	; 0x70
 8001498:	f7ff fd62 	bl	8000f60 <HAL_GetTick>
 800149c:	4e55      	ldr	r6, [pc, #340]	; (80015f4 <HAL_RCC_OscConfig+0x2c4>)
 800149e:	4680      	mov	r8, r0
 80014a0:	f241 3788 	movw	r7, #5000	; 0x1388
 80014a4:	e005      	b.n	80014b2 <HAL_RCC_OscConfig+0x182>
 80014a6:	f7ff fd5b 	bl	8000f60 <HAL_GetTick>
 80014aa:	eba0 0008 	sub.w	r0, r0, r8
 80014ae:	42b8      	cmp	r0, r7
 80014b0:	d868      	bhi.n	8001584 <HAL_RCC_OscConfig+0x254>
 80014b2:	6f33      	ldr	r3, [r6, #112]	; 0x70
 80014b4:	079b      	lsls	r3, r3, #30
 80014b6:	d5f6      	bpl.n	80014a6 <HAL_RCC_OscConfig+0x176>
 80014b8:	b125      	cbz	r5, 80014c4 <HAL_RCC_OscConfig+0x194>
 80014ba:	4a4e      	ldr	r2, [pc, #312]	; (80015f4 <HAL_RCC_OscConfig+0x2c4>)
 80014bc:	6c13      	ldr	r3, [r2, #64]	; 0x40
 80014be:	f023 5380 	bic.w	r3, r3, #268435456	; 0x10000000
 80014c2:	6413      	str	r3, [r2, #64]	; 0x40
 80014c4:	69a3      	ldr	r3, [r4, #24]
 80014c6:	b1cb      	cbz	r3, 80014fc <HAL_RCC_OscConfig+0x1cc>
 80014c8:	4a4a      	ldr	r2, [pc, #296]	; (80015f4 <HAL_RCC_OscConfig+0x2c4>)
 80014ca:	6891      	ldr	r1, [r2, #8]
 80014cc:	f001 010c 	and.w	r1, r1, #12
 80014d0:	2908      	cmp	r1, #8
 80014d2:	d021      	beq.n	8001518 <HAL_RCC_OscConfig+0x1e8>
 80014d4:	2b02      	cmp	r3, #2
 80014d6:	6813      	ldr	r3, [r2, #0]
 80014d8:	f000 80c0 	beq.w	800165c <HAL_RCC_OscConfig+0x32c>
 80014dc:	f023 7380 	bic.w	r3, r3, #16777216	; 0x1000000
 80014e0:	4614      	mov	r4, r2
 80014e2:	6013      	str	r3, [r2, #0]
 80014e4:	f7ff fd3c 	bl	8000f60 <HAL_GetTick>
 80014e8:	4605      	mov	r5, r0
 80014ea:	e004      	b.n	80014f6 <HAL_RCC_OscConfig+0x1c6>
 80014ec:	f7ff fd38 	bl	8000f60 <HAL_GetTick>
 80014f0:	1b40      	subs	r0, r0, r5
 80014f2:	2802      	cmp	r0, #2
 80014f4:	d846      	bhi.n	8001584 <HAL_RCC_OscConfig+0x254>
 80014f6:	6823      	ldr	r3, [r4, #0]
 80014f8:	019b      	lsls	r3, r3, #6
 80014fa:	d4f7      	bmi.n	80014ec <HAL_RCC_OscConfig+0x1bc>
 80014fc:	2000      	movs	r0, #0
 80014fe:	b002      	add	sp, #8
 8001500:	e8bd 81f0 	ldmia.w	sp!, {r4, r5, r6, r7, r8, pc}
 8001504:	6852      	ldr	r2, [r2, #4]
 8001506:	0256      	lsls	r6, r2, #9
 8001508:	d4a1      	bmi.n	800144e <HAL_RCC_OscConfig+0x11e>
 800150a:	4a3a      	ldr	r2, [pc, #232]	; (80015f4 <HAL_RCC_OscConfig+0x2c4>)
 800150c:	6812      	ldr	r2, [r2, #0]
 800150e:	0795      	lsls	r5, r2, #30
 8001510:	d53c      	bpl.n	800158c <HAL_RCC_OscConfig+0x25c>
 8001512:	68e2      	ldr	r2, [r4, #12]
 8001514:	2a01      	cmp	r2, #1
 8001516:	d039      	beq.n	800158c <HAL_RCC_OscConfig+0x25c>
 8001518:	2001      	movs	r0, #1
 800151a:	b002      	add	sp, #8
 800151c:	e8bd 81f0 	ldmia.w	sp!, {r4, r5, r6, r7, r8, pc}
 8001520:	4b34      	ldr	r3, [pc, #208]	; (80015f4 <HAL_RCC_OscConfig+0x2c4>)
 8001522:	6f5a      	ldr	r2, [r3, #116]	; 0x74
 8001524:	461d      	mov	r5, r3
 8001526:	f022 0201 	bic.w	r2, r2, #1
 800152a:	675a      	str	r2, [r3, #116]	; 0x74
 800152c:	f7ff fd18 	bl	8000f60 <HAL_GetTick>
 8001530:	4606      	mov	r6, r0
 8001532:	e004      	b.n	800153e <HAL_RCC_OscConfig+0x20e>
 8001534:	f7ff fd14 	bl	8000f60 <HAL_GetTick>
 8001538:	1b80      	subs	r0, r0, r6
 800153a:	2802      	cmp	r0, #2
 800153c:	d822      	bhi.n	8001584 <HAL_RCC_OscConfig+0x254>
 800153e:	6f6b      	ldr	r3, [r5, #116]	; 0x74
 8001540:	079f      	lsls	r7, r3, #30
 8001542:	d4f7      	bmi.n	8001534 <HAL_RCC_OscConfig+0x204>
 8001544:	e74f      	b.n	80013e6 <HAL_RCC_OscConfig+0xb6>
 8001546:	684a      	ldr	r2, [r1, #4]
 8001548:	0250      	lsls	r0, r2, #9
 800154a:	f57f af08 	bpl.w	800135e <HAL_RCC_OscConfig+0x2e>
 800154e:	4a29      	ldr	r2, [pc, #164]	; (80015f4 <HAL_RCC_OscConfig+0x2c4>)
 8001550:	6812      	ldr	r2, [r2, #0]
 8001552:	0391      	lsls	r1, r2, #14
 8001554:	f57f af2c 	bpl.w	80013b0 <HAL_RCC_OscConfig+0x80>
 8001558:	6862      	ldr	r2, [r4, #4]
 800155a:	2a00      	cmp	r2, #0
 800155c:	f47f af28 	bne.w	80013b0 <HAL_RCC_OscConfig+0x80>
 8001560:	e7da      	b.n	8001518 <HAL_RCC_OscConfig+0x1e8>
 8001562:	681a      	ldr	r2, [r3, #0]
 8001564:	461e      	mov	r6, r3
 8001566:	f442 7280 	orr.w	r2, r2, #256	; 0x100
 800156a:	601a      	str	r2, [r3, #0]
 800156c:	f7ff fcf8 	bl	8000f60 <HAL_GetTick>
 8001570:	4607      	mov	r7, r0
 8001572:	6833      	ldr	r3, [r6, #0]
 8001574:	05da      	lsls	r2, r3, #23
 8001576:	f53f af4d 	bmi.w	8001414 <HAL_RCC_OscConfig+0xe4>
 800157a:	f7ff fcf1 	bl	8000f60 <HAL_GetTick>
 800157e:	1bc0      	subs	r0, r0, r7
 8001580:	2864      	cmp	r0, #100	; 0x64
 8001582:	d9f6      	bls.n	8001572 <HAL_RCC_OscConfig+0x242>
 8001584:	2003      	movs	r0, #3
 8001586:	b002      	add	sp, #8
 8001588:	e8bd 81f0 	ldmia.w	sp!, {r4, r5, r6, r7, r8, pc}
 800158c:	4919      	ldr	r1, [pc, #100]	; (80015f4 <HAL_RCC_OscConfig+0x2c4>)
 800158e:	6920      	ldr	r0, [r4, #16]
 8001590:	680a      	ldr	r2, [r1, #0]
 8001592:	f022 02f8 	bic.w	r2, r2, #248	; 0xf8
 8001596:	ea42 02c0 	orr.w	r2, r2, r0, lsl #3
 800159a:	600a      	str	r2, [r1, #0]
 800159c:	e70a      	b.n	80013b4 <HAL_RCC_OscConfig+0x84>
 800159e:	2001      	movs	r0, #1
 80015a0:	4770      	bx	lr
 80015a2:	4b14      	ldr	r3, [pc, #80]	; (80015f4 <HAL_RCC_OscConfig+0x2c4>)
 80015a4:	681a      	ldr	r2, [r3, #0]
 80015a6:	461d      	mov	r5, r3
 80015a8:	f422 3280 	bic.w	r2, r2, #65536	; 0x10000
 80015ac:	601a      	str	r2, [r3, #0]
 80015ae:	681a      	ldr	r2, [r3, #0]
 80015b0:	f422 2280 	bic.w	r2, r2, #262144	; 0x40000
 80015b4:	601a      	str	r2, [r3, #0]
 80015b6:	f7ff fcd3 	bl	8000f60 <HAL_GetTick>
 80015ba:	4606      	mov	r6, r0
 80015bc:	e004      	b.n	80015c8 <HAL_RCC_OscConfig+0x298>
 80015be:	f7ff fccf 	bl	8000f60 <HAL_GetTick>
 80015c2:	1b80      	subs	r0, r0, r6
 80015c4:	2864      	cmp	r0, #100	; 0x64
 80015c6:	d8dd      	bhi.n	8001584 <HAL_RCC_OscConfig+0x254>
 80015c8:	682b      	ldr	r3, [r5, #0]
 80015ca:	039b      	lsls	r3, r3, #14
 80015cc:	d4f7      	bmi.n	80015be <HAL_RCC_OscConfig+0x28e>
 80015ce:	e6ee      	b.n	80013ae <HAL_RCC_OscConfig+0x7e>
 80015d0:	2500      	movs	r5, #0
 80015d2:	e71a      	b.n	800140a <HAL_RCC_OscConfig+0xda>
 80015d4:	4b07      	ldr	r3, [pc, #28]	; (80015f4 <HAL_RCC_OscConfig+0x2c4>)
 80015d6:	f241 3888 	movw	r8, #5000	; 0x1388
 80015da:	6f1a      	ldr	r2, [r3, #112]	; 0x70
 80015dc:	461e      	mov	r6, r3
 80015de:	f022 0201 	bic.w	r2, r2, #1
 80015e2:	671a      	str	r2, [r3, #112]	; 0x70
 80015e4:	6f1a      	ldr	r2, [r3, #112]	; 0x70
 80015e6:	f022 0204 	bic.w	r2, r2, #4
 80015ea:	671a      	str	r2, [r3, #112]	; 0x70
 80015ec:	f7ff fcb8 	bl	8000f60 <HAL_GetTick>
 80015f0:	4607      	mov	r7, r0
 80015f2:	e008      	b.n	8001606 <HAL_RCC_OscConfig+0x2d6>
 80015f4:	40023800 	.word	0x40023800
 80015f8:	40007000 	.word	0x40007000
 80015fc:	f7ff fcb0 	bl	8000f60 <HAL_GetTick>
 8001600:	1bc0      	subs	r0, r0, r7
 8001602:	4540      	cmp	r0, r8
 8001604:	d8be      	bhi.n	8001584 <HAL_RCC_OscConfig+0x254>
 8001606:	6f33      	ldr	r3, [r6, #112]	; 0x70
 8001608:	0798      	lsls	r0, r3, #30
 800160a:	d4f7      	bmi.n	80015fc <HAL_RCC_OscConfig+0x2cc>
 800160c:	2d00      	cmp	r5, #0
 800160e:	f43f af59 	beq.w	80014c4 <HAL_RCC_OscConfig+0x194>
 8001612:	e752      	b.n	80014ba <HAL_RCC_OscConfig+0x18a>
 8001614:	4b2b      	ldr	r3, [pc, #172]	; (80016c4 <HAL_RCC_OscConfig+0x394>)
 8001616:	681a      	ldr	r2, [r3, #0]
 8001618:	461d      	mov	r5, r3
 800161a:	f022 0201 	bic.w	r2, r2, #1
 800161e:	601a      	str	r2, [r3, #0]
 8001620:	f7ff fc9e 	bl	8000f60 <HAL_GetTick>
 8001624:	4606      	mov	r6, r0
 8001626:	e004      	b.n	8001632 <HAL_RCC_OscConfig+0x302>
 8001628:	f7ff fc9a 	bl	8000f60 <HAL_GetTick>
 800162c:	1b80      	subs	r0, r0, r6
 800162e:	2802      	cmp	r0, #2
 8001630:	d8a8      	bhi.n	8001584 <HAL_RCC_OscConfig+0x254>
 8001632:	682b      	ldr	r3, [r5, #0]
 8001634:	0799      	lsls	r1, r3, #30
 8001636:	d4f7      	bmi.n	8001628 <HAL_RCC_OscConfig+0x2f8>
 8001638:	6823      	ldr	r3, [r4, #0]
 800163a:	e6bb      	b.n	80013b4 <HAL_RCC_OscConfig+0x84>
 800163c:	f442 2280 	orr.w	r2, r2, #262144	; 0x40000
 8001640:	601a      	str	r2, [r3, #0]
 8001642:	681a      	ldr	r2, [r3, #0]
 8001644:	f442 3280 	orr.w	r2, r2, #65536	; 0x10000
 8001648:	601a      	str	r2, [r3, #0]
 800164a:	e6a2      	b.n	8001392 <HAL_RCC_OscConfig+0x62>
 800164c:	f042 0204 	orr.w	r2, r2, #4
 8001650:	671a      	str	r2, [r3, #112]	; 0x70
 8001652:	6f1a      	ldr	r2, [r3, #112]	; 0x70
 8001654:	f042 0201 	orr.w	r2, r2, #1
 8001658:	671a      	str	r2, [r3, #112]	; 0x70
 800165a:	e71d      	b.n	8001498 <HAL_RCC_OscConfig+0x168>
 800165c:	f023 7380 	bic.w	r3, r3, #16777216	; 0x1000000
 8001660:	4615      	mov	r5, r2
 8001662:	6013      	str	r3, [r2, #0]
 8001664:	f7ff fc7c 	bl	8000f60 <HAL_GetTick>
 8001668:	4606      	mov	r6, r0
 800166a:	e004      	b.n	8001676 <HAL_RCC_OscConfig+0x346>
 800166c:	f7ff fc78 	bl	8000f60 <HAL_GetTick>
 8001670:	1b80      	subs	r0, r0, r6
 8001672:	2802      	cmp	r0, #2
 8001674:	d886      	bhi.n	8001584 <HAL_RCC_OscConfig+0x254>
 8001676:	682b      	ldr	r3, [r5, #0]
 8001678:	0199      	lsls	r1, r3, #6
 800167a:	d4f7      	bmi.n	800166c <HAL_RCC_OscConfig+0x33c>
 800167c:	e9d4 3207 	ldrd	r3, r2, [r4, #28]
 8001680:	6a60      	ldr	r0, [r4, #36]	; 0x24
 8001682:	4313      	orrs	r3, r2
 8001684:	e9d4 210a 	ldrd	r2, r1, [r4, #40]	; 0x28
 8001688:	f043 5300 	orr.w	r3, r3, #536870912	; 0x20000000
 800168c:	4c0d      	ldr	r4, [pc, #52]	; (80016c4 <HAL_RCC_OscConfig+0x394>)
 800168e:	0852      	lsrs	r2, r2, #1
 8001690:	ea43 1380 	orr.w	r3, r3, r0, lsl #6
 8001694:	3a01      	subs	r2, #1
 8001696:	ea43 6301 	orr.w	r3, r3, r1, lsl #24
 800169a:	ea43 4302 	orr.w	r3, r3, r2, lsl #16
 800169e:	606b      	str	r3, [r5, #4]
 80016a0:	682b      	ldr	r3, [r5, #0]
 80016a2:	f043 7380 	orr.w	r3, r3, #16777216	; 0x1000000
 80016a6:	602b      	str	r3, [r5, #0]
 80016a8:	f7ff fc5a 	bl	8000f60 <HAL_GetTick>
 80016ac:	4605      	mov	r5, r0
 80016ae:	e005      	b.n	80016bc <HAL_RCC_OscConfig+0x38c>
 80016b0:	f7ff fc56 	bl	8000f60 <HAL_GetTick>
 80016b4:	1b40      	subs	r0, r0, r5
 80016b6:	2802      	cmp	r0, #2
 80016b8:	f63f af64 	bhi.w	8001584 <HAL_RCC_OscConfig+0x254>
 80016bc:	6823      	ldr	r3, [r4, #0]
 80016be:	019a      	lsls	r2, r3, #6
 80016c0:	d5f6      	bpl.n	80016b0 <HAL_RCC_OscConfig+0x380>
 80016c2:	e71b      	b.n	80014fc <HAL_RCC_OscConfig+0x1cc>
 80016c4:	40023800 	.word	0x40023800

080016c8 <HAL_RCC_ClockConfig>:
 80016c8:	b178      	cbz	r0, 80016ea <HAL_RCC_ClockConfig+0x22>
 80016ca:	4a5e      	ldr	r2, [pc, #376]	; (8001844 <HAL_RCC_ClockConfig+0x17c>)
 80016cc:	6813      	ldr	r3, [r2, #0]
 80016ce:	f003 030f 	and.w	r3, r3, #15
 80016d2:	428b      	cmp	r3, r1
 80016d4:	d20b      	bcs.n	80016ee <HAL_RCC_ClockConfig+0x26>
 80016d6:	6813      	ldr	r3, [r2, #0]
 80016d8:	f023 030f 	bic.w	r3, r3, #15
 80016dc:	430b      	orrs	r3, r1
 80016de:	6013      	str	r3, [r2, #0]
 80016e0:	6813      	ldr	r3, [r2, #0]
 80016e2:	f003 030f 	and.w	r3, r3, #15
 80016e6:	428b      	cmp	r3, r1
 80016e8:	d001      	beq.n	80016ee <HAL_RCC_ClockConfig+0x26>
 80016ea:	2001      	movs	r0, #1
 80016ec:	4770      	bx	lr
 80016ee:	6803      	ldr	r3, [r0, #0]
 80016f0:	e92d 41f0 	stmdb	sp!, {r4, r5, r6, r7, r8, lr}
 80016f4:	079d      	lsls	r5, r3, #30
 80016f6:	d514      	bpl.n	8001722 <HAL_RCC_ClockConfig+0x5a>
 80016f8:	075c      	lsls	r4, r3, #29
 80016fa:	d504      	bpl.n	8001706 <HAL_RCC_ClockConfig+0x3e>
 80016fc:	4c52      	ldr	r4, [pc, #328]	; (8001848 <HAL_RCC_ClockConfig+0x180>)
 80016fe:	68a2      	ldr	r2, [r4, #8]
 8001700:	f442 52e0 	orr.w	r2, r2, #7168	; 0x1c00
 8001704:	60a2      	str	r2, [r4, #8]
 8001706:	071a      	lsls	r2, r3, #28
 8001708:	d504      	bpl.n	8001714 <HAL_RCC_ClockConfig+0x4c>
 800170a:	4c4f      	ldr	r4, [pc, #316]	; (8001848 <HAL_RCC_ClockConfig+0x180>)
 800170c:	68a2      	ldr	r2, [r4, #8]
 800170e:	f442 4260 	orr.w	r2, r2, #57344	; 0xe000
 8001712:	60a2      	str	r2, [r4, #8]
 8001714:	4c4c      	ldr	r4, [pc, #304]	; (8001848 <HAL_RCC_ClockConfig+0x180>)
 8001716:	6885      	ldr	r5, [r0, #8]
 8001718:	68a2      	ldr	r2, [r4, #8]
 800171a:	f022 02f0 	bic.w	r2, r2, #240	; 0xf0
 800171e:	432a      	orrs	r2, r5
 8001720:	60a2      	str	r2, [r4, #8]
 8001722:	07df      	lsls	r7, r3, #31
 8001724:	4604      	mov	r4, r0
 8001726:	460d      	mov	r5, r1
 8001728:	d521      	bpl.n	800176e <HAL_RCC_ClockConfig+0xa6>
 800172a:	6842      	ldr	r2, [r0, #4]
 800172c:	4b46      	ldr	r3, [pc, #280]	; (8001848 <HAL_RCC_ClockConfig+0x180>)
 800172e:	2a01      	cmp	r2, #1
 8001730:	681b      	ldr	r3, [r3, #0]
 8001732:	d063      	beq.n	80017fc <HAL_RCC_ClockConfig+0x134>
 8001734:	2a02      	cmp	r2, #2
 8001736:	d078      	beq.n	800182a <HAL_RCC_ClockConfig+0x162>
 8001738:	0799      	lsls	r1, r3, #30
 800173a:	d528      	bpl.n	800178e <HAL_RCC_ClockConfig+0xc6>
 800173c:	4942      	ldr	r1, [pc, #264]	; (8001848 <HAL_RCC_ClockConfig+0x180>)
 800173e:	f241 3888 	movw	r8, #5000	; 0x1388
 8001742:	688b      	ldr	r3, [r1, #8]
 8001744:	460e      	mov	r6, r1
 8001746:	f023 0303 	bic.w	r3, r3, #3
 800174a:	4313      	orrs	r3, r2
 800174c:	608b      	str	r3, [r1, #8]
 800174e:	f7ff fc07 	bl	8000f60 <HAL_GetTick>
 8001752:	4607      	mov	r7, r0
 8001754:	e004      	b.n	8001760 <HAL_RCC_ClockConfig+0x98>
 8001756:	f7ff fc03 	bl	8000f60 <HAL_GetTick>
 800175a:	1bc0      	subs	r0, r0, r7
 800175c:	4540      	cmp	r0, r8
 800175e:	d862      	bhi.n	8001826 <HAL_RCC_ClockConfig+0x15e>
 8001760:	68b3      	ldr	r3, [r6, #8]
 8001762:	6862      	ldr	r2, [r4, #4]
 8001764:	f003 030c 	and.w	r3, r3, #12
 8001768:	ebb3 0f82 	cmp.w	r3, r2, lsl #2
 800176c:	d1f3      	bne.n	8001756 <HAL_RCC_ClockConfig+0x8e>
 800176e:	4a35      	ldr	r2, [pc, #212]	; (8001844 <HAL_RCC_ClockConfig+0x17c>)
 8001770:	6813      	ldr	r3, [r2, #0]
 8001772:	f003 030f 	and.w	r3, r3, #15
 8001776:	42ab      	cmp	r3, r5
 8001778:	d90c      	bls.n	8001794 <HAL_RCC_ClockConfig+0xcc>
 800177a:	6813      	ldr	r3, [r2, #0]
 800177c:	f023 030f 	bic.w	r3, r3, #15
 8001780:	432b      	orrs	r3, r5
 8001782:	6013      	str	r3, [r2, #0]
 8001784:	6813      	ldr	r3, [r2, #0]
 8001786:	f003 030f 	and.w	r3, r3, #15
 800178a:	42ab      	cmp	r3, r5
 800178c:	d002      	beq.n	8001794 <HAL_RCC_ClockConfig+0xcc>
 800178e:	2001      	movs	r0, #1
 8001790:	e8bd 81f0 	ldmia.w	sp!, {r4, r5, r6, r7, r8, pc}
 8001794:	6823      	ldr	r3, [r4, #0]
 8001796:	075a      	lsls	r2, r3, #29
 8001798:	d506      	bpl.n	80017a8 <HAL_RCC_ClockConfig+0xe0>
 800179a:	492b      	ldr	r1, [pc, #172]	; (8001848 <HAL_RCC_ClockConfig+0x180>)
 800179c:	68e0      	ldr	r0, [r4, #12]
 800179e:	688a      	ldr	r2, [r1, #8]
 80017a0:	f422 52e0 	bic.w	r2, r2, #7168	; 0x1c00
 80017a4:	4302      	orrs	r2, r0
 80017a6:	608a      	str	r2, [r1, #8]
 80017a8:	071b      	lsls	r3, r3, #28
 80017aa:	d507      	bpl.n	80017bc <HAL_RCC_ClockConfig+0xf4>
 80017ac:	4a26      	ldr	r2, [pc, #152]	; (8001848 <HAL_RCC_ClockConfig+0x180>)
 80017ae:	6921      	ldr	r1, [r4, #16]
 80017b0:	6893      	ldr	r3, [r2, #8]
 80017b2:	f423 4360 	bic.w	r3, r3, #57344	; 0xe000
 80017b6:	ea43 03c1 	orr.w	r3, r3, r1, lsl #3
 80017ba:	6093      	str	r3, [r2, #8]
 80017bc:	4922      	ldr	r1, [pc, #136]	; (8001848 <HAL_RCC_ClockConfig+0x180>)
 80017be:	688b      	ldr	r3, [r1, #8]
 80017c0:	f003 030c 	and.w	r3, r3, #12
 80017c4:	2b04      	cmp	r3, #4
 80017c6:	d01c      	beq.n	8001802 <HAL_RCC_ClockConfig+0x13a>
 80017c8:	2b08      	cmp	r3, #8
 80017ca:	d12a      	bne.n	8001822 <HAL_RCC_ClockConfig+0x15a>
 80017cc:	684a      	ldr	r2, [r1, #4]
 80017ce:	684b      	ldr	r3, [r1, #4]
 80017d0:	f002 023f 	and.w	r2, r2, #63	; 0x3f
 80017d4:	6849      	ldr	r1, [r1, #4]
 80017d6:	f413 0380 	ands.w	r3, r3, #4194304	; 0x400000
 80017da:	d129      	bne.n	8001830 <HAL_RCC_ClockConfig+0x168>
 80017dc:	481b      	ldr	r0, [pc, #108]	; (800184c <HAL_RCC_ClockConfig+0x184>)
 80017de:	f3c1 1188 	ubfx	r1, r1, #6, #9
 80017e2:	fba1 0100 	umull	r0, r1, r1, r0
 80017e6:	f7ff f9ff 	bl	8000be8 <__aeabi_uldivmod>
 80017ea:	4b17      	ldr	r3, [pc, #92]	; (8001848 <HAL_RCC_ClockConfig+0x180>)
 80017ec:	685b      	ldr	r3, [r3, #4]
 80017ee:	f3c3 4301 	ubfx	r3, r3, #16, #2
 80017f2:	3301      	adds	r3, #1
 80017f4:	005b      	lsls	r3, r3, #1
 80017f6:	fbb0 f3f3 	udiv	r3, r0, r3
 80017fa:	e003      	b.n	8001804 <HAL_RCC_ClockConfig+0x13c>
 80017fc:	039e      	lsls	r6, r3, #14
 80017fe:	d49d      	bmi.n	800173c <HAL_RCC_ClockConfig+0x74>
 8001800:	e7c5      	b.n	800178e <HAL_RCC_ClockConfig+0xc6>
 8001802:	4b13      	ldr	r3, [pc, #76]	; (8001850 <HAL_RCC_ClockConfig+0x188>)
 8001804:	4a10      	ldr	r2, [pc, #64]	; (8001848 <HAL_RCC_ClockConfig+0x180>)
 8001806:	2000      	movs	r0, #0
 8001808:	4c12      	ldr	r4, [pc, #72]	; (8001854 <HAL_RCC_ClockConfig+0x18c>)
 800180a:	6892      	ldr	r2, [r2, #8]
 800180c:	4912      	ldr	r1, [pc, #72]	; (8001858 <HAL_RCC_ClockConfig+0x190>)
 800180e:	f3c2 1203 	ubfx	r2, r2, #4, #4
 8001812:	5ca2      	ldrb	r2, [r4, r2]
 8001814:	40d3      	lsrs	r3, r2
 8001816:	600b      	str	r3, [r1, #0]
 8001818:	f7ff fb66 	bl	8000ee8 <HAL_InitTick>
 800181c:	2000      	movs	r0, #0
 800181e:	e8bd 81f0 	ldmia.w	sp!, {r4, r5, r6, r7, r8, pc}
 8001822:	4b0a      	ldr	r3, [pc, #40]	; (800184c <HAL_RCC_ClockConfig+0x184>)
 8001824:	e7ee      	b.n	8001804 <HAL_RCC_ClockConfig+0x13c>
 8001826:	2003      	movs	r0, #3
 8001828:	e7b2      	b.n	8001790 <HAL_RCC_ClockConfig+0xc8>
 800182a:	0198      	lsls	r0, r3, #6
 800182c:	d486      	bmi.n	800173c <HAL_RCC_ClockConfig+0x74>
 800182e:	e7ae      	b.n	800178e <HAL_RCC_ClockConfig+0xc6>
 8001830:	4807      	ldr	r0, [pc, #28]	; (8001850 <HAL_RCC_ClockConfig+0x188>)
 8001832:	f3c1 1188 	ubfx	r1, r1, #6, #9
 8001836:	2300      	movs	r3, #0
 8001838:	fba1 0100 	umull	r0, r1, r1, r0
 800183c:	f7ff f9d4 	bl	8000be8 <__aeabi_uldivmod>
 8001840:	e7d3      	b.n	80017ea <HAL_RCC_ClockConfig+0x122>
 8001842:	bf00      	nop
 8001844:	40023c00 	.word	0x40023c00
 8001848:	40023800 	.word	0x40023800
 800184c:	00f42400 	.word	0x00f42400
 8001850:	017d7840 	.word	0x017d7840
 8001854:	0800775c 	.word	0x0800775c
 8001858:	20000510 	.word	0x20000510

0800185c <HAL_RCC_GetSysClockFreq>:
 800185c:	4916      	ldr	r1, [pc, #88]	; (80018b8 <HAL_RCC_GetSysClockFreq+0x5c>)
 800185e:	b508      	push	{r3, lr}
 8001860:	688b      	ldr	r3, [r1, #8]
 8001862:	f003 030c 	and.w	r3, r3, #12
 8001866:	2b04      	cmp	r3, #4
 8001868:	d01b      	beq.n	80018a2 <HAL_RCC_GetSysClockFreq+0x46>
 800186a:	2b08      	cmp	r3, #8
 800186c:	d117      	bne.n	800189e <HAL_RCC_GetSysClockFreq+0x42>
 800186e:	684a      	ldr	r2, [r1, #4]
 8001870:	684b      	ldr	r3, [r1, #4]
 8001872:	f002 023f 	and.w	r2, r2, #63	; 0x3f
 8001876:	6849      	ldr	r1, [r1, #4]
 8001878:	f413 0380 	ands.w	r3, r3, #4194304	; 0x400000
 800187c:	d113      	bne.n	80018a6 <HAL_RCC_GetSysClockFreq+0x4a>
 800187e:	480f      	ldr	r0, [pc, #60]	; (80018bc <HAL_RCC_GetSysClockFreq+0x60>)
 8001880:	f3c1 1188 	ubfx	r1, r1, #6, #9
 8001884:	fba1 0100 	umull	r0, r1, r1, r0
 8001888:	f7ff f9ae 	bl	8000be8 <__aeabi_uldivmod>
 800188c:	4b0a      	ldr	r3, [pc, #40]	; (80018b8 <HAL_RCC_GetSysClockFreq+0x5c>)
 800188e:	685b      	ldr	r3, [r3, #4]
 8001890:	f3c3 4301 	ubfx	r3, r3, #16, #2
 8001894:	3301      	adds	r3, #1
 8001896:	005b      	lsls	r3, r3, #1
 8001898:	fbb0 f0f3 	udiv	r0, r0, r3
 800189c:	bd08      	pop	{r3, pc}
 800189e:	4807      	ldr	r0, [pc, #28]	; (80018bc <HAL_RCC_GetSysClockFreq+0x60>)
 80018a0:	bd08      	pop	{r3, pc}
 80018a2:	4807      	ldr	r0, [pc, #28]	; (80018c0 <HAL_RCC_GetSysClockFreq+0x64>)
 80018a4:	bd08      	pop	{r3, pc}
 80018a6:	4806      	ldr	r0, [pc, #24]	; (80018c0 <HAL_RCC_GetSysClockFreq+0x64>)
 80018a8:	f3c1 1188 	ubfx	r1, r1, #6, #9
 80018ac:	2300      	movs	r3, #0
 80018ae:	fba1 0100 	umull	r0, r1, r1, r0
 80018b2:	f7ff f999 	bl	8000be8 <__aeabi_uldivmod>
 80018b6:	e7e9      	b.n	800188c <HAL_RCC_GetSysClockFreq+0x30>
 80018b8:	40023800 	.word	0x40023800
 80018bc:	00f42400 	.word	0x00f42400
 80018c0:	017d7840 	.word	0x017d7840

080018c4 <HAL_RCC_GetPCLK1Freq>:
 80018c4:	4b04      	ldr	r3, [pc, #16]	; (80018d8 <HAL_RCC_GetPCLK1Freq+0x14>)
 80018c6:	4a05      	ldr	r2, [pc, #20]	; (80018dc <HAL_RCC_GetPCLK1Freq+0x18>)
 80018c8:	689b      	ldr	r3, [r3, #8]
 80018ca:	4905      	ldr	r1, [pc, #20]	; (80018e0 <HAL_RCC_GetPCLK1Freq+0x1c>)
 80018cc:	f3c3 2382 	ubfx	r3, r3, #10, #3
 80018d0:	6808      	ldr	r0, [r1, #0]
 80018d2:	5cd3      	ldrb	r3, [r2, r3]
 80018d4:	40d8      	lsrs	r0, r3
 80018d6:	4770      	bx	lr
 80018d8:	40023800 	.word	0x40023800
 80018dc:	0800776c 	.word	0x0800776c
 80018e0:	20000510 	.word	0x20000510

080018e4 <HAL_RCC_GetPCLK2Freq>:
 80018e4:	4b04      	ldr	r3, [pc, #16]	; (80018f8 <HAL_RCC_GetPCLK2Freq+0x14>)
 80018e6:	4a05      	ldr	r2, [pc, #20]	; (80018fc <HAL_RCC_GetPCLK2Freq+0x18>)
 80018e8:	689b      	ldr	r3, [r3, #8]
 80018ea:	4905      	ldr	r1, [pc, #20]	; (8001900 <HAL_RCC_GetPCLK2Freq+0x1c>)
 80018ec:	f3c3 3342 	ubfx	r3, r3, #13, #3
 80018f0:	6808      	ldr	r0, [r1, #0]
 80018f2:	5cd3      	ldrb	r3, [r2, r3]
 80018f4:	40d8      	lsrs	r0, r3
 80018f6:	4770      	bx	lr
 80018f8:	40023800 	.word	0x40023800
 80018fc:	0800776c 	.word	0x0800776c
 8001900:	20000510 	.word	0x20000510

08001904 <HAL_RCCEx_PeriphCLKConfig>:
 8001904:	6803      	ldr	r3, [r0, #0]
 8001906:	e92d 43f0 	stmdb	sp!, {r4, r5, r6, r7, r8, r9, lr}
 800190a:	f013 0601 	ands.w	r6, r3, #1
 800190e:	b083      	sub	sp, #12
 8001910:	4604      	mov	r4, r0
 8001912:	d00b      	beq.n	800192c <HAL_RCCEx_PeriphCLKConfig+0x28>
 8001914:	4ab8      	ldr	r2, [pc, #736]	; (8001bf8 <HAL_RCCEx_PeriphCLKConfig+0x2f4>)
 8001916:	6891      	ldr	r1, [r2, #8]
 8001918:	f421 0100 	bic.w	r1, r1, #8388608	; 0x800000
 800191c:	6091      	str	r1, [r2, #8]
 800191e:	6b46      	ldr	r6, [r0, #52]	; 0x34
 8001920:	6891      	ldr	r1, [r2, #8]
 8001922:	4331      	orrs	r1, r6
 8001924:	fab6 f686 	clz	r6, r6
 8001928:	0976      	lsrs	r6, r6, #5
 800192a:	6091      	str	r1, [r2, #8]
 800192c:	f413 2500 	ands.w	r5, r3, #524288	; 0x80000
 8001930:	d010      	beq.n	8001954 <HAL_RCCEx_PeriphCLKConfig+0x50>
 8001932:	49b1      	ldr	r1, [pc, #708]	; (8001bf8 <HAL_RCCEx_PeriphCLKConfig+0x2f4>)
 8001934:	6be5      	ldr	r5, [r4, #60]	; 0x3c
 8001936:	f8d1 208c 	ldr.w	r2, [r1, #140]	; 0x8c
 800193a:	f5b5 1f80 	cmp.w	r5, #1048576	; 0x100000
 800193e:	f422 1240 	bic.w	r2, r2, #3145728	; 0x300000
 8001942:	ea42 0205 	orr.w	r2, r2, r5
 8001946:	f8c1 208c 	str.w	r2, [r1, #140]	; 0x8c
 800194a:	f000 81b0 	beq.w	8001cae <HAL_RCCEx_PeriphCLKConfig+0x3aa>
 800194e:	fab5 f585 	clz	r5, r5
 8001952:	096d      	lsrs	r5, r5, #5
 8001954:	02d9      	lsls	r1, r3, #11
 8001956:	d510      	bpl.n	800197a <HAL_RCCEx_PeriphCLKConfig+0x76>
 8001958:	48a7      	ldr	r0, [pc, #668]	; (8001bf8 <HAL_RCCEx_PeriphCLKConfig+0x2f4>)
 800195a:	6c21      	ldr	r1, [r4, #64]	; 0x40
 800195c:	f8d0 208c 	ldr.w	r2, [r0, #140]	; 0x8c
 8001960:	f5b1 0f80 	cmp.w	r1, #4194304	; 0x400000
 8001964:	f422 0240 	bic.w	r2, r2, #12582912	; 0xc00000
 8001968:	ea42 0201 	orr.w	r2, r2, r1
 800196c:	f8c0 208c 	str.w	r2, [r0, #140]	; 0x8c
 8001970:	f000 819b 	beq.w	8001caa <HAL_RCCEx_PeriphCLKConfig+0x3a6>
 8001974:	2900      	cmp	r1, #0
 8001976:	bf08      	it	eq
 8001978:	2501      	moveq	r5, #1
 800197a:	f013 7f80 	tst.w	r3, #16777216	; 0x1000000
 800197e:	bf18      	it	ne
 8001980:	2601      	movne	r6, #1
 8001982:	069a      	lsls	r2, r3, #26
 8001984:	f100 8149 	bmi.w	8001c1a <HAL_RCCEx_PeriphCLKConfig+0x316>
 8001988:	06d9      	lsls	r1, r3, #27
 800198a:	d50c      	bpl.n	80019a6 <HAL_RCCEx_PeriphCLKConfig+0xa2>
 800198c:	4a9a      	ldr	r2, [pc, #616]	; (8001bf8 <HAL_RCCEx_PeriphCLKConfig+0x2f4>)
 800198e:	f8d2 108c 	ldr.w	r1, [r2, #140]	; 0x8c
 8001992:	f021 7180 	bic.w	r1, r1, #16777216	; 0x1000000
 8001996:	f8c2 108c 	str.w	r1, [r2, #140]	; 0x8c
 800199a:	f8d2 108c 	ldr.w	r1, [r2, #140]	; 0x8c
 800199e:	6ba0      	ldr	r0, [r4, #56]	; 0x38
 80019a0:	4301      	orrs	r1, r0
 80019a2:	f8c2 108c 	str.w	r1, [r2, #140]	; 0x8c
 80019a6:	045a      	lsls	r2, r3, #17
 80019a8:	d508      	bpl.n	80019bc <HAL_RCCEx_PeriphCLKConfig+0xb8>
 80019aa:	4993      	ldr	r1, [pc, #588]	; (8001bf8 <HAL_RCCEx_PeriphCLKConfig+0x2f4>)
 80019ac:	6e60      	ldr	r0, [r4, #100]	; 0x64
 80019ae:	f8d1 2090 	ldr.w	r2, [r1, #144]	; 0x90
 80019b2:	f422 3240 	bic.w	r2, r2, #196608	; 0x30000
 80019b6:	4302      	orrs	r2, r0
 80019b8:	f8c1 2090 	str.w	r2, [r1, #144]	; 0x90
 80019bc:	041f      	lsls	r7, r3, #16
 80019be:	d508      	bpl.n	80019d2 <HAL_RCCEx_PeriphCLKConfig+0xce>
 80019c0:	498d      	ldr	r1, [pc, #564]	; (8001bf8 <HAL_RCCEx_PeriphCLKConfig+0x2f4>)
 80019c2:	6ea0      	ldr	r0, [r4, #104]	; 0x68
 80019c4:	f8d1 2090 	ldr.w	r2, [r1, #144]	; 0x90
 80019c8:	f422 2240 	bic.w	r2, r2, #786432	; 0xc0000
 80019cc:	4302      	orrs	r2, r0
 80019ce:	f8c1 2090 	str.w	r2, [r1, #144]	; 0x90
 80019d2:	03d8      	lsls	r0, r3, #15
 80019d4:	d508      	bpl.n	80019e8 <HAL_RCCEx_PeriphCLKConfig+0xe4>
 80019d6:	4988      	ldr	r1, [pc, #544]	; (8001bf8 <HAL_RCCEx_PeriphCLKConfig+0x2f4>)
 80019d8:	6ee0      	ldr	r0, [r4, #108]	; 0x6c
 80019da:	f8d1 2090 	ldr.w	r2, [r1, #144]	; 0x90
 80019de:	f422 1240 	bic.w	r2, r2, #3145728	; 0x300000
 80019e2:	4302      	orrs	r2, r0
 80019e4:	f8c1 2090 	str.w	r2, [r1, #144]	; 0x90
 80019e8:	0399      	lsls	r1, r3, #14
 80019ea:	d508      	bpl.n	80019fe <HAL_RCCEx_PeriphCLKConfig+0xfa>
 80019ec:	4982      	ldr	r1, [pc, #520]	; (8001bf8 <HAL_RCCEx_PeriphCLKConfig+0x2f4>)
 80019ee:	6f20      	ldr	r0, [r4, #112]	; 0x70
 80019f0:	f8d1 2090 	ldr.w	r2, [r1, #144]	; 0x90
 80019f4:	f422 0240 	bic.w	r2, r2, #12582912	; 0xc00000
 80019f8:	4302      	orrs	r2, r0
 80019fa:	f8c1 2090 	str.w	r2, [r1, #144]	; 0x90
 80019fe:	065a      	lsls	r2, r3, #25
 8001a00:	d508      	bpl.n	8001a14 <HAL_RCCEx_PeriphCLKConfig+0x110>
 8001a02:	497d      	ldr	r1, [pc, #500]	; (8001bf8 <HAL_RCCEx_PeriphCLKConfig+0x2f4>)
 8001a04:	6c60      	ldr	r0, [r4, #68]	; 0x44
 8001a06:	f8d1 2090 	ldr.w	r2, [r1, #144]	; 0x90
 8001a0a:	f022 0203 	bic.w	r2, r2, #3
 8001a0e:	4302      	orrs	r2, r0
 8001a10:	f8c1 2090 	str.w	r2, [r1, #144]	; 0x90
 8001a14:	061f      	lsls	r7, r3, #24
 8001a16:	d508      	bpl.n	8001a2a <HAL_RCCEx_PeriphCLKConfig+0x126>
 8001a18:	4977      	ldr	r1, [pc, #476]	; (8001bf8 <HAL_RCCEx_PeriphCLKConfig+0x2f4>)
 8001a1a:	6ca0      	ldr	r0, [r4, #72]	; 0x48
 8001a1c:	f8d1 2090 	ldr.w	r2, [r1, #144]	; 0x90
 8001a20:	f022 020c 	bic.w	r2, r2, #12
 8001a24:	4302      	orrs	r2, r0
 8001a26:	f8c1 2090 	str.w	r2, [r1, #144]	; 0x90
 8001a2a:	05d8      	lsls	r0, r3, #23
 8001a2c:	d508      	bpl.n	8001a40 <HAL_RCCEx_PeriphCLKConfig+0x13c>
 8001a2e:	4972      	ldr	r1, [pc, #456]	; (8001bf8 <HAL_RCCEx_PeriphCLKConfig+0x2f4>)
 8001a30:	6ce0      	ldr	r0, [r4, #76]	; 0x4c
 8001a32:	f8d1 2090 	ldr.w	r2, [r1, #144]	; 0x90
 8001a36:	f022 0230 	bic.w	r2, r2, #48	; 0x30
 8001a3a:	4302      	orrs	r2, r0
 8001a3c:	f8c1 2090 	str.w	r2, [r1, #144]	; 0x90
 8001a40:	0599      	lsls	r1, r3, #22
 8001a42:	d508      	bpl.n	8001a56 <HAL_RCCEx_PeriphCLKConfig+0x152>
 8001a44:	496c      	ldr	r1, [pc, #432]	; (8001bf8 <HAL_RCCEx_PeriphCLKConfig+0x2f4>)
 8001a46:	6d20      	ldr	r0, [r4, #80]	; 0x50
 8001a48:	f8d1 2090 	ldr.w	r2, [r1, #144]	; 0x90
 8001a4c:	f022 02c0 	bic.w	r2, r2, #192	; 0xc0
 8001a50:	4302      	orrs	r2, r0
 8001a52:	f8c1 2090 	str.w	r2, [r1, #144]	; 0x90
 8001a56:	055a      	lsls	r2, r3, #21
 8001a58:	d508      	bpl.n	8001a6c <HAL_RCCEx_PeriphCLKConfig+0x168>
 8001a5a:	4967      	ldr	r1, [pc, #412]	; (8001bf8 <HAL_RCCEx_PeriphCLKConfig+0x2f4>)
 8001a5c:	6d60      	ldr	r0, [r4, #84]	; 0x54
 8001a5e:	f8d1 2090 	ldr.w	r2, [r1, #144]	; 0x90
 8001a62:	f422 7240 	bic.w	r2, r2, #768	; 0x300
 8001a66:	4302      	orrs	r2, r0
 8001a68:	f8c1 2090 	str.w	r2, [r1, #144]	; 0x90
 8001a6c:	051f      	lsls	r7, r3, #20
 8001a6e:	d508      	bpl.n	8001a82 <HAL_RCCEx_PeriphCLKConfig+0x17e>
 8001a70:	4961      	ldr	r1, [pc, #388]	; (8001bf8 <HAL_RCCEx_PeriphCLKConfig+0x2f4>)
 8001a72:	6da0      	ldr	r0, [r4, #88]	; 0x58
 8001a74:	f8d1 2090 	ldr.w	r2, [r1, #144]	; 0x90
 8001a78:	f422 6240 	bic.w	r2, r2, #3072	; 0xc00
 8001a7c:	4302      	orrs	r2, r0
 8001a7e:	f8c1 2090 	str.w	r2, [r1, #144]	; 0x90
 8001a82:	04d8      	lsls	r0, r3, #19
 8001a84:	d508      	bpl.n	8001a98 <HAL_RCCEx_PeriphCLKConfig+0x194>
 8001a86:	495c      	ldr	r1, [pc, #368]	; (8001bf8 <HAL_RCCEx_PeriphCLKConfig+0x2f4>)
 8001a88:	6de0      	ldr	r0, [r4, #92]	; 0x5c
 8001a8a:	f8d1 2090 	ldr.w	r2, [r1, #144]	; 0x90
 8001a8e:	f422 5240 	bic.w	r2, r2, #12288	; 0x3000
 8001a92:	4302      	orrs	r2, r0
 8001a94:	f8c1 2090 	str.w	r2, [r1, #144]	; 0x90
 8001a98:	0499      	lsls	r1, r3, #18
 8001a9a:	d508      	bpl.n	8001aae <HAL_RCCEx_PeriphCLKConfig+0x1aa>
 8001a9c:	4956      	ldr	r1, [pc, #344]	; (8001bf8 <HAL_RCCEx_PeriphCLKConfig+0x2f4>)
 8001a9e:	6e20      	ldr	r0, [r4, #96]	; 0x60
 8001aa0:	f8d1 2090 	ldr.w	r2, [r1, #144]	; 0x90
 8001aa4:	f422 4240 	bic.w	r2, r2, #49152	; 0xc000
 8001aa8:	4302      	orrs	r2, r0
 8001aaa:	f8c1 2090 	str.w	r2, [r1, #144]	; 0x90
 8001aae:	025a      	lsls	r2, r3, #9
 8001ab0:	d508      	bpl.n	8001ac4 <HAL_RCCEx_PeriphCLKConfig+0x1c0>
 8001ab2:	4951      	ldr	r1, [pc, #324]	; (8001bf8 <HAL_RCCEx_PeriphCLKConfig+0x2f4>)
 8001ab4:	6fa0      	ldr	r0, [r4, #120]	; 0x78
 8001ab6:	f8d1 2090 	ldr.w	r2, [r1, #144]	; 0x90
 8001aba:	f022 6280 	bic.w	r2, r2, #67108864	; 0x4000000
 8001abe:	4302      	orrs	r2, r0
 8001ac0:	f8c1 2090 	str.w	r2, [r1, #144]	; 0x90
 8001ac4:	029f      	lsls	r7, r3, #10
 8001ac6:	d50c      	bpl.n	8001ae2 <HAL_RCCEx_PeriphCLKConfig+0x1de>
 8001ac8:	494b      	ldr	r1, [pc, #300]	; (8001bf8 <HAL_RCCEx_PeriphCLKConfig+0x2f4>)
 8001aca:	6fe0      	ldr	r0, [r4, #124]	; 0x7c
 8001acc:	f8d1 2090 	ldr.w	r2, [r1, #144]	; 0x90
 8001ad0:	f1b0 6f00 	cmp.w	r0, #134217728	; 0x8000000
 8001ad4:	f022 6200 	bic.w	r2, r2, #134217728	; 0x8000000
 8001ad8:	bf08      	it	eq
 8001ada:	2501      	moveq	r5, #1
 8001adc:	4302      	orrs	r2, r0
 8001ade:	f8c1 2090 	str.w	r2, [r1, #144]	; 0x90
 8001ae2:	f013 0f08 	tst.w	r3, #8
 8001ae6:	bf18      	it	ne
 8001ae8:	2501      	movne	r5, #1
 8001aea:	0358      	lsls	r0, r3, #13
 8001aec:	d508      	bpl.n	8001b00 <HAL_RCCEx_PeriphCLKConfig+0x1fc>
 8001aee:	4942      	ldr	r1, [pc, #264]	; (8001bf8 <HAL_RCCEx_PeriphCLKConfig+0x2f4>)
 8001af0:	6f60      	ldr	r0, [r4, #116]	; 0x74
 8001af2:	f8d1 2090 	ldr.w	r2, [r1, #144]	; 0x90
 8001af6:	f022 7240 	bic.w	r2, r2, #50331648	; 0x3000000
 8001afa:	4302      	orrs	r2, r0
 8001afc:	f8c1 2090 	str.w	r2, [r1, #144]	; 0x90
 8001b00:	0219      	lsls	r1, r3, #8
 8001b02:	d40b      	bmi.n	8001b1c <HAL_RCCEx_PeriphCLKConfig+0x218>
 8001b04:	f1b3 7f00 	cmp.w	r3, #33554432	; 0x2000000
 8001b08:	d016      	beq.n	8001b38 <HAL_RCCEx_PeriphCLKConfig+0x234>
 8001b0a:	07f2      	lsls	r2, r6, #31
 8001b0c:	d414      	bmi.n	8001b38 <HAL_RCCEx_PeriphCLKConfig+0x234>
 8001b0e:	2d01      	cmp	r5, #1
 8001b10:	f000 80d0 	beq.w	8001cb4 <HAL_RCCEx_PeriphCLKConfig+0x3b0>
 8001b14:	2000      	movs	r0, #0
 8001b16:	b003      	add	sp, #12
 8001b18:	e8bd 83f0 	ldmia.w	sp!, {r4, r5, r6, r7, r8, r9, pc}
 8001b1c:	4936      	ldr	r1, [pc, #216]	; (8001bf8 <HAL_RCCEx_PeriphCLKConfig+0x2f4>)
 8001b1e:	f1b3 7f00 	cmp.w	r3, #33554432	; 0x2000000
 8001b22:	f8d4 0080 	ldr.w	r0, [r4, #128]	; 0x80
 8001b26:	f8d1 2090 	ldr.w	r2, [r1, #144]	; 0x90
 8001b2a:	f022 5280 	bic.w	r2, r2, #268435456	; 0x10000000
 8001b2e:	ea42 0200 	orr.w	r2, r2, r0
 8001b32:	f8c1 2090 	str.w	r2, [r1, #144]	; 0x90
 8001b36:	d1e8      	bne.n	8001b0a <HAL_RCCEx_PeriphCLKConfig+0x206>
 8001b38:	4b2f      	ldr	r3, [pc, #188]	; (8001bf8 <HAL_RCCEx_PeriphCLKConfig+0x2f4>)
 8001b3a:	681a      	ldr	r2, [r3, #0]
 8001b3c:	461e      	mov	r6, r3
 8001b3e:	f022 6280 	bic.w	r2, r2, #67108864	; 0x4000000
 8001b42:	601a      	str	r2, [r3, #0]
 8001b44:	f7ff fa0c 	bl	8000f60 <HAL_GetTick>
 8001b48:	4607      	mov	r7, r0
 8001b4a:	e004      	b.n	8001b56 <HAL_RCCEx_PeriphCLKConfig+0x252>
 8001b4c:	f7ff fa08 	bl	8000f60 <HAL_GetTick>
 8001b50:	1bc0      	subs	r0, r0, r7
 8001b52:	2864      	cmp	r0, #100	; 0x64
 8001b54:	d85d      	bhi.n	8001c12 <HAL_RCCEx_PeriphCLKConfig+0x30e>
 8001b56:	6833      	ldr	r3, [r6, #0]
 8001b58:	011b      	lsls	r3, r3, #4
 8001b5a:	d4f7      	bmi.n	8001b4c <HAL_RCCEx_PeriphCLKConfig+0x248>
 8001b5c:	6823      	ldr	r3, [r4, #0]
 8001b5e:	07df      	lsls	r7, r3, #31
 8001b60:	d512      	bpl.n	8001b88 <HAL_RCCEx_PeriphCLKConfig+0x284>
 8001b62:	6b62      	ldr	r2, [r4, #52]	; 0x34
 8001b64:	b982      	cbnz	r2, 8001b88 <HAL_RCCEx_PeriphCLKConfig+0x284>
 8001b66:	f8d6 2084 	ldr.w	r2, [r6, #132]	; 0x84
 8001b6a:	f8d6 7084 	ldr.w	r7, [r6, #132]	; 0x84
 8001b6e:	f402 3240 	and.w	r2, r2, #196608	; 0x30000
 8001b72:	6860      	ldr	r0, [r4, #4]
 8001b74:	f007 6770 	and.w	r7, r7, #251658240	; 0xf000000
 8001b78:	68a1      	ldr	r1, [r4, #8]
 8001b7a:	433a      	orrs	r2, r7
 8001b7c:	ea42 1280 	orr.w	r2, r2, r0, lsl #6
 8001b80:	ea42 7201 	orr.w	r2, r2, r1, lsl #28
 8001b84:	f8c6 2084 	str.w	r2, [r6, #132]	; 0x84
 8001b88:	031e      	lsls	r6, r3, #12
 8001b8a:	f100 8111 	bmi.w	8001db0 <HAL_RCCEx_PeriphCLKConfig+0x4ac>
 8001b8e:	02d8      	lsls	r0, r3, #11
 8001b90:	d504      	bpl.n	8001b9c <HAL_RCCEx_PeriphCLKConfig+0x298>
 8001b92:	6c22      	ldr	r2, [r4, #64]	; 0x40
 8001b94:	f5b2 0f80 	cmp.w	r2, #4194304	; 0x400000
 8001b98:	f000 810f 	beq.w	8001dba <HAL_RCCEx_PeriphCLKConfig+0x4b6>
 8001b9c:	01d9      	lsls	r1, r3, #7
 8001b9e:	d511      	bpl.n	8001bc4 <HAL_RCCEx_PeriphCLKConfig+0x2c0>
 8001ba0:	4e15      	ldr	r6, [pc, #84]	; (8001bf8 <HAL_RCCEx_PeriphCLKConfig+0x2f4>)
 8001ba2:	6860      	ldr	r0, [r4, #4]
 8001ba4:	f8d6 2084 	ldr.w	r2, [r6, #132]	; 0x84
 8001ba8:	f8d6 7084 	ldr.w	r7, [r6, #132]	; 0x84
 8001bac:	f002 6270 	and.w	r2, r2, #251658240	; 0xf000000
 8001bb0:	6921      	ldr	r1, [r4, #16]
 8001bb2:	f007 47e0 	and.w	r7, r7, #1879048192	; 0x70000000
 8001bb6:	433a      	orrs	r2, r7
 8001bb8:	ea42 1280 	orr.w	r2, r2, r0, lsl #6
 8001bbc:	ea42 4201 	orr.w	r2, r2, r1, lsl #16
 8001bc0:	f8c6 2084 	str.w	r2, [r6, #132]	; 0x84
 8001bc4:	019a      	lsls	r2, r3, #6
 8001bc6:	d50d      	bpl.n	8001be4 <HAL_RCCEx_PeriphCLKConfig+0x2e0>
 8001bc8:	6923      	ldr	r3, [r4, #16]
 8001bca:	6862      	ldr	r2, [r4, #4]
 8001bcc:	041b      	lsls	r3, r3, #16
 8001bce:	e9d4 1002 	ldrd	r1, r0, [r4, #8]
 8001bd2:	ea43 1382 	orr.w	r3, r3, r2, lsl #6
 8001bd6:	4a08      	ldr	r2, [pc, #32]	; (8001bf8 <HAL_RCCEx_PeriphCLKConfig+0x2f4>)
 8001bd8:	ea43 6300 	orr.w	r3, r3, r0, lsl #24
 8001bdc:	ea43 7301 	orr.w	r3, r3, r1, lsl #28
 8001be0:	f8c2 3084 	str.w	r3, [r2, #132]	; 0x84
 8001be4:	4b04      	ldr	r3, [pc, #16]	; (8001bf8 <HAL_RCCEx_PeriphCLKConfig+0x2f4>)
 8001be6:	681a      	ldr	r2, [r3, #0]
 8001be8:	461e      	mov	r6, r3
 8001bea:	f042 6280 	orr.w	r2, r2, #67108864	; 0x4000000
 8001bee:	601a      	str	r2, [r3, #0]
 8001bf0:	f7ff f9b6 	bl	8000f60 <HAL_GetTick>
 8001bf4:	4607      	mov	r7, r0
 8001bf6:	e006      	b.n	8001c06 <HAL_RCCEx_PeriphCLKConfig+0x302>
 8001bf8:	40023800 	.word	0x40023800
 8001bfc:	f7ff f9b0 	bl	8000f60 <HAL_GetTick>
 8001c00:	1bc0      	subs	r0, r0, r7
 8001c02:	2864      	cmp	r0, #100	; 0x64
 8001c04:	d805      	bhi.n	8001c12 <HAL_RCCEx_PeriphCLKConfig+0x30e>
 8001c06:	6833      	ldr	r3, [r6, #0]
 8001c08:	011b      	lsls	r3, r3, #4
 8001c0a:	d5f7      	bpl.n	8001bfc <HAL_RCCEx_PeriphCLKConfig+0x2f8>
 8001c0c:	2d01      	cmp	r5, #1
 8001c0e:	d181      	bne.n	8001b14 <HAL_RCCEx_PeriphCLKConfig+0x210>
 8001c10:	e050      	b.n	8001cb4 <HAL_RCCEx_PeriphCLKConfig+0x3b0>
 8001c12:	2003      	movs	r0, #3
 8001c14:	b003      	add	sp, #12
 8001c16:	e8bd 83f0 	ldmia.w	sp!, {r4, r5, r6, r7, r8, r9, pc}
 8001c1a:	4a87      	ldr	r2, [pc, #540]	; (8001e38 <HAL_RCCEx_PeriphCLKConfig+0x534>)
 8001c1c:	4b87      	ldr	r3, [pc, #540]	; (8001e3c <HAL_RCCEx_PeriphCLKConfig+0x538>)
 8001c1e:	6c11      	ldr	r1, [r2, #64]	; 0x40
 8001c20:	461f      	mov	r7, r3
 8001c22:	f041 5180 	orr.w	r1, r1, #268435456	; 0x10000000
 8001c26:	6411      	str	r1, [r2, #64]	; 0x40
 8001c28:	6c12      	ldr	r2, [r2, #64]	; 0x40
 8001c2a:	f002 5280 	and.w	r2, r2, #268435456	; 0x10000000
 8001c2e:	9201      	str	r2, [sp, #4]
 8001c30:	9a01      	ldr	r2, [sp, #4]
 8001c32:	681a      	ldr	r2, [r3, #0]
 8001c34:	f442 7280 	orr.w	r2, r2, #256	; 0x100
 8001c38:	601a      	str	r2, [r3, #0]
 8001c3a:	f7ff f991 	bl	8000f60 <HAL_GetTick>
 8001c3e:	4680      	mov	r8, r0
 8001c40:	e005      	b.n	8001c4e <HAL_RCCEx_PeriphCLKConfig+0x34a>
 8001c42:	f7ff f98d 	bl	8000f60 <HAL_GetTick>
 8001c46:	eba0 0008 	sub.w	r0, r0, r8
 8001c4a:	2864      	cmp	r0, #100	; 0x64
 8001c4c:	d8e1      	bhi.n	8001c12 <HAL_RCCEx_PeriphCLKConfig+0x30e>
 8001c4e:	683b      	ldr	r3, [r7, #0]
 8001c50:	05db      	lsls	r3, r3, #23
 8001c52:	d5f6      	bpl.n	8001c42 <HAL_RCCEx_PeriphCLKConfig+0x33e>
 8001c54:	4a78      	ldr	r2, [pc, #480]	; (8001e38 <HAL_RCCEx_PeriphCLKConfig+0x534>)
 8001c56:	6b23      	ldr	r3, [r4, #48]	; 0x30
 8001c58:	6f11      	ldr	r1, [r2, #112]	; 0x70
 8001c5a:	f403 7040 	and.w	r0, r3, #768	; 0x300
 8001c5e:	f411 7140 	ands.w	r1, r1, #768	; 0x300
 8001c62:	d011      	beq.n	8001c88 <HAL_RCCEx_PeriphCLKConfig+0x384>
 8001c64:	4281      	cmp	r1, r0
 8001c66:	d00f      	beq.n	8001c88 <HAL_RCCEx_PeriphCLKConfig+0x384>
 8001c68:	6f11      	ldr	r1, [r2, #112]	; 0x70
 8001c6a:	6f17      	ldr	r7, [r2, #112]	; 0x70
 8001c6c:	f421 7140 	bic.w	r1, r1, #768	; 0x300
 8001c70:	f447 3780 	orr.w	r7, r7, #65536	; 0x10000
 8001c74:	6717      	str	r7, [r2, #112]	; 0x70
 8001c76:	6f17      	ldr	r7, [r2, #112]	; 0x70
 8001c78:	f427 3780 	bic.w	r7, r7, #65536	; 0x10000
 8001c7c:	6717      	str	r7, [r2, #112]	; 0x70
 8001c7e:	6711      	str	r1, [r2, #112]	; 0x70
 8001c80:	6f11      	ldr	r1, [r2, #112]	; 0x70
 8001c82:	07cf      	lsls	r7, r1, #31
 8001c84:	f100 80c3 	bmi.w	8001e0e <HAL_RCCEx_PeriphCLKConfig+0x50a>
 8001c88:	f5b0 7f40 	cmp.w	r0, #768	; 0x300
 8001c8c:	f000 80b1 	beq.w	8001df2 <HAL_RCCEx_PeriphCLKConfig+0x4ee>
 8001c90:	4969      	ldr	r1, [pc, #420]	; (8001e38 <HAL_RCCEx_PeriphCLKConfig+0x534>)
 8001c92:	688a      	ldr	r2, [r1, #8]
 8001c94:	f422 12f8 	bic.w	r2, r2, #2031616	; 0x1f0000
 8001c98:	608a      	str	r2, [r1, #8]
 8001c9a:	4a67      	ldr	r2, [pc, #412]	; (8001e38 <HAL_RCCEx_PeriphCLKConfig+0x534>)
 8001c9c:	f3c3 030b 	ubfx	r3, r3, #0, #12
 8001ca0:	6f11      	ldr	r1, [r2, #112]	; 0x70
 8001ca2:	430b      	orrs	r3, r1
 8001ca4:	6713      	str	r3, [r2, #112]	; 0x70
 8001ca6:	6823      	ldr	r3, [r4, #0]
 8001ca8:	e66e      	b.n	8001988 <HAL_RCCEx_PeriphCLKConfig+0x84>
 8001caa:	2601      	movs	r6, #1
 8001cac:	e665      	b.n	800197a <HAL_RCCEx_PeriphCLKConfig+0x76>
 8001cae:	2500      	movs	r5, #0
 8001cb0:	2601      	movs	r6, #1
 8001cb2:	e64f      	b.n	8001954 <HAL_RCCEx_PeriphCLKConfig+0x50>
 8001cb4:	4b60      	ldr	r3, [pc, #384]	; (8001e38 <HAL_RCCEx_PeriphCLKConfig+0x534>)
 8001cb6:	681a      	ldr	r2, [r3, #0]
 8001cb8:	461d      	mov	r5, r3
 8001cba:	f022 5280 	bic.w	r2, r2, #268435456	; 0x10000000
 8001cbe:	601a      	str	r2, [r3, #0]
 8001cc0:	f7ff f94e 	bl	8000f60 <HAL_GetTick>
 8001cc4:	4606      	mov	r6, r0
 8001cc6:	e004      	b.n	8001cd2 <HAL_RCCEx_PeriphCLKConfig+0x3ce>
 8001cc8:	f7ff f94a 	bl	8000f60 <HAL_GetTick>
 8001ccc:	1b80      	subs	r0, r0, r6
 8001cce:	2864      	cmp	r0, #100	; 0x64
 8001cd0:	d89f      	bhi.n	8001c12 <HAL_RCCEx_PeriphCLKConfig+0x30e>
 8001cd2:	682b      	ldr	r3, [r5, #0]
 8001cd4:	009f      	lsls	r7, r3, #2
 8001cd6:	d4f7      	bmi.n	8001cc8 <HAL_RCCEx_PeriphCLKConfig+0x3c4>
 8001cd8:	6823      	ldr	r3, [r4, #0]
 8001cda:	031d      	lsls	r5, r3, #12
 8001cdc:	f100 8092 	bmi.w	8001e04 <HAL_RCCEx_PeriphCLKConfig+0x500>
 8001ce0:	02d8      	lsls	r0, r3, #11
 8001ce2:	d51d      	bpl.n	8001d20 <HAL_RCCEx_PeriphCLKConfig+0x41c>
 8001ce4:	6c22      	ldr	r2, [r4, #64]	; 0x40
 8001ce6:	b9da      	cbnz	r2, 8001d20 <HAL_RCCEx_PeriphCLKConfig+0x41c>
 8001ce8:	4953      	ldr	r1, [pc, #332]	; (8001e38 <HAL_RCCEx_PeriphCLKConfig+0x534>)
 8001cea:	6965      	ldr	r5, [r4, #20]
 8001cec:	f8d1 2088 	ldr.w	r2, [r1, #136]	; 0x88
 8001cf0:	f8d1 6088 	ldr.w	r6, [r1, #136]	; 0x88
 8001cf4:	f402 3240 	and.w	r2, r2, #196608	; 0x30000
 8001cf8:	69a0      	ldr	r0, [r4, #24]
 8001cfa:	f006 46e0 	and.w	r6, r6, #1879048192	; 0x70000000
 8001cfe:	4332      	orrs	r2, r6
 8001d00:	ea42 1285 	orr.w	r2, r2, r5, lsl #6
 8001d04:	ea42 6200 	orr.w	r2, r2, r0, lsl #24
 8001d08:	f8c1 2088 	str.w	r2, [r1, #136]	; 0x88
 8001d0c:	f8d1 208c 	ldr.w	r2, [r1, #140]	; 0x8c
 8001d10:	6aa0      	ldr	r0, [r4, #40]	; 0x28
 8001d12:	f422 52f8 	bic.w	r2, r2, #7936	; 0x1f00
 8001d16:	3801      	subs	r0, #1
 8001d18:	ea42 2200 	orr.w	r2, r2, r0, lsl #8
 8001d1c:	f8c1 208c 	str.w	r2, [r1, #140]	; 0x8c
 8001d20:	0299      	lsls	r1, r3, #10
 8001d22:	d515      	bpl.n	8001d50 <HAL_RCCEx_PeriphCLKConfig+0x44c>
 8001d24:	6fe2      	ldr	r2, [r4, #124]	; 0x7c
 8001d26:	f1b2 6f00 	cmp.w	r2, #134217728	; 0x8000000
 8001d2a:	d111      	bne.n	8001d50 <HAL_RCCEx_PeriphCLKConfig+0x44c>
 8001d2c:	4942      	ldr	r1, [pc, #264]	; (8001e38 <HAL_RCCEx_PeriphCLKConfig+0x534>)
 8001d2e:	6965      	ldr	r5, [r4, #20]
 8001d30:	f8d1 2088 	ldr.w	r2, [r1, #136]	; 0x88
 8001d34:	f8d1 6088 	ldr.w	r6, [r1, #136]	; 0x88
 8001d38:	f002 6270 	and.w	r2, r2, #251658240	; 0xf000000
 8001d3c:	6a20      	ldr	r0, [r4, #32]
 8001d3e:	f006 46e0 	and.w	r6, r6, #1879048192	; 0x70000000
 8001d42:	4332      	orrs	r2, r6
 8001d44:	ea42 1285 	orr.w	r2, r2, r5, lsl #6
 8001d48:	ea42 4200 	orr.w	r2, r2, r0, lsl #16
 8001d4c:	f8c1 2088 	str.w	r2, [r1, #136]	; 0x88
 8001d50:	071a      	lsls	r2, r3, #28
 8001d52:	d519      	bpl.n	8001d88 <HAL_RCCEx_PeriphCLKConfig+0x484>
 8001d54:	4a38      	ldr	r2, [pc, #224]	; (8001e38 <HAL_RCCEx_PeriphCLKConfig+0x534>)
 8001d56:	6965      	ldr	r5, [r4, #20]
 8001d58:	f8d2 1088 	ldr.w	r1, [r2, #136]	; 0x88
 8001d5c:	f8d2 3088 	ldr.w	r3, [r2, #136]	; 0x88
 8001d60:	f001 6170 	and.w	r1, r1, #251658240	; 0xf000000
 8001d64:	69e0      	ldr	r0, [r4, #28]
 8001d66:	f403 3340 	and.w	r3, r3, #196608	; 0x30000
 8001d6a:	430b      	orrs	r3, r1
 8001d6c:	ea43 1385 	orr.w	r3, r3, r5, lsl #6
 8001d70:	ea43 7300 	orr.w	r3, r3, r0, lsl #28
 8001d74:	f8c2 3088 	str.w	r3, [r2, #136]	; 0x88
 8001d78:	f8d2 308c 	ldr.w	r3, [r2, #140]	; 0x8c
 8001d7c:	6ae1      	ldr	r1, [r4, #44]	; 0x2c
 8001d7e:	f423 3340 	bic.w	r3, r3, #196608	; 0x30000
 8001d82:	430b      	orrs	r3, r1
 8001d84:	f8c2 308c 	str.w	r3, [r2, #140]	; 0x8c
 8001d88:	4b2b      	ldr	r3, [pc, #172]	; (8001e38 <HAL_RCCEx_PeriphCLKConfig+0x534>)
 8001d8a:	681a      	ldr	r2, [r3, #0]
 8001d8c:	461c      	mov	r4, r3
 8001d8e:	f042 5280 	orr.w	r2, r2, #268435456	; 0x10000000
 8001d92:	601a      	str	r2, [r3, #0]
 8001d94:	f7ff f8e4 	bl	8000f60 <HAL_GetTick>
 8001d98:	4605      	mov	r5, r0
 8001d9a:	e005      	b.n	8001da8 <HAL_RCCEx_PeriphCLKConfig+0x4a4>
 8001d9c:	f7ff f8e0 	bl	8000f60 <HAL_GetTick>
 8001da0:	1b40      	subs	r0, r0, r5
 8001da2:	2864      	cmp	r0, #100	; 0x64
 8001da4:	f63f af35 	bhi.w	8001c12 <HAL_RCCEx_PeriphCLKConfig+0x30e>
 8001da8:	6823      	ldr	r3, [r4, #0]
 8001daa:	009b      	lsls	r3, r3, #2
 8001dac:	d5f6      	bpl.n	8001d9c <HAL_RCCEx_PeriphCLKConfig+0x498>
 8001dae:	e6b1      	b.n	8001b14 <HAL_RCCEx_PeriphCLKConfig+0x210>
 8001db0:	6be2      	ldr	r2, [r4, #60]	; 0x3c
 8001db2:	f5b2 1f80 	cmp.w	r2, #1048576	; 0x100000
 8001db6:	f47f aeea 	bne.w	8001b8e <HAL_RCCEx_PeriphCLKConfig+0x28a>
 8001dba:	4e1f      	ldr	r6, [pc, #124]	; (8001e38 <HAL_RCCEx_PeriphCLKConfig+0x534>)
 8001dbc:	6860      	ldr	r0, [r4, #4]
 8001dbe:	f8d6 2084 	ldr.w	r2, [r6, #132]	; 0x84
 8001dc2:	f8d6 7084 	ldr.w	r7, [r6, #132]	; 0x84
 8001dc6:	f402 3240 	and.w	r2, r2, #196608	; 0x30000
 8001dca:	68e1      	ldr	r1, [r4, #12]
 8001dcc:	f007 47e0 	and.w	r7, r7, #1879048192	; 0x70000000
 8001dd0:	433a      	orrs	r2, r7
 8001dd2:	ea42 1280 	orr.w	r2, r2, r0, lsl #6
 8001dd6:	ea42 6201 	orr.w	r2, r2, r1, lsl #24
 8001dda:	f8c6 2084 	str.w	r2, [r6, #132]	; 0x84
 8001dde:	f8d6 108c 	ldr.w	r1, [r6, #140]	; 0x8c
 8001de2:	6a62      	ldr	r2, [r4, #36]	; 0x24
 8001de4:	f021 011f 	bic.w	r1, r1, #31
 8001de8:	3a01      	subs	r2, #1
 8001dea:	430a      	orrs	r2, r1
 8001dec:	f8c6 208c 	str.w	r2, [r6, #140]	; 0x8c
 8001df0:	e6d4      	b.n	8001b9c <HAL_RCCEx_PeriphCLKConfig+0x298>
 8001df2:	4811      	ldr	r0, [pc, #68]	; (8001e38 <HAL_RCCEx_PeriphCLKConfig+0x534>)
 8001df4:	4912      	ldr	r1, [pc, #72]	; (8001e40 <HAL_RCCEx_PeriphCLKConfig+0x53c>)
 8001df6:	6882      	ldr	r2, [r0, #8]
 8001df8:	4019      	ands	r1, r3
 8001dfa:	f422 12f8 	bic.w	r2, r2, #2031616	; 0x1f0000
 8001dfe:	430a      	orrs	r2, r1
 8001e00:	6082      	str	r2, [r0, #8]
 8001e02:	e74a      	b.n	8001c9a <HAL_RCCEx_PeriphCLKConfig+0x396>
 8001e04:	6be2      	ldr	r2, [r4, #60]	; 0x3c
 8001e06:	2a00      	cmp	r2, #0
 8001e08:	f43f af6e 	beq.w	8001ce8 <HAL_RCCEx_PeriphCLKConfig+0x3e4>
 8001e0c:	e768      	b.n	8001ce0 <HAL_RCCEx_PeriphCLKConfig+0x3dc>
 8001e0e:	4617      	mov	r7, r2
 8001e10:	f241 3888 	movw	r8, #5000	; 0x1388
 8001e14:	f7ff f8a4 	bl	8000f60 <HAL_GetTick>
 8001e18:	4681      	mov	r9, r0
 8001e1a:	e006      	b.n	8001e2a <HAL_RCCEx_PeriphCLKConfig+0x526>
 8001e1c:	f7ff f8a0 	bl	8000f60 <HAL_GetTick>
 8001e20:	eba0 0009 	sub.w	r0, r0, r9
 8001e24:	4540      	cmp	r0, r8
 8001e26:	f63f aef4 	bhi.w	8001c12 <HAL_RCCEx_PeriphCLKConfig+0x30e>
 8001e2a:	6f3b      	ldr	r3, [r7, #112]	; 0x70
 8001e2c:	0798      	lsls	r0, r3, #30
 8001e2e:	d5f5      	bpl.n	8001e1c <HAL_RCCEx_PeriphCLKConfig+0x518>
 8001e30:	6b23      	ldr	r3, [r4, #48]	; 0x30
 8001e32:	f403 7040 	and.w	r0, r3, #768	; 0x300
 8001e36:	e727      	b.n	8001c88 <HAL_RCCEx_PeriphCLKConfig+0x384>
 8001e38:	40023800 	.word	0x40023800
 8001e3c:	40007000 	.word	0x40007000
 8001e40:	0ffffcff 	.word	0x0ffffcff

08001e44 <HAL_UART_Transmit>:
 8001e44:	e92d 41f0 	stmdb	sp!, {r4, r5, r6, r7, r8, lr}
 8001e48:	461d      	mov	r5, r3
 8001e4a:	6f43      	ldr	r3, [r0, #116]	; 0x74
 8001e4c:	b082      	sub	sp, #8
 8001e4e:	2b20      	cmp	r3, #32
 8001e50:	d146      	bne.n	8001ee0 <HAL_UART_Transmit+0x9c>
 8001e52:	4688      	mov	r8, r1
 8001e54:	2900      	cmp	r1, #0
 8001e56:	d047      	beq.n	8001ee8 <HAL_UART_Transmit+0xa4>
 8001e58:	fab2 f682 	clz	r6, r2
 8001e5c:	9201      	str	r2, [sp, #4]
 8001e5e:	0976      	lsrs	r6, r6, #5
 8001e60:	2e00      	cmp	r6, #0
 8001e62:	d141      	bne.n	8001ee8 <HAL_UART_Transmit+0xa4>
 8001e64:	f890 3070 	ldrb.w	r3, [r0, #112]	; 0x70
 8001e68:	4604      	mov	r4, r0
 8001e6a:	2b01      	cmp	r3, #1
 8001e6c:	d038      	beq.n	8001ee0 <HAL_UART_Transmit+0x9c>
 8001e6e:	2321      	movs	r3, #33	; 0x21
 8001e70:	2101      	movs	r1, #1
 8001e72:	67c6      	str	r6, [r0, #124]	; 0x7c
 8001e74:	f880 1070 	strb.w	r1, [r0, #112]	; 0x70
 8001e78:	6743      	str	r3, [r0, #116]	; 0x74
 8001e7a:	f7ff f871 	bl	8000f60 <HAL_GetTick>
 8001e7e:	68a3      	ldr	r3, [r4, #8]
 8001e80:	9a01      	ldr	r2, [sp, #4]
 8001e82:	4607      	mov	r7, r0
 8001e84:	f5b3 5f80 	cmp.w	r3, #4096	; 0x1000
 8001e88:	f8a4 2050 	strh.w	r2, [r4, #80]	; 0x50
 8001e8c:	f8a4 2052 	strh.w	r2, [r4, #82]	; 0x52
 8001e90:	d05d      	beq.n	8001f4e <HAL_UART_Transmit+0x10a>
 8001e92:	f8b4 3052 	ldrh.w	r3, [r4, #82]	; 0x52
 8001e96:	6820      	ldr	r0, [r4, #0]
 8001e98:	b29b      	uxth	r3, r3
 8001e9a:	b1ab      	cbz	r3, 8001ec8 <HAL_UART_Transmit+0x84>
 8001e9c:	1c69      	adds	r1, r5, #1
 8001e9e:	d127      	bne.n	8001ef0 <HAL_UART_Transmit+0xac>
 8001ea0:	69c2      	ldr	r2, [r0, #28]
 8001ea2:	0612      	lsls	r2, r2, #24
 8001ea4:	d5fc      	bpl.n	8001ea0 <HAL_UART_Transmit+0x5c>
 8001ea6:	f1b8 0f00 	cmp.w	r8, #0
 8001eaa:	d02c      	beq.n	8001f06 <HAL_UART_Transmit+0xc2>
 8001eac:	f818 3b01 	ldrb.w	r3, [r8], #1
 8001eb0:	6283      	str	r3, [r0, #40]	; 0x28
 8001eb2:	f8b4 3052 	ldrh.w	r3, [r4, #82]	; 0x52
 8001eb6:	3b01      	subs	r3, #1
 8001eb8:	b29b      	uxth	r3, r3
 8001eba:	f8a4 3052 	strh.w	r3, [r4, #82]	; 0x52
 8001ebe:	f8b4 3052 	ldrh.w	r3, [r4, #82]	; 0x52
 8001ec2:	b29b      	uxth	r3, r3
 8001ec4:	2b00      	cmp	r3, #0
 8001ec6:	d1e9      	bne.n	8001e9c <HAL_UART_Transmit+0x58>
 8001ec8:	1c69      	adds	r1, r5, #1
 8001eca:	d134      	bne.n	8001f36 <HAL_UART_Transmit+0xf2>
 8001ecc:	69c3      	ldr	r3, [r0, #28]
 8001ece:	065a      	lsls	r2, r3, #25
 8001ed0:	d5fc      	bpl.n	8001ecc <HAL_UART_Transmit+0x88>
 8001ed2:	2300      	movs	r3, #0
 8001ed4:	2220      	movs	r2, #32
 8001ed6:	4618      	mov	r0, r3
 8001ed8:	6762      	str	r2, [r4, #116]	; 0x74
 8001eda:	f884 3070 	strb.w	r3, [r4, #112]	; 0x70
 8001ede:	e000      	b.n	8001ee2 <HAL_UART_Transmit+0x9e>
 8001ee0:	2002      	movs	r0, #2
 8001ee2:	b002      	add	sp, #8
 8001ee4:	e8bd 81f0 	ldmia.w	sp!, {r4, r5, r6, r7, r8, pc}
 8001ee8:	2001      	movs	r0, #1
 8001eea:	b002      	add	sp, #8
 8001eec:	e8bd 81f0 	ldmia.w	sp!, {r4, r5, r6, r7, r8, pc}
 8001ef0:	69c3      	ldr	r3, [r0, #28]
 8001ef2:	061b      	lsls	r3, r3, #24
 8001ef4:	d4d7      	bmi.n	8001ea6 <HAL_UART_Transmit+0x62>
 8001ef6:	f7ff f833 	bl	8000f60 <HAL_GetTick>
 8001efa:	1bc0      	subs	r0, r0, r7
 8001efc:	4285      	cmp	r5, r0
 8001efe:	d307      	bcc.n	8001f10 <HAL_UART_Transmit+0xcc>
 8001f00:	b135      	cbz	r5, 8001f10 <HAL_UART_Transmit+0xcc>
 8001f02:	6820      	ldr	r0, [r4, #0]
 8001f04:	e7ca      	b.n	8001e9c <HAL_UART_Transmit+0x58>
 8001f06:	f836 3b02 	ldrh.w	r3, [r6], #2
 8001f0a:	f3c3 0308 	ubfx	r3, r3, #0, #9
 8001f0e:	e7cf      	b.n	8001eb0 <HAL_UART_Transmit+0x6c>
 8001f10:	6823      	ldr	r3, [r4, #0]
 8001f12:	2120      	movs	r1, #32
 8001f14:	2500      	movs	r5, #0
 8001f16:	2003      	movs	r0, #3
 8001f18:	681a      	ldr	r2, [r3, #0]
 8001f1a:	f422 72d0 	bic.w	r2, r2, #416	; 0x1a0
 8001f1e:	601a      	str	r2, [r3, #0]
 8001f20:	689a      	ldr	r2, [r3, #8]
 8001f22:	f022 0201 	bic.w	r2, r2, #1
 8001f26:	609a      	str	r2, [r3, #8]
 8001f28:	6761      	str	r1, [r4, #116]	; 0x74
 8001f2a:	f884 5070 	strb.w	r5, [r4, #112]	; 0x70
 8001f2e:	67a1      	str	r1, [r4, #120]	; 0x78
 8001f30:	b002      	add	sp, #8
 8001f32:	e8bd 81f0 	ldmia.w	sp!, {r4, r5, r6, r7, r8, pc}
 8001f36:	69c3      	ldr	r3, [r0, #28]
 8001f38:	065b      	lsls	r3, r3, #25
 8001f3a:	d4ca      	bmi.n	8001ed2 <HAL_UART_Transmit+0x8e>
 8001f3c:	f7ff f810 	bl	8000f60 <HAL_GetTick>
 8001f40:	1bc0      	subs	r0, r0, r7
 8001f42:	4285      	cmp	r5, r0
 8001f44:	d3e4      	bcc.n	8001f10 <HAL_UART_Transmit+0xcc>
 8001f46:	2d00      	cmp	r5, #0
 8001f48:	d0e2      	beq.n	8001f10 <HAL_UART_Transmit+0xcc>
 8001f4a:	6820      	ldr	r0, [r4, #0]
 8001f4c:	e7bc      	b.n	8001ec8 <HAL_UART_Transmit+0x84>
 8001f4e:	6923      	ldr	r3, [r4, #16]
 8001f50:	2b00      	cmp	r3, #0
 8001f52:	d19e      	bne.n	8001e92 <HAL_UART_Transmit+0x4e>
 8001f54:	4646      	mov	r6, r8
 8001f56:	4698      	mov	r8, r3
 8001f58:	e79b      	b.n	8001e92 <HAL_UART_Transmit+0x4e>
 8001f5a:	bf00      	nop

08001f5c <HAL_UART_Receive_IT>:
 8001f5c:	6f83      	ldr	r3, [r0, #120]	; 0x78
 8001f5e:	2b20      	cmp	r3, #32
 8001f60:	d137      	bne.n	8001fd2 <HAL_UART_Receive_IT+0x76>
 8001f62:	2900      	cmp	r1, #0
 8001f64:	d033      	beq.n	8001fce <HAL_UART_Receive_IT+0x72>
 8001f66:	fab2 f382 	clz	r3, r2
 8001f6a:	095b      	lsrs	r3, r3, #5
 8001f6c:	2b00      	cmp	r3, #0
 8001f6e:	d12e      	bne.n	8001fce <HAL_UART_Receive_IT+0x72>
 8001f70:	b430      	push	{r4, r5}
 8001f72:	f890 4070 	ldrb.w	r4, [r0, #112]	; 0x70
 8001f76:	2c01      	cmp	r4, #1
 8001f78:	d042      	beq.n	8002000 <HAL_UART_Receive_IT+0xa4>
 8001f7a:	6884      	ldr	r4, [r0, #8]
 8001f7c:	2501      	movs	r5, #1
 8001f7e:	f8a0 2058 	strh.w	r2, [r0, #88]	; 0x58
 8001f82:	f5b4 5f80 	cmp.w	r4, #4096	; 0x1000
 8001f86:	f8a0 205a 	strh.w	r2, [r0, #90]	; 0x5a
 8001f8a:	6541      	str	r1, [r0, #84]	; 0x54
 8001f8c:	6603      	str	r3, [r0, #96]	; 0x60
 8001f8e:	f880 5070 	strb.w	r5, [r0, #112]	; 0x70
 8001f92:	6802      	ldr	r2, [r0, #0]
 8001f94:	d01f      	beq.n	8001fd6 <HAL_UART_Receive_IT+0x7a>
 8001f96:	2c00      	cmp	r4, #0
 8001f98:	d12c      	bne.n	8001ff4 <HAL_UART_Receive_IT+0x98>
 8001f9a:	6903      	ldr	r3, [r0, #16]
 8001f9c:	2b00      	cmp	r3, #0
 8001f9e:	d03d      	beq.n	800201c <HAL_UART_Receive_IT+0xc0>
 8001fa0:	237f      	movs	r3, #127	; 0x7f
 8001fa2:	f8a0 305c 	strh.w	r3, [r0, #92]	; 0x5c
 8001fa6:	2322      	movs	r3, #34	; 0x22
 8001fa8:	2100      	movs	r1, #0
 8001faa:	4c22      	ldr	r4, [pc, #136]	; (8002034 <HAL_UART_Receive_IT+0xd8>)
 8001fac:	67c1      	str	r1, [r0, #124]	; 0x7c
 8001fae:	6783      	str	r3, [r0, #120]	; 0x78
 8001fb0:	6893      	ldr	r3, [r2, #8]
 8001fb2:	f043 0301 	orr.w	r3, r3, #1
 8001fb6:	6093      	str	r3, [r2, #8]
 8001fb8:	6811      	ldr	r1, [r2, #0]
 8001fba:	2300      	movs	r3, #0
 8001fbc:	6604      	str	r4, [r0, #96]	; 0x60
 8001fbe:	f880 3070 	strb.w	r3, [r0, #112]	; 0x70
 8001fc2:	f441 7190 	orr.w	r1, r1, #288	; 0x120
 8001fc6:	4618      	mov	r0, r3
 8001fc8:	6011      	str	r1, [r2, #0]
 8001fca:	bc30      	pop	{r4, r5}
 8001fcc:	4770      	bx	lr
 8001fce:	2001      	movs	r0, #1
 8001fd0:	4770      	bx	lr
 8001fd2:	2002      	movs	r0, #2
 8001fd4:	4770      	bx	lr
 8001fd6:	6901      	ldr	r1, [r0, #16]
 8001fd8:	b9a1      	cbnz	r1, 8002004 <HAL_UART_Receive_IT+0xa8>
 8001fda:	2322      	movs	r3, #34	; 0x22
 8001fdc:	67c1      	str	r1, [r0, #124]	; 0x7c
 8001fde:	f240 11ff 	movw	r1, #511	; 0x1ff
 8001fe2:	4c15      	ldr	r4, [pc, #84]	; (8002038 <HAL_UART_Receive_IT+0xdc>)
 8001fe4:	6783      	str	r3, [r0, #120]	; 0x78
 8001fe6:	6893      	ldr	r3, [r2, #8]
 8001fe8:	f8a0 105c 	strh.w	r1, [r0, #92]	; 0x5c
 8001fec:	f043 0301 	orr.w	r3, r3, #1
 8001ff0:	6093      	str	r3, [r2, #8]
 8001ff2:	e7e1      	b.n	8001fb8 <HAL_UART_Receive_IT+0x5c>
 8001ff4:	f1b4 5f80 	cmp.w	r4, #268435456	; 0x10000000
 8001ff8:	d014      	beq.n	8002024 <HAL_UART_Receive_IT+0xc8>
 8001ffa:	f8a0 305c 	strh.w	r3, [r0, #92]	; 0x5c
 8001ffe:	e7d2      	b.n	8001fa6 <HAL_UART_Receive_IT+0x4a>
 8002000:	2002      	movs	r0, #2
 8002002:	e7e2      	b.n	8001fca <HAL_UART_Receive_IT+0x6e>
 8002004:	2522      	movs	r5, #34	; 0x22
 8002006:	67c3      	str	r3, [r0, #124]	; 0x7c
 8002008:	21ff      	movs	r1, #255	; 0xff
 800200a:	4c0a      	ldr	r4, [pc, #40]	; (8002034 <HAL_UART_Receive_IT+0xd8>)
 800200c:	6785      	str	r5, [r0, #120]	; 0x78
 800200e:	6893      	ldr	r3, [r2, #8]
 8002010:	f8a0 105c 	strh.w	r1, [r0, #92]	; 0x5c
 8002014:	f043 0301 	orr.w	r3, r3, #1
 8002018:	6093      	str	r3, [r2, #8]
 800201a:	e7cd      	b.n	8001fb8 <HAL_UART_Receive_IT+0x5c>
 800201c:	23ff      	movs	r3, #255	; 0xff
 800201e:	f8a0 305c 	strh.w	r3, [r0, #92]	; 0x5c
 8002022:	e7c0      	b.n	8001fa6 <HAL_UART_Receive_IT+0x4a>
 8002024:	6903      	ldr	r3, [r0, #16]
 8002026:	2b00      	cmp	r3, #0
 8002028:	d0ba      	beq.n	8001fa0 <HAL_UART_Receive_IT+0x44>
 800202a:	233f      	movs	r3, #63	; 0x3f
 800202c:	f8a0 305c 	strh.w	r3, [r0, #92]	; 0x5c
 8002030:	e7b9      	b.n	8001fa6 <HAL_UART_Receive_IT+0x4a>
 8002032:	bf00      	nop
 8002034:	08002041 	.word	0x08002041
 8002038:	0800209d 	.word	0x0800209d

0800203c <HAL_UART_TxCpltCallback>:
 800203c:	4770      	bx	lr
 800203e:	bf00      	nop

08002040 <UART_RxISR_8BIT>:
 8002040:	6f81      	ldr	r1, [r0, #120]	; 0x78
 8002042:	6802      	ldr	r2, [r0, #0]
 8002044:	2922      	cmp	r1, #34	; 0x22
 8002046:	b538      	push	{r3, r4, r5, lr}
 8002048:	d004      	beq.n	8002054 <UART_RxISR_8BIT+0x14>
 800204a:	6993      	ldr	r3, [r2, #24]
 800204c:	f043 0308 	orr.w	r3, r3, #8
 8002050:	6193      	str	r3, [r2, #24]
 8002052:	bd38      	pop	{r3, r4, r5, pc}
 8002054:	6a52      	ldr	r2, [r2, #36]	; 0x24
 8002056:	f890 405c 	ldrb.w	r4, [r0, #92]	; 0x5c
 800205a:	6d41      	ldr	r1, [r0, #84]	; 0x54
 800205c:	4022      	ands	r2, r4
 800205e:	700a      	strb	r2, [r1, #0]
 8002060:	f8b0 205a 	ldrh.w	r2, [r0, #90]	; 0x5a
 8002064:	6d41      	ldr	r1, [r0, #84]	; 0x54
 8002066:	3a01      	subs	r2, #1
 8002068:	3101      	adds	r1, #1
 800206a:	b292      	uxth	r2, r2
 800206c:	6541      	str	r1, [r0, #84]	; 0x54
 800206e:	f8a0 205a 	strh.w	r2, [r0, #90]	; 0x5a
 8002072:	f8b0 205a 	ldrh.w	r2, [r0, #90]	; 0x5a
 8002076:	b292      	uxth	r2, r2
 8002078:	2a00      	cmp	r2, #0
 800207a:	d1ea      	bne.n	8002052 <UART_RxISR_8BIT+0x12>
 800207c:	6801      	ldr	r1, [r0, #0]
 800207e:	2520      	movs	r5, #32
 8002080:	680c      	ldr	r4, [r1, #0]
 8002082:	f424 7490 	bic.w	r4, r4, #288	; 0x120
 8002086:	600c      	str	r4, [r1, #0]
 8002088:	688c      	ldr	r4, [r1, #8]
 800208a:	f024 0401 	bic.w	r4, r4, #1
 800208e:	608c      	str	r4, [r1, #8]
 8002090:	6602      	str	r2, [r0, #96]	; 0x60
 8002092:	6785      	str	r5, [r0, #120]	; 0x78
 8002094:	f000 fe34 	bl	8002d00 <HAL_UART_RxCpltCallback>
 8002098:	bd38      	pop	{r3, r4, r5, pc}
 800209a:	bf00      	nop

0800209c <UART_RxISR_16BIT>:
 800209c:	6f81      	ldr	r1, [r0, #120]	; 0x78
 800209e:	6802      	ldr	r2, [r0, #0]
 80020a0:	2922      	cmp	r1, #34	; 0x22
 80020a2:	b538      	push	{r3, r4, r5, lr}
 80020a4:	d004      	beq.n	80020b0 <UART_RxISR_16BIT+0x14>
 80020a6:	6993      	ldr	r3, [r2, #24]
 80020a8:	f043 0308 	orr.w	r3, r3, #8
 80020ac:	6193      	str	r3, [r2, #24]
 80020ae:	bd38      	pop	{r3, r4, r5, pc}
 80020b0:	6a51      	ldr	r1, [r2, #36]	; 0x24
 80020b2:	f8b0 505c 	ldrh.w	r5, [r0, #92]	; 0x5c
 80020b6:	6d44      	ldr	r4, [r0, #84]	; 0x54
 80020b8:	4029      	ands	r1, r5
 80020ba:	f824 1b02 	strh.w	r1, [r4], #2
 80020be:	f8b0 105a 	ldrh.w	r1, [r0, #90]	; 0x5a
 80020c2:	6544      	str	r4, [r0, #84]	; 0x54
 80020c4:	3901      	subs	r1, #1
 80020c6:	b289      	uxth	r1, r1
 80020c8:	f8a0 105a 	strh.w	r1, [r0, #90]	; 0x5a
 80020cc:	f8b0 105a 	ldrh.w	r1, [r0, #90]	; 0x5a
 80020d0:	b289      	uxth	r1, r1
 80020d2:	2900      	cmp	r1, #0
 80020d4:	d1eb      	bne.n	80020ae <UART_RxISR_16BIT+0x12>
 80020d6:	6814      	ldr	r4, [r2, #0]
 80020d8:	2520      	movs	r5, #32
 80020da:	f424 7490 	bic.w	r4, r4, #288	; 0x120
 80020de:	6014      	str	r4, [r2, #0]
 80020e0:	6894      	ldr	r4, [r2, #8]
 80020e2:	f024 0401 	bic.w	r4, r4, #1
 80020e6:	6094      	str	r4, [r2, #8]
 80020e8:	6601      	str	r1, [r0, #96]	; 0x60
 80020ea:	6785      	str	r5, [r0, #120]	; 0x78
 80020ec:	f000 fe08 	bl	8002d00 <HAL_UART_RxCpltCallback>
 80020f0:	bd38      	pop	{r3, r4, r5, pc}
 80020f2:	bf00      	nop

080020f4 <HAL_UART_ErrorCallback>:
 80020f4:	4770      	bx	lr
 80020f6:	bf00      	nop

080020f8 <HAL_UART_IRQHandler>:
 80020f8:	6803      	ldr	r3, [r0, #0]
 80020fa:	69da      	ldr	r2, [r3, #28]
 80020fc:	b570      	push	{r4, r5, r6, lr}
 80020fe:	0716      	lsls	r6, r2, #28
 8002100:	681d      	ldr	r5, [r3, #0]
 8002102:	4604      	mov	r4, r0
 8002104:	6899      	ldr	r1, [r3, #8]
 8002106:	d047      	beq.n	8002198 <HAL_UART_IRQHandler+0xa0>
 8002108:	f011 0101 	ands.w	r1, r1, #1
 800210c:	d04b      	beq.n	80021a6 <HAL_UART_IRQHandler+0xae>
 800210e:	07d0      	lsls	r0, r2, #31
 8002110:	d507      	bpl.n	8002122 <HAL_UART_IRQHandler+0x2a>
 8002112:	05ee      	lsls	r6, r5, #23
 8002114:	d505      	bpl.n	8002122 <HAL_UART_IRQHandler+0x2a>
 8002116:	2001      	movs	r0, #1
 8002118:	6218      	str	r0, [r3, #32]
 800211a:	6fe0      	ldr	r0, [r4, #124]	; 0x7c
 800211c:	f040 0001 	orr.w	r0, r0, #1
 8002120:	67e0      	str	r0, [r4, #124]	; 0x7c
 8002122:	0790      	lsls	r0, r2, #30
 8002124:	d45d      	bmi.n	80021e2 <HAL_UART_IRQHandler+0xea>
 8002126:	0750      	lsls	r0, r2, #29
 8002128:	d501      	bpl.n	800212e <HAL_UART_IRQHandler+0x36>
 800212a:	2900      	cmp	r1, #0
 800212c:	d163      	bne.n	80021f6 <HAL_UART_IRQHandler+0xfe>
 800212e:	0716      	lsls	r6, r2, #28
 8002130:	d503      	bpl.n	800213a <HAL_UART_IRQHandler+0x42>
 8002132:	06a8      	lsls	r0, r5, #26
 8002134:	d466      	bmi.n	8002204 <HAL_UART_IRQHandler+0x10c>
 8002136:	2900      	cmp	r1, #0
 8002138:	d164      	bne.n	8002204 <HAL_UART_IRQHandler+0x10c>
 800213a:	6fe1      	ldr	r1, [r4, #124]	; 0x7c
 800213c:	2900      	cmp	r1, #0
 800213e:	d031      	beq.n	80021a4 <HAL_UART_IRQHandler+0xac>
 8002140:	0696      	lsls	r6, r2, #26
 8002142:	d501      	bpl.n	8002148 <HAL_UART_IRQHandler+0x50>
 8002144:	06a8      	lsls	r0, r5, #26
 8002146:	d468      	bmi.n	800221a <HAL_UART_IRQHandler+0x122>
 8002148:	6fe5      	ldr	r5, [r4, #124]	; 0x7c
 800214a:	6899      	ldr	r1, [r3, #8]
 800214c:	0649      	lsls	r1, r1, #25
 800214e:	d402      	bmi.n	8002156 <HAL_UART_IRQHandler+0x5e>
 8002150:	f015 0508 	ands.w	r5, r5, #8
 8002154:	d068      	beq.n	8002228 <HAL_UART_IRQHandler+0x130>
 8002156:	681a      	ldr	r2, [r3, #0]
 8002158:	2020      	movs	r0, #32
 800215a:	2100      	movs	r1, #0
 800215c:	f422 7290 	bic.w	r2, r2, #288	; 0x120
 8002160:	601a      	str	r2, [r3, #0]
 8002162:	689a      	ldr	r2, [r3, #8]
 8002164:	f022 0201 	bic.w	r2, r2, #1
 8002168:	609a      	str	r2, [r3, #8]
 800216a:	67a0      	str	r0, [r4, #120]	; 0x78
 800216c:	689a      	ldr	r2, [r3, #8]
 800216e:	6621      	str	r1, [r4, #96]	; 0x60
 8002170:	0652      	lsls	r2, r2, #25
 8002172:	d54e      	bpl.n	8002212 <HAL_UART_IRQHandler+0x11a>
 8002174:	689a      	ldr	r2, [r3, #8]
 8002176:	6ee1      	ldr	r1, [r4, #108]	; 0x6c
 8002178:	f022 0240 	bic.w	r2, r2, #64	; 0x40
 800217c:	609a      	str	r2, [r3, #8]
 800217e:	2900      	cmp	r1, #0
 8002180:	d047      	beq.n	8002212 <HAL_UART_IRQHandler+0x11a>
 8002182:	4b2c      	ldr	r3, [pc, #176]	; (8002234 <HAL_UART_IRQHandler+0x13c>)
 8002184:	4608      	mov	r0, r1
 8002186:	650b      	str	r3, [r1, #80]	; 0x50
 8002188:	f7fe ff60 	bl	800104c <HAL_DMA_Abort_IT>
 800218c:	b150      	cbz	r0, 80021a4 <HAL_UART_IRQHandler+0xac>
 800218e:	6ee0      	ldr	r0, [r4, #108]	; 0x6c
 8002190:	e8bd 4070 	ldmia.w	sp!, {r4, r5, r6, lr}
 8002194:	6d03      	ldr	r3, [r0, #80]	; 0x50
 8002196:	4718      	bx	r3
 8002198:	0691      	lsls	r1, r2, #26
 800219a:	d507      	bpl.n	80021ac <HAL_UART_IRQHandler+0xb4>
 800219c:	06ae      	lsls	r6, r5, #26
 800219e:	d505      	bpl.n	80021ac <HAL_UART_IRQHandler+0xb4>
 80021a0:	6e03      	ldr	r3, [r0, #96]	; 0x60
 80021a2:	b9db      	cbnz	r3, 80021dc <HAL_UART_IRQHandler+0xe4>
 80021a4:	bd70      	pop	{r4, r5, r6, pc}
 80021a6:	f415 7f90 	tst.w	r5, #288	; 0x120
 80021aa:	d1b0      	bne.n	800210e <HAL_UART_IRQHandler+0x16>
 80021ac:	0616      	lsls	r6, r2, #24
 80021ae:	d40f      	bmi.n	80021d0 <HAL_UART_IRQHandler+0xd8>
 80021b0:	0651      	lsls	r1, r2, #25
 80021b2:	d5f7      	bpl.n	80021a4 <HAL_UART_IRQHandler+0xac>
 80021b4:	066a      	lsls	r2, r5, #25
 80021b6:	d5f5      	bpl.n	80021a4 <HAL_UART_IRQHandler+0xac>
 80021b8:	681a      	ldr	r2, [r3, #0]
 80021ba:	2520      	movs	r5, #32
 80021bc:	2100      	movs	r1, #0
 80021be:	4620      	mov	r0, r4
 80021c0:	f022 0240 	bic.w	r2, r2, #64	; 0x40
 80021c4:	601a      	str	r2, [r3, #0]
 80021c6:	6765      	str	r5, [r4, #116]	; 0x74
 80021c8:	6661      	str	r1, [r4, #100]	; 0x64
 80021ca:	f7ff ff37 	bl	800203c <HAL_UART_TxCpltCallback>
 80021ce:	bd70      	pop	{r4, r5, r6, pc}
 80021d0:	0628      	lsls	r0, r5, #24
 80021d2:	d5ed      	bpl.n	80021b0 <HAL_UART_IRQHandler+0xb8>
 80021d4:	6e63      	ldr	r3, [r4, #100]	; 0x64
 80021d6:	2b00      	cmp	r3, #0
 80021d8:	d0e4      	beq.n	80021a4 <HAL_UART_IRQHandler+0xac>
 80021da:	4620      	mov	r0, r4
 80021dc:	e8bd 4070 	ldmia.w	sp!, {r4, r5, r6, lr}
 80021e0:	4718      	bx	r3
 80021e2:	2900      	cmp	r1, #0
 80021e4:	d0a3      	beq.n	800212e <HAL_UART_IRQHandler+0x36>
 80021e6:	2002      	movs	r0, #2
 80021e8:	0756      	lsls	r6, r2, #29
 80021ea:	6218      	str	r0, [r3, #32]
 80021ec:	6fe0      	ldr	r0, [r4, #124]	; 0x7c
 80021ee:	f040 0004 	orr.w	r0, r0, #4
 80021f2:	67e0      	str	r0, [r4, #124]	; 0x7c
 80021f4:	d59b      	bpl.n	800212e <HAL_UART_IRQHandler+0x36>
 80021f6:	2004      	movs	r0, #4
 80021f8:	6218      	str	r0, [r3, #32]
 80021fa:	6fe0      	ldr	r0, [r4, #124]	; 0x7c
 80021fc:	f040 0002 	orr.w	r0, r0, #2
 8002200:	67e0      	str	r0, [r4, #124]	; 0x7c
 8002202:	e794      	b.n	800212e <HAL_UART_IRQHandler+0x36>
 8002204:	2108      	movs	r1, #8
 8002206:	6219      	str	r1, [r3, #32]
 8002208:	6fe1      	ldr	r1, [r4, #124]	; 0x7c
 800220a:	f041 0108 	orr.w	r1, r1, #8
 800220e:	67e1      	str	r1, [r4, #124]	; 0x7c
 8002210:	e793      	b.n	800213a <HAL_UART_IRQHandler+0x42>
 8002212:	4620      	mov	r0, r4
 8002214:	f7ff ff6e 	bl	80020f4 <HAL_UART_ErrorCallback>
 8002218:	bd70      	pop	{r4, r5, r6, pc}
 800221a:	6e22      	ldr	r2, [r4, #96]	; 0x60
 800221c:	2a00      	cmp	r2, #0
 800221e:	d093      	beq.n	8002148 <HAL_UART_IRQHandler+0x50>
 8002220:	4620      	mov	r0, r4
 8002222:	4790      	blx	r2
 8002224:	6823      	ldr	r3, [r4, #0]
 8002226:	e78f      	b.n	8002148 <HAL_UART_IRQHandler+0x50>
 8002228:	4620      	mov	r0, r4
 800222a:	f7ff ff63 	bl	80020f4 <HAL_UART_ErrorCallback>
 800222e:	67e5      	str	r5, [r4, #124]	; 0x7c
 8002230:	bd70      	pop	{r4, r5, r6, pc}
 8002232:	bf00      	nop
 8002234:	08002239 	.word	0x08002239

08002238 <UART_DMAAbortOnError>:
 8002238:	b508      	push	{r3, lr}
 800223a:	2200      	movs	r2, #0
 800223c:	6b83      	ldr	r3, [r0, #56]	; 0x38
 800223e:	f8a3 205a 	strh.w	r2, [r3, #90]	; 0x5a
 8002242:	4618      	mov	r0, r3
 8002244:	f8a3 2052 	strh.w	r2, [r3, #82]	; 0x52
 8002248:	f7ff ff54 	bl	80020f4 <HAL_UART_ErrorCallback>
 800224c:	bd08      	pop	{r3, pc}
 800224e:	bf00      	nop

08002250 <UART_AdvFeatureConfig>:
 8002250:	6a43      	ldr	r3, [r0, #36]	; 0x24
 8002252:	07da      	lsls	r2, r3, #31
 8002254:	b410      	push	{r4}
 8002256:	d506      	bpl.n	8002266 <UART_AdvFeatureConfig+0x16>
 8002258:	6801      	ldr	r1, [r0, #0]
 800225a:	6a84      	ldr	r4, [r0, #40]	; 0x28
 800225c:	684a      	ldr	r2, [r1, #4]
 800225e:	f422 3200 	bic.w	r2, r2, #131072	; 0x20000
 8002262:	4322      	orrs	r2, r4
 8002264:	604a      	str	r2, [r1, #4]
 8002266:	079c      	lsls	r4, r3, #30
 8002268:	d506      	bpl.n	8002278 <UART_AdvFeatureConfig+0x28>
 800226a:	6801      	ldr	r1, [r0, #0]
 800226c:	6ac4      	ldr	r4, [r0, #44]	; 0x2c
 800226e:	684a      	ldr	r2, [r1, #4]
 8002270:	f422 3280 	bic.w	r2, r2, #65536	; 0x10000
 8002274:	4322      	orrs	r2, r4
 8002276:	604a      	str	r2, [r1, #4]
 8002278:	0759      	lsls	r1, r3, #29
 800227a:	d506      	bpl.n	800228a <UART_AdvFeatureConfig+0x3a>
 800227c:	6801      	ldr	r1, [r0, #0]
 800227e:	6b04      	ldr	r4, [r0, #48]	; 0x30
 8002280:	684a      	ldr	r2, [r1, #4]
 8002282:	f422 2280 	bic.w	r2, r2, #262144	; 0x40000
 8002286:	4322      	orrs	r2, r4
 8002288:	604a      	str	r2, [r1, #4]
 800228a:	071a      	lsls	r2, r3, #28
 800228c:	d506      	bpl.n	800229c <UART_AdvFeatureConfig+0x4c>
 800228e:	6801      	ldr	r1, [r0, #0]
 8002290:	6b44      	ldr	r4, [r0, #52]	; 0x34
 8002292:	684a      	ldr	r2, [r1, #4]
 8002294:	f422 4200 	bic.w	r2, r2, #32768	; 0x8000
 8002298:	4322      	orrs	r2, r4
 800229a:	604a      	str	r2, [r1, #4]
 800229c:	06dc      	lsls	r4, r3, #27
 800229e:	d506      	bpl.n	80022ae <UART_AdvFeatureConfig+0x5e>
 80022a0:	6801      	ldr	r1, [r0, #0]
 80022a2:	6b84      	ldr	r4, [r0, #56]	; 0x38
 80022a4:	688a      	ldr	r2, [r1, #8]
 80022a6:	f422 5280 	bic.w	r2, r2, #4096	; 0x1000
 80022aa:	4322      	orrs	r2, r4
 80022ac:	608a      	str	r2, [r1, #8]
 80022ae:	0699      	lsls	r1, r3, #26
 80022b0:	d506      	bpl.n	80022c0 <UART_AdvFeatureConfig+0x70>
 80022b2:	6801      	ldr	r1, [r0, #0]
 80022b4:	6bc4      	ldr	r4, [r0, #60]	; 0x3c
 80022b6:	688a      	ldr	r2, [r1, #8]
 80022b8:	f422 5200 	bic.w	r2, r2, #8192	; 0x2000
 80022bc:	4322      	orrs	r2, r4
 80022be:	608a      	str	r2, [r1, #8]
 80022c0:	065a      	lsls	r2, r3, #25
 80022c2:	d50a      	bpl.n	80022da <UART_AdvFeatureConfig+0x8a>
 80022c4:	6801      	ldr	r1, [r0, #0]
 80022c6:	6c04      	ldr	r4, [r0, #64]	; 0x40
 80022c8:	684a      	ldr	r2, [r1, #4]
 80022ca:	f5b4 1f80 	cmp.w	r4, #1048576	; 0x100000
 80022ce:	f422 1280 	bic.w	r2, r2, #1048576	; 0x100000
 80022d2:	ea42 0204 	orr.w	r2, r2, r4
 80022d6:	604a      	str	r2, [r1, #4]
 80022d8:	d00b      	beq.n	80022f2 <UART_AdvFeatureConfig+0xa2>
 80022da:	061b      	lsls	r3, r3, #24
 80022dc:	d506      	bpl.n	80022ec <UART_AdvFeatureConfig+0x9c>
 80022de:	6802      	ldr	r2, [r0, #0]
 80022e0:	6c81      	ldr	r1, [r0, #72]	; 0x48
 80022e2:	6853      	ldr	r3, [r2, #4]
 80022e4:	f423 2300 	bic.w	r3, r3, #524288	; 0x80000
 80022e8:	430b      	orrs	r3, r1
 80022ea:	6053      	str	r3, [r2, #4]
 80022ec:	f85d 4b04 	ldr.w	r4, [sp], #4
 80022f0:	4770      	bx	lr
 80022f2:	684a      	ldr	r2, [r1, #4]
 80022f4:	6c44      	ldr	r4, [r0, #68]	; 0x44
 80022f6:	f422 02c0 	bic.w	r2, r2, #6291456	; 0x600000
 80022fa:	4322      	orrs	r2, r4
 80022fc:	604a      	str	r2, [r1, #4]
 80022fe:	e7ec      	b.n	80022da <UART_AdvFeatureConfig+0x8a>

08002300 <HAL_UART_Init>:
 8002300:	2800      	cmp	r0, #0
 8002302:	d04f      	beq.n	80023a4 <HAL_UART_Init+0xa4>
 8002304:	6f43      	ldr	r3, [r0, #116]	; 0x74
 8002306:	b570      	push	{r4, r5, r6, lr}
 8002308:	4604      	mov	r4, r0
 800230a:	2b00      	cmp	r3, #0
 800230c:	d045      	beq.n	800239a <HAL_UART_Init+0x9a>
 800230e:	6823      	ldr	r3, [r4, #0]
 8002310:	2124      	movs	r1, #36	; 0x24
 8002312:	6920      	ldr	r0, [r4, #16]
 8002314:	6761      	str	r1, [r4, #116]	; 0x74
 8002316:	68a2      	ldr	r2, [r4, #8]
 8002318:	6819      	ldr	r1, [r3, #0]
 800231a:	4302      	orrs	r2, r0
 800231c:	6960      	ldr	r0, [r4, #20]
 800231e:	f021 0101 	bic.w	r1, r1, #1
 8002322:	4dbe      	ldr	r5, [pc, #760]	; (800261c <HAL_UART_Init+0x31c>)
 8002324:	4302      	orrs	r2, r0
 8002326:	69e0      	ldr	r0, [r4, #28]
 8002328:	6019      	str	r1, [r3, #0]
 800232a:	6819      	ldr	r1, [r3, #0]
 800232c:	4302      	orrs	r2, r0
 800232e:	68e6      	ldr	r6, [r4, #12]
 8002330:	400d      	ands	r5, r1
 8002332:	69a1      	ldr	r1, [r4, #24]
 8002334:	432a      	orrs	r2, r5
 8002336:	6a25      	ldr	r5, [r4, #32]
 8002338:	601a      	str	r2, [r3, #0]
 800233a:	ea41 0205 	orr.w	r2, r1, r5
 800233e:	6859      	ldr	r1, [r3, #4]
 8002340:	4db7      	ldr	r5, [pc, #732]	; (8002620 <HAL_UART_Init+0x320>)
 8002342:	f421 5140 	bic.w	r1, r1, #12288	; 0x3000
 8002346:	42ab      	cmp	r3, r5
 8002348:	ea41 0106 	orr.w	r1, r1, r6
 800234c:	6059      	str	r1, [r3, #4]
 800234e:	6899      	ldr	r1, [r3, #8]
 8002350:	f421 6130 	bic.w	r1, r1, #2816	; 0xb00
 8002354:	ea42 0201 	orr.w	r2, r2, r1
 8002358:	609a      	str	r2, [r3, #8]
 800235a:	d025      	beq.n	80023a8 <HAL_UART_Init+0xa8>
 800235c:	4ab1      	ldr	r2, [pc, #708]	; (8002624 <HAL_UART_Init+0x324>)
 800235e:	4293      	cmp	r3, r2
 8002360:	d044      	beq.n	80023ec <HAL_UART_Init+0xec>
 8002362:	4ab1      	ldr	r2, [pc, #708]	; (8002628 <HAL_UART_Init+0x328>)
 8002364:	4293      	cmp	r3, r2
 8002366:	f000 80d3 	beq.w	8002510 <HAL_UART_Init+0x210>
 800236a:	4ab0      	ldr	r2, [pc, #704]	; (800262c <HAL_UART_Init+0x32c>)
 800236c:	4293      	cmp	r3, r2
 800236e:	d045      	beq.n	80023fc <HAL_UART_Init+0xfc>
 8002370:	4aaf      	ldr	r2, [pc, #700]	; (8002630 <HAL_UART_Init+0x330>)
 8002372:	4293      	cmp	r3, r2
 8002374:	f000 80e1 	beq.w	800253a <HAL_UART_Init+0x23a>
 8002378:	4aae      	ldr	r2, [pc, #696]	; (8002634 <HAL_UART_Init+0x334>)
 800237a:	4293      	cmp	r3, r2
 800237c:	f000 816a 	beq.w	8002654 <HAL_UART_Init+0x354>
 8002380:	4aad      	ldr	r2, [pc, #692]	; (8002638 <HAL_UART_Init+0x338>)
 8002382:	4293      	cmp	r3, r2
 8002384:	f000 8179 	beq.w	800267a <HAL_UART_Init+0x37a>
 8002388:	4aac      	ldr	r2, [pc, #688]	; (800263c <HAL_UART_Init+0x33c>)
 800238a:	4293      	cmp	r3, r2
 800238c:	f000 8135 	beq.w	80025fa <HAL_UART_Init+0x2fa>
 8002390:	2300      	movs	r3, #0
 8002392:	2001      	movs	r0, #1
 8002394:	e9c4 3318 	strd	r3, r3, [r4, #96]	; 0x60
 8002398:	bd70      	pop	{r4, r5, r6, pc}
 800239a:	f880 3070 	strb.w	r3, [r0, #112]	; 0x70
 800239e:	f000 fd6d 	bl	8002e7c <HAL_UART_MspInit>
 80023a2:	e7b4      	b.n	800230e <HAL_UART_Init+0xe>
 80023a4:	2001      	movs	r0, #1
 80023a6:	4770      	bx	lr
 80023a8:	4ba5      	ldr	r3, [pc, #660]	; (8002640 <HAL_UART_Init+0x340>)
 80023aa:	4aa6      	ldr	r2, [pc, #664]	; (8002644 <HAL_UART_Init+0x344>)
 80023ac:	f8d3 3090 	ldr.w	r3, [r3, #144]	; 0x90
 80023b0:	f003 0303 	and.w	r3, r3, #3
 80023b4:	5cd3      	ldrb	r3, [r2, r3]
 80023b6:	f5b0 4f00 	cmp.w	r0, #32768	; 0x8000
 80023ba:	d02f      	beq.n	800241c <HAL_UART_Init+0x11c>
 80023bc:	2b08      	cmp	r3, #8
 80023be:	d8e7      	bhi.n	8002390 <HAL_UART_Init+0x90>
 80023c0:	a201      	add	r2, pc, #4	; (adr r2, 80023c8 <HAL_UART_Init+0xc8>)
 80023c2:	f852 f023 	ldr.w	pc, [r2, r3, lsl #2]
 80023c6:	bf00      	nop
 80023c8:	080024ff 	.word	0x080024ff
 80023cc:	08002459 	.word	0x08002459
 80023d0:	0800252b 	.word	0x0800252b
 80023d4:	08002391 	.word	0x08002391
 80023d8:	08002551 	.word	0x08002551
 80023dc:	08002391 	.word	0x08002391
 80023e0:	08002391 	.word	0x08002391
 80023e4:	08002391 	.word	0x08002391
 80023e8:	08002563 	.word	0x08002563
 80023ec:	4b94      	ldr	r3, [pc, #592]	; (8002640 <HAL_UART_Init+0x340>)
 80023ee:	4a96      	ldr	r2, [pc, #600]	; (8002648 <HAL_UART_Init+0x348>)
 80023f0:	f8d3 3090 	ldr.w	r3, [r3, #144]	; 0x90
 80023f4:	f003 030c 	and.w	r3, r3, #12
 80023f8:	5cd3      	ldrb	r3, [r2, r3]
 80023fa:	e7dc      	b.n	80023b6 <HAL_UART_Init+0xb6>
 80023fc:	4b90      	ldr	r3, [pc, #576]	; (8002640 <HAL_UART_Init+0x340>)
 80023fe:	f8d3 3090 	ldr.w	r3, [r3, #144]	; 0x90
 8002402:	f003 03c0 	and.w	r3, r3, #192	; 0xc0
 8002406:	2b40      	cmp	r3, #64	; 0x40
 8002408:	f000 809f 	beq.w	800254a <HAL_UART_Init+0x24a>
 800240c:	d971      	bls.n	80024f2 <HAL_UART_Init+0x1f2>
 800240e:	2b80      	cmp	r3, #128	; 0x80
 8002410:	f000 8088 	beq.w	8002524 <HAL_UART_Init+0x224>
 8002414:	2bc0      	cmp	r3, #192	; 0xc0
 8002416:	f000 80b9 	beq.w	800258c <HAL_UART_Init+0x28c>
 800241a:	e7b9      	b.n	8002390 <HAL_UART_Init+0x90>
 800241c:	2b08      	cmp	r3, #8
 800241e:	d8b7      	bhi.n	8002390 <HAL_UART_Init+0x90>
 8002420:	a201      	add	r2, pc, #4	; (adr r2, 8002428 <HAL_UART_Init+0x128>)
 8002422:	f852 f023 	ldr.w	pc, [r2, r3, lsl #2]
 8002426:	bf00      	nop
 8002428:	080025f5 	.word	0x080025f5
 800242c:	080025cb 	.word	0x080025cb
 8002430:	080025e5 	.word	0x080025e5
 8002434:	08002391 	.word	0x08002391
 8002438:	080025df 	.word	0x080025df
 800243c:	08002391 	.word	0x08002391
 8002440:	08002391 	.word	0x08002391
 8002444:	08002391 	.word	0x08002391
 8002448:	08002593 	.word	0x08002593
 800244c:	2b00      	cmp	r3, #0
 800244e:	d19f      	bne.n	8002390 <HAL_UART_Init+0x90>
 8002450:	f5b0 4f00 	cmp.w	r0, #32768	; 0x8000
 8002454:	f000 80b9 	beq.w	80025ca <HAL_UART_Init+0x2ca>
 8002458:	f7ff fa44 	bl	80018e4 <HAL_RCC_GetPCLK2Freq>
 800245c:	6863      	ldr	r3, [r4, #4]
 800245e:	eb00 0253 	add.w	r2, r0, r3, lsr #1
 8002462:	fbb2 f2f3 	udiv	r2, r2, r3
 8002466:	b292      	uxth	r2, r2
 8002468:	f1a2 0110 	sub.w	r1, r2, #16
 800246c:	f64f 73ef 	movw	r3, #65519	; 0xffef
 8002470:	4299      	cmp	r1, r3
 8002472:	d88d      	bhi.n	8002390 <HAL_UART_Init+0x90>
 8002474:	6823      	ldr	r3, [r4, #0]
 8002476:	2100      	movs	r1, #0
 8002478:	60da      	str	r2, [r3, #12]
 800247a:	e9c4 1118 	strd	r1, r1, [r4, #96]	; 0x60
 800247e:	6a62      	ldr	r2, [r4, #36]	; 0x24
 8002480:	2a00      	cmp	r2, #0
 8002482:	d176      	bne.n	8002572 <HAL_UART_Init+0x272>
 8002484:	685a      	ldr	r2, [r3, #4]
 8002486:	2100      	movs	r1, #0
 8002488:	f422 4290 	bic.w	r2, r2, #18432	; 0x4800
 800248c:	605a      	str	r2, [r3, #4]
 800248e:	689a      	ldr	r2, [r3, #8]
 8002490:	f022 022a 	bic.w	r2, r2, #42	; 0x2a
 8002494:	609a      	str	r2, [r3, #8]
 8002496:	681a      	ldr	r2, [r3, #0]
 8002498:	f042 0201 	orr.w	r2, r2, #1
 800249c:	601a      	str	r2, [r3, #0]
 800249e:	67e1      	str	r1, [r4, #124]	; 0x7c
 80024a0:	f7fe fd5e 	bl	8000f60 <HAL_GetTick>
 80024a4:	6823      	ldr	r3, [r4, #0]
 80024a6:	4606      	mov	r6, r0
 80024a8:	681a      	ldr	r2, [r3, #0]
 80024aa:	0712      	lsls	r2, r2, #28
 80024ac:	d407      	bmi.n	80024be <HAL_UART_Init+0x1be>
 80024ae:	2220      	movs	r2, #32
 80024b0:	2300      	movs	r3, #0
 80024b2:	6762      	str	r2, [r4, #116]	; 0x74
 80024b4:	4618      	mov	r0, r3
 80024b6:	67a2      	str	r2, [r4, #120]	; 0x78
 80024b8:	f884 3070 	strb.w	r3, [r4, #112]	; 0x70
 80024bc:	bd70      	pop	{r4, r5, r6, pc}
 80024be:	69dd      	ldr	r5, [r3, #28]
 80024c0:	f415 1500 	ands.w	r5, r5, #2097152	; 0x200000
 80024c4:	d1f3      	bne.n	80024ae <HAL_UART_Init+0x1ae>
 80024c6:	f7fe fd4b 	bl	8000f60 <HAL_GetTick>
 80024ca:	1b80      	subs	r0, r0, r6
 80024cc:	6823      	ldr	r3, [r4, #0]
 80024ce:	f1b0 7f00 	cmp.w	r0, #33554432	; 0x2000000
 80024d2:	d3f4      	bcc.n	80024be <HAL_UART_Init+0x1be>
 80024d4:	681a      	ldr	r2, [r3, #0]
 80024d6:	2120      	movs	r1, #32
 80024d8:	2003      	movs	r0, #3
 80024da:	f422 72d0 	bic.w	r2, r2, #416	; 0x1a0
 80024de:	601a      	str	r2, [r3, #0]
 80024e0:	689a      	ldr	r2, [r3, #8]
 80024e2:	f022 0201 	bic.w	r2, r2, #1
 80024e6:	609a      	str	r2, [r3, #8]
 80024e8:	6761      	str	r1, [r4, #116]	; 0x74
 80024ea:	f884 5070 	strb.w	r5, [r4, #112]	; 0x70
 80024ee:	67a1      	str	r1, [r4, #120]	; 0x78
 80024f0:	bd70      	pop	{r4, r5, r6, pc}
 80024f2:	2b00      	cmp	r3, #0
 80024f4:	f47f af4c 	bne.w	8002390 <HAL_UART_Init+0x90>
 80024f8:	f5b0 4f00 	cmp.w	r0, #32768	; 0x8000
 80024fc:	d07a      	beq.n	80025f4 <HAL_UART_Init+0x2f4>
 80024fe:	f7ff f9e1 	bl	80018c4 <HAL_RCC_GetPCLK1Freq>
 8002502:	6863      	ldr	r3, [r4, #4]
 8002504:	eb00 0253 	add.w	r2, r0, r3, lsr #1
 8002508:	fbb2 f2f3 	udiv	r2, r2, r3
 800250c:	b292      	uxth	r2, r2
 800250e:	e7ab      	b.n	8002468 <HAL_UART_Init+0x168>
 8002510:	4b4b      	ldr	r3, [pc, #300]	; (8002640 <HAL_UART_Init+0x340>)
 8002512:	f8d3 3090 	ldr.w	r3, [r3, #144]	; 0x90
 8002516:	f003 0330 	and.w	r3, r3, #48	; 0x30
 800251a:	2b10      	cmp	r3, #16
 800251c:	d015      	beq.n	800254a <HAL_UART_Init+0x24a>
 800251e:	d9e8      	bls.n	80024f2 <HAL_UART_Init+0x1f2>
 8002520:	2b20      	cmp	r3, #32
 8002522:	d14f      	bne.n	80025c4 <HAL_UART_Init+0x2c4>
 8002524:	f5b0 4f00 	cmp.w	r0, #32768	; 0x8000
 8002528:	d05c      	beq.n	80025e4 <HAL_UART_Init+0x2e4>
 800252a:	6863      	ldr	r3, [r4, #4]
 800252c:	4a47      	ldr	r2, [pc, #284]	; (800264c <HAL_UART_Init+0x34c>)
 800252e:	eb02 0253 	add.w	r2, r2, r3, lsr #1
 8002532:	fbb2 f2f3 	udiv	r2, r2, r3
 8002536:	b292      	uxth	r2, r2
 8002538:	e796      	b.n	8002468 <HAL_UART_Init+0x168>
 800253a:	4b41      	ldr	r3, [pc, #260]	; (8002640 <HAL_UART_Init+0x340>)
 800253c:	f8d3 3090 	ldr.w	r3, [r3, #144]	; 0x90
 8002540:	f403 7340 	and.w	r3, r3, #768	; 0x300
 8002544:	f5b3 7f80 	cmp.w	r3, #256	; 0x100
 8002548:	d118      	bne.n	800257c <HAL_UART_Init+0x27c>
 800254a:	f5b0 4f00 	cmp.w	r0, #32768	; 0x8000
 800254e:	d046      	beq.n	80025de <HAL_UART_Init+0x2de>
 8002550:	f7ff f984 	bl	800185c <HAL_RCC_GetSysClockFreq>
 8002554:	6863      	ldr	r3, [r4, #4]
 8002556:	eb00 0253 	add.w	r2, r0, r3, lsr #1
 800255a:	fbb2 f2f3 	udiv	r2, r2, r3
 800255e:	b292      	uxth	r2, r2
 8002560:	e782      	b.n	8002468 <HAL_UART_Init+0x168>
 8002562:	6863      	ldr	r3, [r4, #4]
 8002564:	085a      	lsrs	r2, r3, #1
 8002566:	f502 4200 	add.w	r2, r2, #32768	; 0x8000
 800256a:	fbb2 f2f3 	udiv	r2, r2, r3
 800256e:	b292      	uxth	r2, r2
 8002570:	e77a      	b.n	8002468 <HAL_UART_Init+0x168>
 8002572:	4620      	mov	r0, r4
 8002574:	f7ff fe6c 	bl	8002250 <UART_AdvFeatureConfig>
 8002578:	6823      	ldr	r3, [r4, #0]
 800257a:	e783      	b.n	8002484 <HAL_UART_Init+0x184>
 800257c:	d9b9      	bls.n	80024f2 <HAL_UART_Init+0x1f2>
 800257e:	f5b3 7f00 	cmp.w	r3, #512	; 0x200
 8002582:	d0cf      	beq.n	8002524 <HAL_UART_Init+0x224>
 8002584:	f5b3 7f40 	cmp.w	r3, #768	; 0x300
 8002588:	f47f af02 	bne.w	8002390 <HAL_UART_Init+0x90>
 800258c:	f5b0 4f00 	cmp.w	r0, #32768	; 0x8000
 8002590:	d1e7      	bne.n	8002562 <HAL_UART_Init+0x262>
 8002592:	6862      	ldr	r2, [r4, #4]
 8002594:	0853      	lsrs	r3, r2, #1
 8002596:	f503 3380 	add.w	r3, r3, #65536	; 0x10000
 800259a:	fbb3 f3f2 	udiv	r3, r3, r2
 800259e:	b29b      	uxth	r3, r3
 80025a0:	f1a3 0110 	sub.w	r1, r3, #16
 80025a4:	f64f 72ef 	movw	r2, #65519	; 0xffef
 80025a8:	4291      	cmp	r1, r2
 80025aa:	f63f aef1 	bhi.w	8002390 <HAL_UART_Init+0x90>
 80025ae:	f023 010f 	bic.w	r1, r3, #15
 80025b2:	f3c3 0242 	ubfx	r2, r3, #1, #3
 80025b6:	2000      	movs	r0, #0
 80025b8:	6823      	ldr	r3, [r4, #0]
 80025ba:	430a      	orrs	r2, r1
 80025bc:	60da      	str	r2, [r3, #12]
 80025be:	e9c4 0018 	strd	r0, r0, [r4, #96]	; 0x60
 80025c2:	e75c      	b.n	800247e <HAL_UART_Init+0x17e>
 80025c4:	2b30      	cmp	r3, #48	; 0x30
 80025c6:	d0e1      	beq.n	800258c <HAL_UART_Init+0x28c>
 80025c8:	e6e2      	b.n	8002390 <HAL_UART_Init+0x90>
 80025ca:	f7ff f98b 	bl	80018e4 <HAL_RCC_GetPCLK2Freq>
 80025ce:	6862      	ldr	r2, [r4, #4]
 80025d0:	0853      	lsrs	r3, r2, #1
 80025d2:	eb03 0340 	add.w	r3, r3, r0, lsl #1
 80025d6:	fbb3 f3f2 	udiv	r3, r3, r2
 80025da:	b29b      	uxth	r3, r3
 80025dc:	e7e0      	b.n	80025a0 <HAL_UART_Init+0x2a0>
 80025de:	f7ff f93d 	bl	800185c <HAL_RCC_GetSysClockFreq>
 80025e2:	e7f4      	b.n	80025ce <HAL_UART_Init+0x2ce>
 80025e4:	6862      	ldr	r2, [r4, #4]
 80025e6:	4b1a      	ldr	r3, [pc, #104]	; (8002650 <HAL_UART_Init+0x350>)
 80025e8:	eb03 0352 	add.w	r3, r3, r2, lsr #1
 80025ec:	fbb3 f3f2 	udiv	r3, r3, r2
 80025f0:	b29b      	uxth	r3, r3
 80025f2:	e7d5      	b.n	80025a0 <HAL_UART_Init+0x2a0>
 80025f4:	f7ff f966 	bl	80018c4 <HAL_RCC_GetPCLK1Freq>
 80025f8:	e7e9      	b.n	80025ce <HAL_UART_Init+0x2ce>
 80025fa:	4b11      	ldr	r3, [pc, #68]	; (8002640 <HAL_UART_Init+0x340>)
 80025fc:	f8d3 3090 	ldr.w	r3, [r3, #144]	; 0x90
 8002600:	f403 4340 	and.w	r3, r3, #49152	; 0xc000
 8002604:	f5b3 4f80 	cmp.w	r3, #16384	; 0x4000
 8002608:	d09f      	beq.n	800254a <HAL_UART_Init+0x24a>
 800260a:	f67f af72 	bls.w	80024f2 <HAL_UART_Init+0x1f2>
 800260e:	f5b3 4f00 	cmp.w	r3, #32768	; 0x8000
 8002612:	d087      	beq.n	8002524 <HAL_UART_Init+0x224>
 8002614:	f5b3 4f40 	cmp.w	r3, #49152	; 0xc000
 8002618:	d0b8      	beq.n	800258c <HAL_UART_Init+0x28c>
 800261a:	e6b9      	b.n	8002390 <HAL_UART_Init+0x90>
 800261c:	efff69f3 	.word	0xefff69f3
 8002620:	40011000 	.word	0x40011000
 8002624:	40004400 	.word	0x40004400
 8002628:	40004800 	.word	0x40004800
 800262c:	40004c00 	.word	0x40004c00
 8002630:	40005000 	.word	0x40005000
 8002634:	40011400 	.word	0x40011400
 8002638:	40007800 	.word	0x40007800
 800263c:	40007c00 	.word	0x40007c00
 8002640:	40023800 	.word	0x40023800
 8002644:	08007650 	.word	0x08007650
 8002648:	08007654 	.word	0x08007654
 800264c:	00f42400 	.word	0x00f42400
 8002650:	01e84800 	.word	0x01e84800
 8002654:	4b13      	ldr	r3, [pc, #76]	; (80026a4 <HAL_UART_Init+0x3a4>)
 8002656:	f8d3 3090 	ldr.w	r3, [r3, #144]	; 0x90
 800265a:	f403 6340 	and.w	r3, r3, #3072	; 0xc00
 800265e:	f5b3 6f80 	cmp.w	r3, #1024	; 0x400
 8002662:	f43f af72 	beq.w	800254a <HAL_UART_Init+0x24a>
 8002666:	f67f aef1 	bls.w	800244c <HAL_UART_Init+0x14c>
 800266a:	f5b3 6f00 	cmp.w	r3, #2048	; 0x800
 800266e:	f43f af59 	beq.w	8002524 <HAL_UART_Init+0x224>
 8002672:	f5b3 6f40 	cmp.w	r3, #3072	; 0xc00
 8002676:	d089      	beq.n	800258c <HAL_UART_Init+0x28c>
 8002678:	e68a      	b.n	8002390 <HAL_UART_Init+0x90>
 800267a:	4b0a      	ldr	r3, [pc, #40]	; (80026a4 <HAL_UART_Init+0x3a4>)
 800267c:	f8d3 3090 	ldr.w	r3, [r3, #144]	; 0x90
 8002680:	f403 5340 	and.w	r3, r3, #12288	; 0x3000
 8002684:	f5b3 5f80 	cmp.w	r3, #4096	; 0x1000
 8002688:	f43f af5f 	beq.w	800254a <HAL_UART_Init+0x24a>
 800268c:	f67f af31 	bls.w	80024f2 <HAL_UART_Init+0x1f2>
 8002690:	f5b3 5f00 	cmp.w	r3, #8192	; 0x2000
 8002694:	f43f af46 	beq.w	8002524 <HAL_UART_Init+0x224>
 8002698:	f5b3 5f40 	cmp.w	r3, #12288	; 0x3000
 800269c:	f43f af76 	beq.w	800258c <HAL_UART_Init+0x28c>
 80026a0:	e676      	b.n	8002390 <HAL_UART_Init+0x90>
 80026a2:	bf00      	nop
 80026a4:	40023800 	.word	0x40023800

080026a8 <benchmark_neural_network>:
 80026a8:	b510      	push	{r4, lr}
 80026aa:	4c16      	ldr	r4, [pc, #88]	; (8002704 <benchmark_neural_network+0x5c>)
 80026ac:	2203      	movs	r2, #3
 80026ae:	4916      	ldr	r1, [pc, #88]	; (8002708 <benchmark_neural_network+0x60>)
 80026b0:	6963      	ldr	r3, [r4, #20]
 80026b2:	4816      	ldr	r0, [pc, #88]	; (800270c <benchmark_neural_network+0x64>)
 80026b4:	f043 0380 	orr.w	r3, r3, #128	; 0x80
 80026b8:	6163      	str	r3, [r4, #20]
 80026ba:	6963      	ldr	r3, [r4, #20]
 80026bc:	f023 0380 	bic.w	r3, r3, #128	; 0x80
 80026c0:	6163      	str	r3, [r4, #20]
 80026c2:	6963      	ldr	r3, [r4, #20]
 80026c4:	f043 0380 	orr.w	r3, r3, #128	; 0x80
 80026c8:	6163      	str	r3, [r4, #20]
 80026ca:	6963      	ldr	r3, [r4, #20]
 80026cc:	f023 0380 	bic.w	r3, r3, #128	; 0x80
 80026d0:	6163      	str	r3, [r4, #20]
 80026d2:	6963      	ldr	r3, [r4, #20]
 80026d4:	f043 0380 	orr.w	r3, r3, #128	; 0x80
 80026d8:	6163      	str	r3, [r4, #20]
 80026da:	f000 fb3d 	bl	8002d58 <dot>
 80026de:	f000 fb61 	bl	8002da4 <sigmoid>
 80026e2:	6963      	ldr	r3, [r4, #20]
 80026e4:	4a0a      	ldr	r2, [pc, #40]	; (8002710 <benchmark_neural_network+0x68>)
 80026e6:	f023 0380 	bic.w	r3, r3, #128	; 0x80
 80026ea:	6163      	str	r3, [r4, #20]
 80026ec:	6813      	ldr	r3, [r2, #0]
 80026ee:	07db      	lsls	r3, r3, #31
 80026f0:	d400      	bmi.n	80026f4 <benchmark_neural_network+0x4c>
 80026f2:	bd10      	pop	{r4, pc}
 80026f4:	4807      	ldr	r0, [pc, #28]	; (8002714 <benchmark_neural_network+0x6c>)
 80026f6:	ec53 2b10 	vmov	r2, r3, d0
 80026fa:	e8bd 4010 	ldmia.w	sp!, {r4, lr}
 80026fe:	f001 b933 	b.w	8003968 <printf>
 8002702:	bf00      	nop
 8002704:	40021800 	.word	0x40021800
 8002708:	200000f8 	.word	0x200000f8
 800270c:	20000030 	.word	0x20000030
 8002710:	200010b0 	.word	0x200010b0
 8002714:	08007664 	.word	0x08007664

08002718 <benchmark_neural_network2>:
 8002718:	4a16      	ldr	r2, [pc, #88]	; (8002774 <benchmark_neural_network2+0x5c>)
 800271a:	b5f0      	push	{r4, r5, r6, r7, lr}
 800271c:	6953      	ldr	r3, [r2, #20]
 800271e:	b0c1      	sub	sp, #260	; 0x104
 8002720:	4d15      	ldr	r5, [pc, #84]	; (8002778 <benchmark_neural_network2+0x60>)
 8002722:	f043 0380 	orr.w	r3, r3, #128	; 0x80
 8002726:	af40      	add	r7, sp, #256	; 0x100
 8002728:	466c      	mov	r4, sp
 800272a:	4e14      	ldr	r6, [pc, #80]	; (800277c <benchmark_neural_network2+0x64>)
 800272c:	6153      	str	r3, [r2, #20]
 800272e:	4629      	mov	r1, r5
 8002730:	2203      	movs	r2, #3
 8002732:	4630      	mov	r0, r6
 8002734:	3518      	adds	r5, #24
 8002736:	f000 fb0f 	bl	8002d58 <dot>
 800273a:	f000 fb33 	bl	8002da4 <sigmoid>
 800273e:	eca4 0b02 	vstmia	r4!, {d0}
 8002742:	42bc      	cmp	r4, r7
 8002744:	d1f3      	bne.n	800272e <benchmark_neural_network2+0x16>
 8002746:	2220      	movs	r2, #32
 8002748:	490d      	ldr	r1, [pc, #52]	; (8002780 <benchmark_neural_network2+0x68>)
 800274a:	4668      	mov	r0, sp
 800274c:	f000 fb04 	bl	8002d58 <dot>
 8002750:	f000 fb28 	bl	8002da4 <sigmoid>
 8002754:	4a07      	ldr	r2, [pc, #28]	; (8002774 <benchmark_neural_network2+0x5c>)
 8002756:	490b      	ldr	r1, [pc, #44]	; (8002784 <benchmark_neural_network2+0x6c>)
 8002758:	6953      	ldr	r3, [r2, #20]
 800275a:	f023 0380 	bic.w	r3, r3, #128	; 0x80
 800275e:	6153      	str	r3, [r2, #20]
 8002760:	680b      	ldr	r3, [r1, #0]
 8002762:	07db      	lsls	r3, r3, #31
 8002764:	d504      	bpl.n	8002770 <benchmark_neural_network2+0x58>
 8002766:	4808      	ldr	r0, [pc, #32]	; (8002788 <benchmark_neural_network2+0x70>)
 8002768:	ec53 2b10 	vmov	r2, r3, d0
 800276c:	f001 f8fc 	bl	8003968 <printf>
 8002770:	b041      	add	sp, #260	; 0x104
 8002772:	bdf0      	pop	{r4, r5, r6, r7, pc}
 8002774:	40021800 	.word	0x40021800
 8002778:	20000110 	.word	0x20000110
 800277c:	20000030 	.word	0x20000030
 8002780:	20000410 	.word	0x20000410
 8002784:	200010b0 	.word	0x200010b0
 8002788:	08007670 	.word	0x08007670

0800278c <SystemClock_Config>:
 800278c:	b570      	push	{r4, r5, r6, lr}
 800278e:	2400      	movs	r4, #0
 8002790:	b0b4      	sub	sp, #208	; 0xd0
 8002792:	2284      	movs	r2, #132	; 0x84
 8002794:	2502      	movs	r5, #2
 8002796:	4621      	mov	r1, r4
 8002798:	a813      	add	r0, sp, #76	; 0x4c
 800279a:	9408      	str	r4, [sp, #32]
 800279c:	9402      	str	r4, [sp, #8]
 800279e:	e9cd 4409 	strd	r4, r4, [sp, #36]	; 0x24
 80027a2:	e9cd 440b 	strd	r4, r4, [sp, #44]	; 0x2c
 80027a6:	e9cd 4403 	strd	r4, r4, [sp, #12]
 80027aa:	e9cd 4405 	strd	r4, r4, [sp, #20]
 80027ae:	f001 f8c7 	bl	8003940 <memset>
 80027b2:	4b1f      	ldr	r3, [pc, #124]	; (8002830 <SystemClock_Config+0xa4>)
 80027b4:	2001      	movs	r0, #1
 80027b6:	2110      	movs	r1, #16
 80027b8:	6c1a      	ldr	r2, [r3, #64]	; 0x40
 80027ba:	f042 5280 	orr.w	r2, r2, #268435456	; 0x10000000
 80027be:	641a      	str	r2, [r3, #64]	; 0x40
 80027c0:	6c1a      	ldr	r2, [r3, #64]	; 0x40
 80027c2:	f5a3 33e4 	sub.w	r3, r3, #116736	; 0x1c800
 80027c6:	f002 5280 	and.w	r2, r2, #268435456	; 0x10000000
 80027ca:	9200      	str	r2, [sp, #0]
 80027cc:	9a00      	ldr	r2, [sp, #0]
 80027ce:	681a      	ldr	r2, [r3, #0]
 80027d0:	f442 4240 	orr.w	r2, r2, #49152	; 0xc000
 80027d4:	601a      	str	r2, [r3, #0]
 80027d6:	2208      	movs	r2, #8
 80027d8:	681b      	ldr	r3, [r3, #0]
 80027da:	900a      	str	r0, [sp, #40]	; 0x28
 80027dc:	a807      	add	r0, sp, #28
 80027de:	f403 4340 	and.w	r3, r3, #49152	; 0xc000
 80027e2:	910b      	str	r1, [sp, #44]	; 0x2c
 80027e4:	940e      	str	r4, [sp, #56]	; 0x38
 80027e6:	9301      	str	r3, [sp, #4]
 80027e8:	f240 1327 	movw	r3, #295	; 0x127
 80027ec:	9e01      	ldr	r6, [sp, #4]
 80027ee:	260f      	movs	r6, #15
 80027f0:	9507      	str	r5, [sp, #28]
 80027f2:	950d      	str	r5, [sp, #52]	; 0x34
 80027f4:	e9cd 230f 	strd	r2, r3, [sp, #60]	; 0x3c
 80027f8:	e9cd 5511 	strd	r5, r5, [sp, #68]	; 0x44
 80027fc:	f7fe fd98 	bl	8001330 <HAL_RCC_OscConfig>
 8002800:	f7fe fd5a 	bl	80012b8 <HAL_PWREx_EnableOverDrive>
 8002804:	f44f 52c0 	mov.w	r2, #6144	; 0x1800
 8002808:	f44f 53a0 	mov.w	r3, #5120	; 0x1400
 800280c:	2107      	movs	r1, #7
 800280e:	a802      	add	r0, sp, #8
 8002810:	9503      	str	r5, [sp, #12]
 8002812:	9404      	str	r4, [sp, #16]
 8002814:	9602      	str	r6, [sp, #8]
 8002816:	e9cd 2305 	strd	r2, r3, [sp, #20]
 800281a:	f7fe ff55 	bl	80016c8 <HAL_RCC_ClockConfig>
 800281e:	f44f 6300 	mov.w	r3, #2048	; 0x800
 8002822:	a813      	add	r0, sp, #76	; 0x4c
 8002824:	9429      	str	r4, [sp, #164]	; 0xa4
 8002826:	9313      	str	r3, [sp, #76]	; 0x4c
 8002828:	f7ff f86c 	bl	8001904 <HAL_RCCEx_PeriphCLKConfig>
 800282c:	b034      	add	sp, #208	; 0xd0
 800282e:	bd70      	pop	{r4, r5, r6, pc}
 8002830:	40023800 	.word	0x40023800

08002834 <dbg_uart_parser>:
 8002834:	e92d 4ff0 	stmdb	sp!, {r4, r5, r6, r7, r8, r9, sl, fp, lr}
 8002838:	460b      	mov	r3, r1
 800283a:	2500      	movs	r5, #0
 800283c:	b0c1      	sub	sp, #260	; 0x104
 800283e:	2205      	movs	r2, #5
 8002840:	499f      	ldr	r1, [pc, #636]	; (8002ac0 <dbg_uart_parser+0x28c>)
 8002842:	4604      	mov	r4, r0
 8002844:	54c5      	strb	r5, [r0, r3]
 8002846:	f001 f909 	bl	8003a5c <strncmp>
 800284a:	2800      	cmp	r0, #0
 800284c:	d06c      	beq.n	8002928 <dbg_uart_parser+0xf4>
 800284e:	2206      	movs	r2, #6
 8002850:	499c      	ldr	r1, [pc, #624]	; (8002ac4 <dbg_uart_parser+0x290>)
 8002852:	4620      	mov	r0, r4
 8002854:	f001 f902 	bl	8003a5c <strncmp>
 8002858:	b360      	cbz	r0, 80028b4 <dbg_uart_parser+0x80>
 800285a:	4620      	mov	r0, r4
 800285c:	2204      	movs	r2, #4
 800285e:	499a      	ldr	r1, [pc, #616]	; (8002ac8 <dbg_uart_parser+0x294>)
 8002860:	f001 f8fc 	bl	8003a5c <strncmp>
 8002864:	bb18      	cbnz	r0, 80028ae <dbg_uart_parser+0x7a>
 8002866:	4b99      	ldr	r3, [pc, #612]	; (8002acc <dbg_uart_parser+0x298>)
 8002868:	681b      	ldr	r3, [r3, #0]
 800286a:	07db      	lsls	r3, r3, #31
 800286c:	f100 8099 	bmi.w	80029a2 <dbg_uart_parser+0x16e>
 8002870:	4c97      	ldr	r4, [pc, #604]	; (8002ad0 <dbg_uart_parser+0x29c>)
 8002872:	6822      	ldr	r2, [r4, #0]
 8002874:	42a2      	cmp	r2, r4
 8002876:	d01a      	beq.n	80028ae <dbg_uart_parser+0x7a>
 8002878:	4294      	cmp	r4, r2
 800287a:	f1a2 030c 	sub.w	r3, r2, #12
 800287e:	d016      	beq.n	80028ae <dbg_uart_parser+0x7a>
 8002880:	4a94      	ldr	r2, [pc, #592]	; (8002ad4 <dbg_uart_parser+0x2a0>)
 8002882:	6815      	ldr	r5, [r2, #0]
 8002884:	68a9      	ldr	r1, [r5, #8]
 8002886:	e004      	b.n	8002892 <dbg_uart_parser+0x5e>
 8002888:	68da      	ldr	r2, [r3, #12]
 800288a:	4294      	cmp	r4, r2
 800288c:	f1a2 030c 	sub.w	r3, r2, #12
 8002890:	d00d      	beq.n	80028ae <dbg_uart_parser+0x7a>
 8002892:	689a      	ldr	r2, [r3, #8]
 8002894:	4291      	cmp	r1, r2
 8002896:	d1f7      	bne.n	8002888 <dbg_uart_parser+0x54>
 8002898:	88a8      	ldrh	r0, [r5, #4]
 800289a:	889a      	ldrh	r2, [r3, #4]
 800289c:	4290      	cmp	r0, r2
 800289e:	d1f3      	bne.n	8002888 <dbg_uart_parser+0x54>
 80028a0:	691a      	ldr	r2, [r3, #16]
 80028a2:	4618      	mov	r0, r3
 80028a4:	68db      	ldr	r3, [r3, #12]
 80028a6:	605a      	str	r2, [r3, #4]
 80028a8:	6013      	str	r3, [r2, #0]
 80028aa:	f000 fe0b 	bl	80034c4 <free>
 80028ae:	b041      	add	sp, #260	; 0x104
 80028b0:	e8bd 8ff0 	ldmia.w	sp!, {r4, r5, r6, r7, r8, r9, sl, fp, pc}
 80028b4:	4d85      	ldr	r5, [pc, #532]	; (8002acc <dbg_uart_parser+0x298>)
 80028b6:	1da0      	adds	r0, r4, #6
 80028b8:	f000 fdce 	bl	8003458 <atoi>
 80028bc:	682b      	ldr	r3, [r5, #0]
 80028be:	07d9      	lsls	r1, r3, #31
 80028c0:	f100 8095 	bmi.w	80029ee <dbg_uart_parser+0x1ba>
 80028c4:	b2c0      	uxtb	r0, r0
 80028c6:	2801      	cmp	r0, #1
 80028c8:	f000 80bc 	beq.w	8002a44 <dbg_uart_parser+0x210>
 80028cc:	2802      	cmp	r0, #2
 80028ce:	d1ee      	bne.n	80028ae <dbg_uart_parser+0x7a>
 80028d0:	4c7f      	ldr	r4, [pc, #508]	; (8002ad0 <dbg_uart_parser+0x29c>)
 80028d2:	2300      	movs	r3, #0
 80028d4:	46e8      	mov	r8, sp
 80028d6:	f44f 62fa 	mov.w	r2, #2000	; 0x7d0
 80028da:	6825      	ldr	r5, [r4, #0]
 80028dc:	497e      	ldr	r1, [pc, #504]	; (8002ad8 <dbg_uart_parser+0x2a4>)
 80028de:	42a5      	cmp	r5, r4
 80028e0:	f8cd 300a 	str.w	r3, [sp, #10]
 80028e4:	f8cd 3006 	str.w	r3, [sp, #6]
 80028e8:	f8cd 300e 	str.w	r3, [sp, #14]
 80028ec:	f8ad 3012 	strh.w	r3, [sp, #18]
 80028f0:	f8c8 3000 	str.w	r3, [r8]
 80028f4:	f8a8 2004 	strh.w	r2, [r8, #4]
 80028f8:	f8c8 1008 	str.w	r1, [r8, #8]
 80028fc:	f000 80cb 	beq.w	8002a96 <dbg_uart_parser+0x262>
 8002900:	42ac      	cmp	r4, r5
 8002902:	f1a5 030c 	sub.w	r3, r5, #12
 8002906:	d106      	bne.n	8002916 <dbg_uart_parser+0xe2>
 8002908:	e0c5      	b.n	8002a96 <dbg_uart_parser+0x262>
 800290a:	68da      	ldr	r2, [r3, #12]
 800290c:	4294      	cmp	r4, r2
 800290e:	f1a2 030c 	sub.w	r3, r2, #12
 8002912:	f000 80c0 	beq.w	8002a96 <dbg_uart_parser+0x262>
 8002916:	689a      	ldr	r2, [r3, #8]
 8002918:	428a      	cmp	r2, r1
 800291a:	d1f6      	bne.n	800290a <dbg_uart_parser+0xd6>
 800291c:	889a      	ldrh	r2, [r3, #4]
 800291e:	f5b2 6ffa 	cmp.w	r2, #2000	; 0x7d0
 8002922:	d1f2      	bne.n	800290a <dbg_uart_parser+0xd6>
 8002924:	2600      	movs	r6, #0
 8002926:	e0c6      	b.n	8002ab6 <dbg_uart_parser+0x282>
 8002928:	f8df 91a0 	ldr.w	r9, [pc, #416]	; 8002acc <dbg_uart_parser+0x298>
 800292c:	4607      	mov	r7, r0
 800292e:	1d60      	adds	r0, r4, #5
 8002930:	f000 fd92 	bl	8003458 <atoi>
 8002934:	f8d9 3000 	ldr.w	r3, [r9]
 8002938:	07dc      	lsls	r4, r3, #31
 800293a:	d471      	bmi.n	8002a20 <dbg_uart_parser+0x1ec>
 800293c:	b2c0      	uxtb	r0, r0
 800293e:	2801      	cmp	r0, #1
 8002940:	d033      	beq.n	80029aa <dbg_uart_parser+0x176>
 8002942:	2802      	cmp	r0, #2
 8002944:	d1b3      	bne.n	80028ae <dbg_uart_parser+0x7a>
 8002946:	4d65      	ldr	r5, [pc, #404]	; (8002adc <dbg_uart_parser+0x2a8>)
 8002948:	46e8      	mov	r8, sp
 800294a:	ae40      	add	r6, sp, #256	; 0x100
 800294c:	f8df a1b4 	ldr.w	sl, [pc, #436]	; 8002b04 <dbg_uart_parser+0x2d0>
 8002950:	f8df b1b4 	ldr.w	fp, [pc, #436]	; 8002b08 <dbg_uart_parser+0x2d4>
 8002954:	4644      	mov	r4, r8
 8002956:	4659      	mov	r1, fp
 8002958:	2203      	movs	r2, #3
 800295a:	4628      	mov	r0, r5
 800295c:	f10b 0b18 	add.w	fp, fp, #24
 8002960:	f000 f9fa 	bl	8002d58 <dot>
 8002964:	f000 fa1e 	bl	8002da4 <sigmoid>
 8002968:	eca4 0b02 	vstmia	r4!, {d0}
 800296c:	42b4      	cmp	r4, r6
 800296e:	d1f2      	bne.n	8002956 <dbg_uart_parser+0x122>
 8002970:	2220      	movs	r2, #32
 8002972:	4651      	mov	r1, sl
 8002974:	4640      	mov	r0, r8
 8002976:	f000 f9ef 	bl	8002d58 <dot>
 800297a:	f000 fa13 	bl	8002da4 <sigmoid>
 800297e:	f8d9 3000 	ldr.w	r3, [r9]
 8002982:	07db      	lsls	r3, r3, #31
 8002984:	d445      	bmi.n	8002a12 <dbg_uart_parser+0x1de>
 8002986:	3701      	adds	r7, #1
 8002988:	3518      	adds	r5, #24
 800298a:	2f08      	cmp	r7, #8
 800298c:	d1e0      	bne.n	8002950 <dbg_uart_parser+0x11c>
 800298e:	f8d9 3000 	ldr.w	r3, [r9]
 8002992:	07d8      	lsls	r0, r3, #31
 8002994:	d58b      	bpl.n	80028ae <dbg_uart_parser+0x7a>
 8002996:	4852      	ldr	r0, [pc, #328]	; (8002ae0 <dbg_uart_parser+0x2ac>)
 8002998:	f001 f848 	bl	8003a2c <puts>
 800299c:	b041      	add	sp, #260	; 0x104
 800299e:	e8bd 8ff0 	ldmia.w	sp!, {r4, r5, r6, r7, r8, r9, sl, fp, pc}
 80029a2:	4850      	ldr	r0, [pc, #320]	; (8002ae4 <dbg_uart_parser+0x2b0>)
 80029a4:	f001 f842 	bl	8003a2c <puts>
 80029a8:	e762      	b.n	8002870 <dbg_uart_parser+0x3c>
 80029aa:	4c4c      	ldr	r4, [pc, #304]	; (8002adc <dbg_uart_parser+0x2a8>)
 80029ac:	4e4e      	ldr	r6, [pc, #312]	; (8002ae8 <dbg_uart_parser+0x2b4>)
 80029ae:	f104 05c0 	add.w	r5, r4, #192	; 0xc0
 80029b2:	4f4e      	ldr	r7, [pc, #312]	; (8002aec <dbg_uart_parser+0x2b8>)
 80029b4:	e001      	b.n	80029ba <dbg_uart_parser+0x186>
 80029b6:	42a5      	cmp	r5, r4
 80029b8:	d010      	beq.n	80029dc <dbg_uart_parser+0x1a8>
 80029ba:	4631      	mov	r1, r6
 80029bc:	4620      	mov	r0, r4
 80029be:	2203      	movs	r2, #3
 80029c0:	3418      	adds	r4, #24
 80029c2:	f000 fa0b 	bl	8002ddc <nn_predict>
 80029c6:	f8d9 3000 	ldr.w	r3, [r9]
 80029ca:	07d9      	lsls	r1, r3, #31
 80029cc:	d5f3      	bpl.n	80029b6 <dbg_uart_parser+0x182>
 80029ce:	4638      	mov	r0, r7
 80029d0:	ec53 2b10 	vmov	r2, r3, d0
 80029d4:	f000 ffc8 	bl	8003968 <printf>
 80029d8:	42a5      	cmp	r5, r4
 80029da:	d1ee      	bne.n	80029ba <dbg_uart_parser+0x186>
 80029dc:	f8d9 3000 	ldr.w	r3, [r9]
 80029e0:	07da      	lsls	r2, r3, #31
 80029e2:	f57f af64 	bpl.w	80028ae <dbg_uart_parser+0x7a>
 80029e6:	200a      	movs	r0, #10
 80029e8:	f000 ffd0 	bl	800398c <putchar>
 80029ec:	e7cf      	b.n	800298e <dbg_uart_parser+0x15a>
 80029ee:	b2c4      	uxtb	r4, r0
 80029f0:	483f      	ldr	r0, [pc, #252]	; (8002af0 <dbg_uart_parser+0x2bc>)
 80029f2:	4621      	mov	r1, r4
 80029f4:	f000 ffb8 	bl	8003968 <printf>
 80029f8:	2c01      	cmp	r4, #1
 80029fa:	d023      	beq.n	8002a44 <dbg_uart_parser+0x210>
 80029fc:	2c02      	cmp	r4, #2
 80029fe:	f43f af67 	beq.w	80028d0 <dbg_uart_parser+0x9c>
 8002a02:	682b      	ldr	r3, [r5, #0]
 8002a04:	07da      	lsls	r2, r3, #31
 8002a06:	f57f af52 	bpl.w	80028ae <dbg_uart_parser+0x7a>
 8002a0a:	483a      	ldr	r0, [pc, #232]	; (8002af4 <dbg_uart_parser+0x2c0>)
 8002a0c:	f001 f80e 	bl	8003a2c <puts>
 8002a10:	e74d      	b.n	80028ae <dbg_uart_parser+0x7a>
 8002a12:	4639      	mov	r1, r7
 8002a14:	4838      	ldr	r0, [pc, #224]	; (8002af8 <dbg_uart_parser+0x2c4>)
 8002a16:	ec53 2b10 	vmov	r2, r3, d0
 8002a1a:	f000 ffa5 	bl	8003968 <printf>
 8002a1e:	e7b2      	b.n	8002986 <dbg_uart_parser+0x152>
 8002a20:	b2c4      	uxtb	r4, r0
 8002a22:	4836      	ldr	r0, [pc, #216]	; (8002afc <dbg_uart_parser+0x2c8>)
 8002a24:	4621      	mov	r1, r4
 8002a26:	f000 ff9f 	bl	8003968 <printf>
 8002a2a:	2c01      	cmp	r4, #1
 8002a2c:	d0bd      	beq.n	80029aa <dbg_uart_parser+0x176>
 8002a2e:	2c02      	cmp	r4, #2
 8002a30:	d089      	beq.n	8002946 <dbg_uart_parser+0x112>
 8002a32:	f8d9 3000 	ldr.w	r3, [r9]
 8002a36:	07dc      	lsls	r4, r3, #31
 8002a38:	f57f af39 	bpl.w	80028ae <dbg_uart_parser+0x7a>
 8002a3c:	482d      	ldr	r0, [pc, #180]	; (8002af4 <dbg_uart_parser+0x2c0>)
 8002a3e:	f000 fff5 	bl	8003a2c <puts>
 8002a42:	e7a4      	b.n	800298e <dbg_uart_parser+0x15a>
 8002a44:	4c22      	ldr	r4, [pc, #136]	; (8002ad0 <dbg_uart_parser+0x29c>)
 8002a46:	2300      	movs	r3, #0
 8002a48:	46e8      	mov	r8, sp
 8002a4a:	f44f 62fa 	mov.w	r2, #2000	; 0x7d0
 8002a4e:	6825      	ldr	r5, [r4, #0]
 8002a50:	492b      	ldr	r1, [pc, #172]	; (8002b00 <dbg_uart_parser+0x2cc>)
 8002a52:	42a5      	cmp	r5, r4
 8002a54:	f8cd 300a 	str.w	r3, [sp, #10]
 8002a58:	f8cd 3006 	str.w	r3, [sp, #6]
 8002a5c:	f8cd 300e 	str.w	r3, [sp, #14]
 8002a60:	f8ad 3012 	strh.w	r3, [sp, #18]
 8002a64:	f8c8 3000 	str.w	r3, [r8]
 8002a68:	f8a8 2004 	strh.w	r2, [r8, #4]
 8002a6c:	f8c8 1008 	str.w	r1, [r8, #8]
 8002a70:	d011      	beq.n	8002a96 <dbg_uart_parser+0x262>
 8002a72:	42ac      	cmp	r4, r5
 8002a74:	f1a5 030c 	sub.w	r3, r5, #12
 8002a78:	d105      	bne.n	8002a86 <dbg_uart_parser+0x252>
 8002a7a:	e00c      	b.n	8002a96 <dbg_uart_parser+0x262>
 8002a7c:	68da      	ldr	r2, [r3, #12]
 8002a7e:	4294      	cmp	r4, r2
 8002a80:	f1a2 030c 	sub.w	r3, r2, #12
 8002a84:	d007      	beq.n	8002a96 <dbg_uart_parser+0x262>
 8002a86:	689a      	ldr	r2, [r3, #8]
 8002a88:	428a      	cmp	r2, r1
 8002a8a:	d1f7      	bne.n	8002a7c <dbg_uart_parser+0x248>
 8002a8c:	889a      	ldrh	r2, [r3, #4]
 8002a8e:	f5b2 6ffa 	cmp.w	r2, #2000	; 0x7d0
 8002a92:	d1f3      	bne.n	8002a7c <dbg_uart_parser+0x248>
 8002a94:	e746      	b.n	8002924 <dbg_uart_parser+0xf0>
 8002a96:	2014      	movs	r0, #20
 8002a98:	f000 fd0c 	bl	80034b4 <malloc>
 8002a9c:	f100 0c0c 	add.w	ip, r0, #12
 8002aa0:	4606      	mov	r6, r0
 8002aa2:	4607      	mov	r7, r0
 8002aa4:	e8b8 000f 	ldmia.w	r8!, {r0, r1, r2, r3}
 8002aa8:	f8c4 c000 	str.w	ip, [r4]
 8002aac:	c70f      	stmia	r7!, {r0, r1, r2, r3}
 8002aae:	f8c5 c004 	str.w	ip, [r5, #4]
 8002ab2:	e9c6 5403 	strd	r5, r4, [r6, #12]
 8002ab6:	4b07      	ldr	r3, [pc, #28]	; (8002ad4 <dbg_uart_parser+0x2a0>)
 8002ab8:	601e      	str	r6, [r3, #0]
 8002aba:	b041      	add	sp, #260	; 0x104
 8002abc:	e8bd 8ff0 	ldmia.w	sp!, {r4, r5, r6, r7, r8, r9, sl, fp, pc}
 8002ac0:	0800767c 	.word	0x0800767c
 8002ac4:	080076d0 	.word	0x080076d0
 8002ac8:	080076f8 	.word	0x080076f8
 8002acc:	200010b0 	.word	0x200010b0
 8002ad0:	200000f0 	.word	0x200000f0
 8002ad4:	2000102c 	.word	0x2000102c
 8002ad8:	08002719 	.word	0x08002719
 8002adc:	20000030 	.word	0x20000030
 8002ae0:	080076b8 	.word	0x080076b8
 8002ae4:	08007700 	.word	0x08007700
 8002ae8:	200000f8 	.word	0x200000f8
 8002aec:	08007740 	.word	0x08007740
 8002af0:	080076d8 	.word	0x080076d8
 8002af4:	080076a0 	.word	0x080076a0
 8002af8:	0800774c 	.word	0x0800774c
 8002afc:	08007684 	.word	0x08007684
 8002b00:	080026a9 	.word	0x080026a9
 8002b04:	20000410 	.word	0x20000410
 8002b08:	20000110 	.word	0x20000110

08002b0c <main>:
 8002b0c:	e92d 4880 	stmdb	sp!, {r7, fp, lr}
 8002b10:	b089      	sub	sp, #36	; 0x24
 8002b12:	f3bf 8f4f 	dsb	sy
 8002b16:	f3bf 8f6f 	isb	sy
 8002b1a:	4b6c      	ldr	r3, [pc, #432]	; (8002ccc <main+0x1c0>)
 8002b1c:	2100      	movs	r1, #0
 8002b1e:	f8c3 1250 	str.w	r1, [r3, #592]	; 0x250
 8002b22:	f3bf 8f4f 	dsb	sy
 8002b26:	f3bf 8f6f 	isb	sy
 8002b2a:	695a      	ldr	r2, [r3, #20]
 8002b2c:	f442 3200 	orr.w	r2, r2, #131072	; 0x20000
 8002b30:	615a      	str	r2, [r3, #20]
 8002b32:	f3bf 8f4f 	dsb	sy
 8002b36:	f3bf 8f6f 	isb	sy
 8002b3a:	f8c3 1084 	str.w	r1, [r3, #132]	; 0x84
 8002b3e:	f3bf 8f4f 	dsb	sy
 8002b42:	f8d3 2080 	ldr.w	r2, [r3, #128]	; 0x80
 8002b46:	f643 77e0 	movw	r7, #16352	; 0x3fe0
 8002b4a:	f3c2 05c9 	ubfx	r5, r2, #3, #10
 8002b4e:	f3c2 324e 	ubfx	r2, r2, #13, #15
 8002b52:	07ae      	lsls	r6, r5, #30
 8002b54:	0152      	lsls	r2, r2, #5
 8002b56:	ea02 0c07 	and.w	ip, r2, r7
 8002b5a:	4630      	mov	r0, r6
 8002b5c:	4629      	mov	r1, r5
 8002b5e:	ea4c 0400 	orr.w	r4, ip, r0
 8002b62:	3901      	subs	r1, #1
 8002b64:	f100 4040 	add.w	r0, r0, #3221225472	; 0xc0000000
 8002b68:	f8c3 4260 	str.w	r4, [r3, #608]	; 0x260
 8002b6c:	1c4c      	adds	r4, r1, #1
 8002b6e:	d1f6      	bne.n	8002b5e <main+0x52>
 8002b70:	3a20      	subs	r2, #32
 8002b72:	f112 0f20 	cmn.w	r2, #32
 8002b76:	d1ee      	bne.n	8002b56 <main+0x4a>
 8002b78:	f3bf 8f4f 	dsb	sy
 8002b7c:	695a      	ldr	r2, [r3, #20]
 8002b7e:	f442 3280 	orr.w	r2, r2, #65536	; 0x10000
 8002b82:	615a      	str	r2, [r3, #20]
 8002b84:	f3bf 8f4f 	dsb	sy
 8002b88:	f3bf 8f6f 	isb	sy
 8002b8c:	f7fe f9d0 	bl	8000f30 <HAL_Init>
 8002b90:	2400      	movs	r4, #0
 8002b92:	f7ff fdfb 	bl	800278c <SystemClock_Config>
 8002b96:	4b4e      	ldr	r3, [pc, #312]	; (8002cd0 <main+0x1c4>)
 8002b98:	9404      	str	r4, [sp, #16]
 8002b9a:	4622      	mov	r2, r4
 8002b9c:	9407      	str	r4, [sp, #28]
 8002b9e:	2180      	movs	r1, #128	; 0x80
 8002ba0:	9403      	str	r4, [sp, #12]
 8002ba2:	2601      	movs	r6, #1
 8002ba4:	4d4b      	ldr	r5, [pc, #300]	; (8002cd4 <main+0x1c8>)
 8002ba6:	f8df a148 	ldr.w	sl, [pc, #328]	; 8002cf0 <main+0x1e4>
 8002baa:	e9cd 4405 	strd	r4, r4, [sp, #20]
 8002bae:	6b18      	ldr	r0, [r3, #48]	; 0x30
 8002bb0:	f040 0004 	orr.w	r0, r0, #4
 8002bb4:	6318      	str	r0, [r3, #48]	; 0x30
 8002bb6:	6b18      	ldr	r0, [r3, #48]	; 0x30
 8002bb8:	f000 0004 	and.w	r0, r0, #4
 8002bbc:	9001      	str	r0, [sp, #4]
 8002bbe:	9801      	ldr	r0, [sp, #4]
 8002bc0:	6b18      	ldr	r0, [r3, #48]	; 0x30
 8002bc2:	f040 0040 	orr.w	r0, r0, #64	; 0x40
 8002bc6:	6318      	str	r0, [r3, #48]	; 0x30
 8002bc8:	6b1b      	ldr	r3, [r3, #48]	; 0x30
 8002bca:	4843      	ldr	r0, [pc, #268]	; (8002cd8 <main+0x1cc>)
 8002bcc:	f003 0340 	and.w	r3, r3, #64	; 0x40
 8002bd0:	9302      	str	r3, [sp, #8]
 8002bd2:	9b02      	ldr	r3, [sp, #8]
 8002bd4:	f7fe fb6c 	bl	80012b0 <HAL_GPIO_WritePin>
 8002bd8:	2380      	movs	r3, #128	; 0x80
 8002bda:	a903      	add	r1, sp, #12
 8002bdc:	483e      	ldr	r0, [pc, #248]	; (8002cd8 <main+0x1cc>)
 8002bde:	e9cd 3603 	strd	r3, r6, [sp, #12]
 8002be2:	e9cd 4405 	strd	r4, r4, [sp, #20]
 8002be6:	f7fe fa45 	bl	8001074 <HAL_GPIO_Init>
 8002bea:	f44f 32e1 	mov.w	r2, #115200	; 0x1c200
 8002bee:	493b      	ldr	r1, [pc, #236]	; (8002cdc <main+0x1d0>)
 8002bf0:	230c      	movs	r3, #12
 8002bf2:	4628      	mov	r0, r5
 8002bf4:	612c      	str	r4, [r5, #16]
 8002bf6:	616b      	str	r3, [r5, #20]
 8002bf8:	e9c5 1200 	strd	r1, r2, [r5]
 8002bfc:	e9c5 4402 	strd	r4, r4, [r5, #8]
 8002c00:	e9c5 4406 	strd	r4, r4, [r5, #24]
 8002c04:	e9c5 4408 	strd	r4, r4, [r5, #32]
 8002c08:	f7ff fb7a 	bl	8002300 <HAL_UART_Init>
 8002c0c:	f8da 3000 	ldr.w	r3, [sl]
 8002c10:	4632      	mov	r2, r6
 8002c12:	4628      	mov	r0, r5
 8002c14:	4333      	orrs	r3, r6
 8002c16:	4932      	ldr	r1, [pc, #200]	; (8002ce0 <main+0x1d4>)
 8002c18:	f8ca 3000 	str.w	r3, [sl]
 8002c1c:	f7ff f99e 	bl	8001f5c <HAL_UART_Receive_IT>
 8002c20:	f8da 3000 	ldr.w	r3, [sl]
 8002c24:	07da      	lsls	r2, r3, #31
 8002c26:	d502      	bpl.n	8002c2e <main+0x122>
 8002c28:	482e      	ldr	r0, [pc, #184]	; (8002ce4 <main+0x1d8>)
 8002c2a:	f000 feff 	bl	8003a2c <puts>
 8002c2e:	f8df 80c4 	ldr.w	r8, [pc, #196]	; 8002cf4 <main+0x1e8>
 8002c32:	2600      	movs	r6, #0
 8002c34:	4d2c      	ldr	r5, [pc, #176]	; (8002ce8 <main+0x1dc>)
 8002c36:	4f2d      	ldr	r7, [pc, #180]	; (8002cec <main+0x1e0>)
 8002c38:	f8df 90bc 	ldr.w	r9, [pc, #188]	; 8002cf8 <main+0x1ec>
 8002c3c:	f8df b0bc 	ldr.w	fp, [pc, #188]	; 8002cfc <main+0x1f0>
 8002c40:	f8d8 3000 	ldr.w	r3, [r8]
 8002c44:	2b00      	cmp	r3, #0
 8002c46:	d0fb      	beq.n	8002c40 <main+0x134>
 8002c48:	682b      	ldr	r3, [r5, #0]
 8002c4a:	f8c8 6000 	str.w	r6, [r8]
 8002c4e:	42ab      	cmp	r3, r5
 8002c50:	d013      	beq.n	8002c7a <main+0x16e>
 8002c52:	429d      	cmp	r5, r3
 8002c54:	f1a3 040c 	sub.w	r4, r3, #12
 8002c58:	d00f      	beq.n	8002c7a <main+0x16e>
 8002c5a:	88e3      	ldrh	r3, [r4, #6]
 8002c5c:	88a2      	ldrh	r2, [r4, #4]
 8002c5e:	3301      	adds	r3, #1
 8002c60:	b29b      	uxth	r3, r3
 8002c62:	429a      	cmp	r2, r3
 8002c64:	80e3      	strh	r3, [r4, #6]
 8002c66:	d825      	bhi.n	8002cb4 <main+0x1a8>
 8002c68:	68a3      	ldr	r3, [r4, #8]
 8002c6a:	80e6      	strh	r6, [r4, #6]
 8002c6c:	6820      	ldr	r0, [r4, #0]
 8002c6e:	4798      	blx	r3
 8002c70:	68e3      	ldr	r3, [r4, #12]
 8002c72:	429d      	cmp	r5, r3
 8002c74:	f1a3 040c 	sub.w	r4, r3, #12
 8002c78:	d1ef      	bne.n	8002c5a <main+0x14e>
 8002c7a:	683b      	ldr	r3, [r7, #0]
 8002c7c:	b1e3      	cbz	r3, 8002cb8 <main+0x1ac>
 8002c7e:	683b      	ldr	r3, [r7, #0]
 8002c80:	3b01      	subs	r3, #1
 8002c82:	603b      	str	r3, [r7, #0]
 8002c84:	683b      	ldr	r3, [r7, #0]
 8002c86:	2b01      	cmp	r3, #1
 8002c88:	d1da      	bne.n	8002c40 <main+0x134>
 8002c8a:	603e      	str	r6, [r7, #0]
 8002c8c:	f8d9 2014 	ldr.w	r2, [r9, #20]
 8002c90:	f8b9 301e 	ldrh.w	r3, [r9, #30]
 8002c94:	b29b      	uxth	r3, r3
 8002c96:	54d6      	strb	r6, [r2, r3]
 8002c98:	f8da 3000 	ldr.w	r3, [sl]
 8002c9c:	07db      	lsls	r3, r3, #31
 8002c9e:	d40f      	bmi.n	8002cc0 <main+0x1b4>
 8002ca0:	f8d9 0014 	ldr.w	r0, [r9, #20]
 8002ca4:	2200      	movs	r2, #0
 8002ca6:	f8b9 101e 	ldrh.w	r1, [r9, #30]
 8002caa:	f7ff fdc3 	bl	8002834 <dbg_uart_parser>
 8002cae:	f8a9 601e 	strh.w	r6, [r9, #30]
 8002cb2:	e7c5      	b.n	8002c40 <main+0x134>
 8002cb4:	68e3      	ldr	r3, [r4, #12]
 8002cb6:	e7cc      	b.n	8002c52 <main+0x146>
 8002cb8:	683b      	ldr	r3, [r7, #0]
 8002cba:	2b01      	cmp	r3, #1
 8002cbc:	d1c0      	bne.n	8002c40 <main+0x134>
 8002cbe:	e7e4      	b.n	8002c8a <main+0x17e>
 8002cc0:	f8d9 1014 	ldr.w	r1, [r9, #20]
 8002cc4:	4658      	mov	r0, fp
 8002cc6:	f000 fe4f 	bl	8003968 <printf>
 8002cca:	e7e9      	b.n	8002ca0 <main+0x194>
 8002ccc:	e000ed00 	.word	0xe000ed00
 8002cd0:	40023800 	.word	0x40023800
 8002cd4:	20001030 	.word	0x20001030
 8002cd8:	40021800 	.word	0x40021800
 8002cdc:	40011400 	.word	0x40011400
 8002ce0:	20000eec 	.word	0x20000eec
 8002ce4:	0800771c 	.word	0x0800771c
 8002ce8:	200000f0 	.word	0x200000f0
 8002cec:	20000ee8 	.word	0x20000ee8
 8002cf0:	200010b0 	.word	0x200010b0
 8002cf4:	20000ee4 	.word	0x20000ee4
 8002cf8:	20000008 	.word	0x20000008
 8002cfc:	08007730 	.word	0x08007730

08002d00 <HAL_UART_RxCpltCallback>:
 8002d00:	b470      	push	{r4, r5, r6}
 8002d02:	4b09      	ldr	r3, [pc, #36]	; (8002d28 <HAL_UART_RxCpltCallback+0x28>)
 8002d04:	210a      	movs	r1, #10
 8002d06:	4c09      	ldr	r4, [pc, #36]	; (8002d2c <HAL_UART_RxCpltCallback+0x2c>)
 8002d08:	2201      	movs	r2, #1
 8002d0a:	6019      	str	r1, [r3, #0]
 8002d0c:	4908      	ldr	r1, [pc, #32]	; (8002d30 <HAL_UART_RxCpltCallback+0x30>)
 8002d0e:	6965      	ldr	r5, [r4, #20]
 8002d10:	8be3      	ldrh	r3, [r4, #30]
 8002d12:	780e      	ldrb	r6, [r1, #0]
 8002d14:	b2db      	uxtb	r3, r3
 8002d16:	4807      	ldr	r0, [pc, #28]	; (8002d34 <HAL_UART_RxCpltCallback+0x34>)
 8002d18:	54ee      	strb	r6, [r5, r3]
 8002d1a:	8be3      	ldrh	r3, [r4, #30]
 8002d1c:	4413      	add	r3, r2
 8002d1e:	b29b      	uxth	r3, r3
 8002d20:	83e3      	strh	r3, [r4, #30]
 8002d22:	bc70      	pop	{r4, r5, r6}
 8002d24:	f7ff b91a 	b.w	8001f5c <HAL_UART_Receive_IT>
 8002d28:	20000ee8 	.word	0x20000ee8
 8002d2c:	20000008 	.word	0x20000008
 8002d30:	20000eec 	.word	0x20000eec
 8002d34:	20001030 	.word	0x20001030

08002d38 <__io_putchar>:
 8002d38:	b500      	push	{lr}
 8002d3a:	b083      	sub	sp, #12
 8002d3c:	230a      	movs	r3, #10
 8002d3e:	2201      	movs	r2, #1
 8002d40:	a902      	add	r1, sp, #8
 8002d42:	f841 0d04 	str.w	r0, [r1, #-4]!
 8002d46:	4803      	ldr	r0, [pc, #12]	; (8002d54 <__io_putchar+0x1c>)
 8002d48:	f7ff f87c 	bl	8001e44 <HAL_UART_Transmit>
 8002d4c:	9801      	ldr	r0, [sp, #4]
 8002d4e:	b003      	add	sp, #12
 8002d50:	f85d fb04 	ldr.w	pc, [sp], #4
 8002d54:	20001030 	.word	0x20001030

08002d58 <dot>:
 8002d58:	e92d 41f0 	stmdb	sp!, {r4, r5, r6, r7, r8, lr}
 8002d5c:	f1b2 0800 	subs.w	r8, r2, #0
 8002d60:	dd19      	ble.n	8002d96 <dot+0x3e>
 8002d62:	4604      	mov	r4, r0
 8002d64:	460d      	mov	r5, r1
 8002d66:	2600      	movs	r6, #0
 8002d68:	2700      	movs	r7, #0
 8002d6a:	eb00 08c8 	add.w	r8, r0, r8, lsl #3
 8002d6e:	e8f5 2302 	ldrd	r2, r3, [r5], #8
 8002d72:	e8f4 0102 	ldrd	r0, r1, [r4], #8
 8002d76:	f7fd fc5f 	bl	8000638 <__aeabi_dmul>
 8002d7a:	4602      	mov	r2, r0
 8002d7c:	460b      	mov	r3, r1
 8002d7e:	4630      	mov	r0, r6
 8002d80:	4639      	mov	r1, r7
 8002d82:	f7fd faa3 	bl	80002cc <__adddf3>
 8002d86:	45a0      	cmp	r8, r4
 8002d88:	4606      	mov	r6, r0
 8002d8a:	460f      	mov	r7, r1
 8002d8c:	d1ef      	bne.n	8002d6e <dot+0x16>
 8002d8e:	ec47 6b10 	vmov	d0, r6, r7
 8002d92:	e8bd 81f0 	ldmia.w	sp!, {r4, r5, r6, r7, r8, pc}
 8002d96:	2600      	movs	r6, #0
 8002d98:	2700      	movs	r7, #0
 8002d9a:	ec47 6b10 	vmov	d0, r6, r7
 8002d9e:	e8bd 81f0 	ldmia.w	sp!, {r4, r5, r6, r7, r8, pc}
 8002da2:	bf00      	nop

08002da4 <sigmoid>:
 8002da4:	ec51 0b10 	vmov	r0, r1, d0
 8002da8:	b508      	push	{r3, lr}
 8002daa:	ee10 2a10 	vmov	r2, s0
 8002dae:	f101 4300 	add.w	r3, r1, #2147483648	; 0x80000000
 8002db2:	ec43 2b10 	vmov	d0, r2, r3
 8002db6:	f000 f95b 	bl	8003070 <exp>
 8002dba:	2200      	movs	r2, #0
 8002dbc:	4b06      	ldr	r3, [pc, #24]	; (8002dd8 <sigmoid+0x34>)
 8002dbe:	ec51 0b10 	vmov	r0, r1, d0
 8002dc2:	f7fd fa83 	bl	80002cc <__adddf3>
 8002dc6:	4602      	mov	r2, r0
 8002dc8:	460b      	mov	r3, r1
 8002dca:	2000      	movs	r0, #0
 8002dcc:	4902      	ldr	r1, [pc, #8]	; (8002dd8 <sigmoid+0x34>)
 8002dce:	f7fd fd5d 	bl	800088c <__aeabi_ddiv>
 8002dd2:	ec41 0b10 	vmov	d0, r0, r1
 8002dd6:	bd08      	pop	{r3, pc}
 8002dd8:	3ff00000 	.word	0x3ff00000

08002ddc <nn_predict>:
 8002ddc:	2a00      	cmp	r2, #0
 8002dde:	e92d 41f0 	stmdb	sp!, {r4, r5, r6, r7, r8, lr}
 8002de2:	dd2c      	ble.n	8002e3e <nn_predict+0x62>
 8002de4:	4604      	mov	r4, r0
 8002de6:	460d      	mov	r5, r1
 8002de8:	2600      	movs	r6, #0
 8002dea:	2700      	movs	r7, #0
 8002dec:	eb00 08c2 	add.w	r8, r0, r2, lsl #3
 8002df0:	e8f5 2302 	ldrd	r2, r3, [r5], #8
 8002df4:	e8f4 0102 	ldrd	r0, r1, [r4], #8
 8002df8:	f7fd fc1e 	bl	8000638 <__aeabi_dmul>
 8002dfc:	4602      	mov	r2, r0
 8002dfe:	460b      	mov	r3, r1
 8002e00:	4630      	mov	r0, r6
 8002e02:	4639      	mov	r1, r7
 8002e04:	f7fd fa62 	bl	80002cc <__adddf3>
 8002e08:	45a0      	cmp	r8, r4
 8002e0a:	4606      	mov	r6, r0
 8002e0c:	460f      	mov	r7, r1
 8002e0e:	d1ef      	bne.n	8002df0 <nn_predict+0x14>
 8002e10:	4602      	mov	r2, r0
 8002e12:	f101 4300 	add.w	r3, r1, #2147483648	; 0x80000000
 8002e16:	ec43 2b10 	vmov	d0, r2, r3
 8002e1a:	f000 f929 	bl	8003070 <exp>
 8002e1e:	2200      	movs	r2, #0
 8002e20:	4b09      	ldr	r3, [pc, #36]	; (8002e48 <nn_predict+0x6c>)
 8002e22:	ec51 0b10 	vmov	r0, r1, d0
 8002e26:	f7fd fa51 	bl	80002cc <__adddf3>
 8002e2a:	4602      	mov	r2, r0
 8002e2c:	460b      	mov	r3, r1
 8002e2e:	2000      	movs	r0, #0
 8002e30:	4905      	ldr	r1, [pc, #20]	; (8002e48 <nn_predict+0x6c>)
 8002e32:	f7fd fd2b 	bl	800088c <__aeabi_ddiv>
 8002e36:	ec41 0b10 	vmov	d0, r0, r1
 8002e3a:	e8bd 81f0 	ldmia.w	sp!, {r4, r5, r6, r7, r8, pc}
 8002e3e:	2200      	movs	r2, #0
 8002e40:	f04f 4300 	mov.w	r3, #2147483648	; 0x80000000
 8002e44:	e7e7      	b.n	8002e16 <nn_predict+0x3a>
 8002e46:	bf00      	nop
 8002e48:	3ff00000 	.word	0x3ff00000

08002e4c <HAL_MspInit>:
 8002e4c:	4b0a      	ldr	r3, [pc, #40]	; (8002e78 <HAL_MspInit+0x2c>)
 8002e4e:	b082      	sub	sp, #8
 8002e50:	6c1a      	ldr	r2, [r3, #64]	; 0x40
 8002e52:	f042 5280 	orr.w	r2, r2, #268435456	; 0x10000000
 8002e56:	641a      	str	r2, [r3, #64]	; 0x40
 8002e58:	6c1a      	ldr	r2, [r3, #64]	; 0x40
 8002e5a:	f002 5280 	and.w	r2, r2, #268435456	; 0x10000000
 8002e5e:	9200      	str	r2, [sp, #0]
 8002e60:	9a00      	ldr	r2, [sp, #0]
 8002e62:	6c5a      	ldr	r2, [r3, #68]	; 0x44
 8002e64:	f442 4280 	orr.w	r2, r2, #16384	; 0x4000
 8002e68:	645a      	str	r2, [r3, #68]	; 0x44
 8002e6a:	6c5b      	ldr	r3, [r3, #68]	; 0x44
 8002e6c:	f403 4380 	and.w	r3, r3, #16384	; 0x4000
 8002e70:	9301      	str	r3, [sp, #4]
 8002e72:	9b01      	ldr	r3, [sp, #4]
 8002e74:	b002      	add	sp, #8
 8002e76:	4770      	bx	lr
 8002e78:	40023800 	.word	0x40023800

08002e7c <HAL_UART_MspInit>:
 8002e7c:	6802      	ldr	r2, [r0, #0]
 8002e7e:	4b1c      	ldr	r3, [pc, #112]	; (8002ef0 <HAL_UART_MspInit+0x74>)
 8002e80:	b570      	push	{r4, r5, r6, lr}
 8002e82:	429a      	cmp	r2, r3
 8002e84:	b088      	sub	sp, #32
 8002e86:	f04f 0400 	mov.w	r4, #0
 8002e8a:	e9cd 4403 	strd	r4, r4, [sp, #12]
 8002e8e:	e9cd 4405 	strd	r4, r4, [sp, #20]
 8002e92:	9407      	str	r4, [sp, #28]
 8002e94:	d001      	beq.n	8002e9a <HAL_UART_MspInit+0x1e>
 8002e96:	b008      	add	sp, #32
 8002e98:	bd70      	pop	{r4, r5, r6, pc}
 8002e9a:	f503 3392 	add.w	r3, r3, #74752	; 0x12400
 8002e9e:	2002      	movs	r0, #2
 8002ea0:	26c0      	movs	r6, #192	; 0xc0
 8002ea2:	2503      	movs	r5, #3
 8002ea4:	6c5a      	ldr	r2, [r3, #68]	; 0x44
 8002ea6:	a903      	add	r1, sp, #12
 8002ea8:	f042 0220 	orr.w	r2, r2, #32
 8002eac:	645a      	str	r2, [r3, #68]	; 0x44
 8002eae:	6c5a      	ldr	r2, [r3, #68]	; 0x44
 8002eb0:	f002 0220 	and.w	r2, r2, #32
 8002eb4:	9201      	str	r2, [sp, #4]
 8002eb6:	9a01      	ldr	r2, [sp, #4]
 8002eb8:	6b1a      	ldr	r2, [r3, #48]	; 0x30
 8002eba:	f042 0204 	orr.w	r2, r2, #4
 8002ebe:	631a      	str	r2, [r3, #48]	; 0x30
 8002ec0:	2208      	movs	r2, #8
 8002ec2:	6b1b      	ldr	r3, [r3, #48]	; 0x30
 8002ec4:	9004      	str	r0, [sp, #16]
 8002ec6:	f003 0304 	and.w	r3, r3, #4
 8002eca:	480a      	ldr	r0, [pc, #40]	; (8002ef4 <HAL_UART_MspInit+0x78>)
 8002ecc:	9603      	str	r6, [sp, #12]
 8002ece:	9302      	str	r3, [sp, #8]
 8002ed0:	9b02      	ldr	r3, [sp, #8]
 8002ed2:	e9cd 5206 	strd	r5, r2, [sp, #24]
 8002ed6:	f7fe f8cd 	bl	8001074 <HAL_GPIO_Init>
 8002eda:	4622      	mov	r2, r4
 8002edc:	4621      	mov	r1, r4
 8002ede:	2047      	movs	r0, #71	; 0x47
 8002ee0:	f7fe f858 	bl	8000f94 <HAL_NVIC_SetPriority>
 8002ee4:	2047      	movs	r0, #71	; 0x47
 8002ee6:	f7fe f88b 	bl	8001000 <HAL_NVIC_EnableIRQ>
 8002eea:	b008      	add	sp, #32
 8002eec:	bd70      	pop	{r4, r5, r6, pc}
 8002eee:	bf00      	nop
 8002ef0:	40011400 	.word	0x40011400
 8002ef4:	40020800 	.word	0x40020800

08002ef8 <NMI_Handler>:
 8002ef8:	4770      	bx	lr
 8002efa:	bf00      	nop

08002efc <HardFault_Handler>:
 8002efc:	e7fe      	b.n	8002efc <HardFault_Handler>
 8002efe:	bf00      	nop

08002f00 <MemManage_Handler>:
 8002f00:	e7fe      	b.n	8002f00 <MemManage_Handler>
 8002f02:	bf00      	nop

08002f04 <BusFault_Handler>:
 8002f04:	e7fe      	b.n	8002f04 <BusFault_Handler>
 8002f06:	bf00      	nop

08002f08 <UsageFault_Handler>:
 8002f08:	e7fe      	b.n	8002f08 <UsageFault_Handler>
 8002f0a:	bf00      	nop

08002f0c <SVC_Handler>:
 8002f0c:	4770      	bx	lr
 8002f0e:	bf00      	nop

08002f10 <DebugMon_Handler>:
 8002f10:	4770      	bx	lr
 8002f12:	bf00      	nop

08002f14 <PendSV_Handler>:
 8002f14:	4770      	bx	lr
 8002f16:	bf00      	nop

08002f18 <SysTick_Handler>:
 8002f18:	b508      	push	{r3, lr}
 8002f1a:	f7fe f815 	bl	8000f48 <HAL_IncTick>
 8002f1e:	4a02      	ldr	r2, [pc, #8]	; (8002f28 <SysTick_Handler+0x10>)
 8002f20:	6813      	ldr	r3, [r2, #0]
 8002f22:	3301      	adds	r3, #1
 8002f24:	6013      	str	r3, [r2, #0]
 8002f26:	bd08      	pop	{r3, pc}
 8002f28:	20000ee4 	.word	0x20000ee4

08002f2c <USART6_IRQHandler>:
 8002f2c:	4801      	ldr	r0, [pc, #4]	; (8002f34 <USART6_IRQHandler+0x8>)
 8002f2e:	f7ff b8e3 	b.w	80020f8 <HAL_UART_IRQHandler>
 8002f32:	bf00      	nop
 8002f34:	20001030 	.word	0x20001030

08002f38 <_read>:
 8002f38:	b570      	push	{r4, r5, r6, lr}
 8002f3a:	1e16      	subs	r6, r2, #0
 8002f3c:	dd07      	ble.n	8002f4e <_read+0x16>
 8002f3e:	460c      	mov	r4, r1
 8002f40:	198d      	adds	r5, r1, r6
 8002f42:	f3af 8000 	nop.w
 8002f46:	f804 0b01 	strb.w	r0, [r4], #1
 8002f4a:	42a5      	cmp	r5, r4
 8002f4c:	d1f9      	bne.n	8002f42 <_read+0xa>
 8002f4e:	4630      	mov	r0, r6
 8002f50:	bd70      	pop	{r4, r5, r6, pc}
 8002f52:	bf00      	nop

08002f54 <_write>:
 8002f54:	b570      	push	{r4, r5, r6, lr}
 8002f56:	1e16      	subs	r6, r2, #0
 8002f58:	dd07      	ble.n	8002f6a <_write+0x16>
 8002f5a:	460c      	mov	r4, r1
 8002f5c:	198d      	adds	r5, r1, r6
 8002f5e:	f814 0b01 	ldrb.w	r0, [r4], #1
 8002f62:	f7ff fee9 	bl	8002d38 <__io_putchar>
 8002f66:	42ac      	cmp	r4, r5
 8002f68:	d1f9      	bne.n	8002f5e <_write+0xa>
 8002f6a:	4630      	mov	r0, r6
 8002f6c:	bd70      	pop	{r4, r5, r6, pc}
 8002f6e:	bf00      	nop

08002f70 <_close>:
 8002f70:	f04f 30ff 	mov.w	r0, #4294967295	; 0xffffffff
 8002f74:	4770      	bx	lr
 8002f76:	bf00      	nop

08002f78 <_fstat>:
 8002f78:	f44f 5300 	mov.w	r3, #8192	; 0x2000
 8002f7c:	2000      	movs	r0, #0
 8002f7e:	604b      	str	r3, [r1, #4]
 8002f80:	4770      	bx	lr
 8002f82:	bf00      	nop

08002f84 <_isatty>:
 8002f84:	2001      	movs	r0, #1
 8002f86:	4770      	bx	lr

08002f88 <_lseek>:
 8002f88:	2000      	movs	r0, #0
 8002f8a:	4770      	bx	lr

08002f8c <_sbrk>:
 8002f8c:	4a0c      	ldr	r2, [pc, #48]	; (8002fc0 <_sbrk+0x34>)
 8002f8e:	b508      	push	{r3, lr}
 8002f90:	6813      	ldr	r3, [r2, #0]
 8002f92:	b133      	cbz	r3, 8002fa2 <_sbrk+0x16>
 8002f94:	4418      	add	r0, r3
 8002f96:	4669      	mov	r1, sp
 8002f98:	4288      	cmp	r0, r1
 8002f9a:	d809      	bhi.n	8002fb0 <_sbrk+0x24>
 8002f9c:	6010      	str	r0, [r2, #0]
 8002f9e:	4618      	mov	r0, r3
 8002fa0:	bd08      	pop	{r3, pc}
 8002fa2:	4908      	ldr	r1, [pc, #32]	; (8002fc4 <_sbrk+0x38>)
 8002fa4:	460b      	mov	r3, r1
 8002fa6:	6011      	str	r1, [r2, #0]
 8002fa8:	4669      	mov	r1, sp
 8002faa:	4418      	add	r0, r3
 8002fac:	4288      	cmp	r0, r1
 8002fae:	d9f5      	bls.n	8002f9c <_sbrk+0x10>
 8002fb0:	f000 fa56 	bl	8003460 <__errno>
 8002fb4:	220c      	movs	r2, #12
 8002fb6:	f04f 33ff 	mov.w	r3, #4294967295	; 0xffffffff
 8002fba:	6002      	str	r2, [r0, #0]
 8002fbc:	4618      	mov	r0, r3
 8002fbe:	bd08      	pop	{r3, pc}
 8002fc0:	20000ef0 	.word	0x20000ef0
 8002fc4:	200011c8 	.word	0x200011c8

08002fc8 <SystemInit>:
 8002fc8:	4a0f      	ldr	r2, [pc, #60]	; (8003008 <SystemInit+0x40>)
 8002fca:	4b10      	ldr	r3, [pc, #64]	; (800300c <SystemInit+0x44>)
 8002fcc:	f8d2 0088 	ldr.w	r0, [r2, #136]	; 0x88
 8002fd0:	490f      	ldr	r1, [pc, #60]	; (8003010 <SystemInit+0x48>)
 8002fd2:	f440 0070 	orr.w	r0, r0, #15728640	; 0xf00000
 8002fd6:	b470      	push	{r4, r5, r6}
 8002fd8:	f8c2 0088 	str.w	r0, [r2, #136]	; 0x88
 8002fdc:	2400      	movs	r4, #0
 8002fde:	6818      	ldr	r0, [r3, #0]
 8002fe0:	f04f 6500 	mov.w	r5, #134217728	; 0x8000000
 8002fe4:	4e0b      	ldr	r6, [pc, #44]	; (8003014 <SystemInit+0x4c>)
 8002fe6:	f040 0001 	orr.w	r0, r0, #1
 8002fea:	6018      	str	r0, [r3, #0]
 8002fec:	609c      	str	r4, [r3, #8]
 8002fee:	6818      	ldr	r0, [r3, #0]
 8002ff0:	4001      	ands	r1, r0
 8002ff2:	6019      	str	r1, [r3, #0]
 8002ff4:	605e      	str	r6, [r3, #4]
 8002ff6:	6819      	ldr	r1, [r3, #0]
 8002ff8:	f421 2180 	bic.w	r1, r1, #262144	; 0x40000
 8002ffc:	6019      	str	r1, [r3, #0]
 8002ffe:	60dc      	str	r4, [r3, #12]
 8003000:	6095      	str	r5, [r2, #8]
 8003002:	bc70      	pop	{r4, r5, r6}
 8003004:	4770      	bx	lr
 8003006:	bf00      	nop
 8003008:	e000ed00 	.word	0xe000ed00
 800300c:	40023800 	.word	0x40023800
 8003010:	fef6ffff 	.word	0xfef6ffff
 8003014:	24003010 	.word	0x24003010

08003018 <Reset_Handler>:
 8003018:	f8df d034 	ldr.w	sp, [pc, #52]	; 8003050 <LoopFillZerobss+0x14>
 800301c:	2100      	movs	r1, #0
 800301e:	e003      	b.n	8003028 <LoopCopyDataInit>

08003020 <CopyDataInit>:
 8003020:	4b0c      	ldr	r3, [pc, #48]	; (8003054 <LoopFillZerobss+0x18>)
 8003022:	585b      	ldr	r3, [r3, r1]
 8003024:	5043      	str	r3, [r0, r1]
 8003026:	3104      	adds	r1, #4

08003028 <LoopCopyDataInit>:
 8003028:	480b      	ldr	r0, [pc, #44]	; (8003058 <LoopFillZerobss+0x1c>)
 800302a:	4b0c      	ldr	r3, [pc, #48]	; (800305c <LoopFillZerobss+0x20>)
 800302c:	1842      	adds	r2, r0, r1
 800302e:	429a      	cmp	r2, r3
 8003030:	d3f6      	bcc.n	8003020 <CopyDataInit>
 8003032:	4a0b      	ldr	r2, [pc, #44]	; (8003060 <LoopFillZerobss+0x24>)
 8003034:	e002      	b.n	800303c <LoopFillZerobss>

08003036 <FillZerobss>:
 8003036:	2300      	movs	r3, #0
 8003038:	f842 3b04 	str.w	r3, [r2], #4

0800303c <LoopFillZerobss>:
 800303c:	4b09      	ldr	r3, [pc, #36]	; (8003064 <LoopFillZerobss+0x28>)
 800303e:	429a      	cmp	r2, r3
 8003040:	d3f9      	bcc.n	8003036 <FillZerobss>
 8003042:	f7ff ffc1 	bl	8002fc8 <SystemInit>
 8003046:	f000 fa11 	bl	800346c <__libc_init_array>
 800304a:	f7ff fd5f 	bl	8002b0c <main>
 800304e:	4770      	bx	lr
 8003050:	20050000 	.word	0x20050000
 8003054:	08007a34 	.word	0x08007a34
 8003058:	20000000 	.word	0x20000000
 800305c:	20000ec8 	.word	0x20000ec8
 8003060:	20000ec8 	.word	0x20000ec8
 8003064:	200011c4 	.word	0x200011c4

08003068 <ADC_IRQHandler>:
 8003068:	e7fe      	b.n	8003068 <ADC_IRQHandler>
 800306a:	0000      	movs	r0, r0
 800306c:	0000      	movs	r0, r0
	...

08003070 <exp>:
 8003070:	b5f0      	push	{r4, r5, r6, r7, lr}
 8003072:	ed2d 8b02 	vpush	{d8}
 8003076:	4e38      	ldr	r6, [pc, #224]	; (8003158 <exp+0xe8>)
 8003078:	b08b      	sub	sp, #44	; 0x2c
 800307a:	ec55 4b10 	vmov	r4, r5, d0
 800307e:	f000 f873 	bl	8003168 <__ieee754_exp>
 8003082:	f996 3000 	ldrsb.w	r3, [r6]
 8003086:	eeb0 8a40 	vmov.f32	s16, s0
 800308a:	eef0 8a60 	vmov.f32	s17, s1
 800308e:	3301      	adds	r3, #1
 8003090:	d02c      	beq.n	80030ec <exp+0x7c>
 8003092:	ec45 4b10 	vmov	d0, r4, r5
 8003096:	f000 f9d5 	bl	8003444 <finite>
 800309a:	b338      	cbz	r0, 80030ec <exp+0x7c>
 800309c:	a32a      	add	r3, pc, #168	; (adr r3, 8003148 <exp+0xd8>)
 800309e:	e9d3 2300 	ldrd	r2, r3, [r3]
 80030a2:	4620      	mov	r0, r4
 80030a4:	4629      	mov	r1, r5
 80030a6:	f7fd fd57 	bl	8000b58 <__aeabi_dcmpgt>
 80030aa:	4607      	mov	r7, r0
 80030ac:	2800      	cmp	r0, #0
 80030ae:	d030      	beq.n	8003112 <exp+0xa2>
 80030b0:	2303      	movs	r3, #3
 80030b2:	9300      	str	r3, [sp, #0]
 80030b4:	4b29      	ldr	r3, [pc, #164]	; (800315c <exp+0xec>)
 80030b6:	9301      	str	r3, [sp, #4]
 80030b8:	2300      	movs	r3, #0
 80030ba:	9308      	str	r3, [sp, #32]
 80030bc:	f996 3000 	ldrsb.w	r3, [r6]
 80030c0:	e9cd 4504 	strd	r4, r5, [sp, #16]
 80030c4:	e9cd 4502 	strd	r4, r5, [sp, #8]
 80030c8:	b9c3      	cbnz	r3, 80030fc <exp+0x8c>
 80030ca:	4b25      	ldr	r3, [pc, #148]	; (8003160 <exp+0xf0>)
 80030cc:	f04f 4260 	mov.w	r2, #3758096384	; 0xe0000000
 80030d0:	e9cd 2306 	strd	r2, r3, [sp, #24]
 80030d4:	4668      	mov	r0, sp
 80030d6:	f000 f9bd 	bl	8003454 <matherr>
 80030da:	b1a8      	cbz	r0, 8003108 <exp+0x98>
 80030dc:	9b08      	ldr	r3, [sp, #32]
 80030de:	b11b      	cbz	r3, 80030e8 <exp+0x78>
 80030e0:	f000 f9be 	bl	8003460 <__errno>
 80030e4:	9b08      	ldr	r3, [sp, #32]
 80030e6:	6003      	str	r3, [r0, #0]
 80030e8:	ed9d 8b06 	vldr	d8, [sp, #24]
 80030ec:	eeb0 0a48 	vmov.f32	s0, s16
 80030f0:	eef0 0a68 	vmov.f32	s1, s17
 80030f4:	b00b      	add	sp, #44	; 0x2c
 80030f6:	ecbd 8b02 	vpop	{d8}
 80030fa:	bdf0      	pop	{r4, r5, r6, r7, pc}
 80030fc:	4919      	ldr	r1, [pc, #100]	; (8003164 <exp+0xf4>)
 80030fe:	2000      	movs	r0, #0
 8003100:	e9cd 0106 	strd	r0, r1, [sp, #24]
 8003104:	2b02      	cmp	r3, #2
 8003106:	d1e5      	bne.n	80030d4 <exp+0x64>
 8003108:	f000 f9aa 	bl	8003460 <__errno>
 800310c:	2322      	movs	r3, #34	; 0x22
 800310e:	6003      	str	r3, [r0, #0]
 8003110:	e7e4      	b.n	80030dc <exp+0x6c>
 8003112:	a30f      	add	r3, pc, #60	; (adr r3, 8003150 <exp+0xe0>)
 8003114:	e9d3 2300 	ldrd	r2, r3, [r3]
 8003118:	4620      	mov	r0, r4
 800311a:	4629      	mov	r1, r5
 800311c:	f7fd fcfe 	bl	8000b1c <__aeabi_dcmplt>
 8003120:	2800      	cmp	r0, #0
 8003122:	d0e3      	beq.n	80030ec <exp+0x7c>
 8003124:	2304      	movs	r3, #4
 8003126:	9300      	str	r3, [sp, #0]
 8003128:	4b0c      	ldr	r3, [pc, #48]	; (800315c <exp+0xec>)
 800312a:	9301      	str	r3, [sp, #4]
 800312c:	2200      	movs	r2, #0
 800312e:	2300      	movs	r3, #0
 8003130:	e9cd 2306 	strd	r2, r3, [sp, #24]
 8003134:	9708      	str	r7, [sp, #32]
 8003136:	e9cd 4504 	strd	r4, r5, [sp, #16]
 800313a:	e9cd 4502 	strd	r4, r5, [sp, #8]
 800313e:	f996 3000 	ldrsb.w	r3, [r6]
 8003142:	e7df      	b.n	8003104 <exp+0x94>
 8003144:	f3af 8000 	nop.w
 8003148:	fefa39ef 	.word	0xfefa39ef
 800314c:	40862e42 	.word	0x40862e42
 8003150:	d52d3051 	.word	0xd52d3051
 8003154:	c0874910 	.word	0xc0874910
 8003158:	20000514 	.word	0x20000514
 800315c:	08007774 	.word	0x08007774
 8003160:	47efffff 	.word	0x47efffff
 8003164:	7ff00000 	.word	0x7ff00000

08003168 <__ieee754_exp>:
 8003168:	e92d 47ff 	stmdb	sp!, {r0, r1, r2, r3, r4, r5, r6, r7, r8, r9, sl, lr}
 800316c:	ec55 4b10 	vmov	r4, r5, d0
 8003170:	4aab      	ldr	r2, [pc, #684]	; (8003420 <__ieee754_exp+0x2b8>)
 8003172:	f025 4600 	bic.w	r6, r5, #2147483648	; 0x80000000
 8003176:	4296      	cmp	r6, r2
 8003178:	ea4f 77d5 	mov.w	r7, r5, lsr #31
 800317c:	d932      	bls.n	80031e4 <__ieee754_exp+0x7c>
 800317e:	4aa9      	ldr	r2, [pc, #676]	; (8003424 <__ieee754_exp+0x2bc>)
 8003180:	4296      	cmp	r6, r2
 8003182:	d913      	bls.n	80031ac <__ieee754_exp+0x44>
 8003184:	f3c5 0313 	ubfx	r3, r5, #0, #20
 8003188:	4323      	orrs	r3, r4
 800318a:	ee10 2a10 	vmov	r2, s0
 800318e:	d007      	beq.n	80031a0 <__ieee754_exp+0x38>
 8003190:	462b      	mov	r3, r5
 8003192:	4620      	mov	r0, r4
 8003194:	4629      	mov	r1, r5
 8003196:	f7fd f899 	bl	80002cc <__adddf3>
 800319a:	4604      	mov	r4, r0
 800319c:	460d      	mov	r5, r1
 800319e:	e000      	b.n	80031a2 <__ieee754_exp+0x3a>
 80031a0:	b9ef      	cbnz	r7, 80031de <__ieee754_exp+0x76>
 80031a2:	ec45 4b10 	vmov	d0, r4, r5
 80031a6:	b004      	add	sp, #16
 80031a8:	e8bd 87f0 	ldmia.w	sp!, {r4, r5, r6, r7, r8, r9, sl, pc}
 80031ac:	a386      	add	r3, pc, #536	; (adr r3, 80033c8 <__ieee754_exp+0x260>)
 80031ae:	e9d3 2300 	ldrd	r2, r3, [r3]
 80031b2:	ee10 0a10 	vmov	r0, s0
 80031b6:	4629      	mov	r1, r5
 80031b8:	f7fd fcce 	bl	8000b58 <__aeabi_dcmpgt>
 80031bc:	b138      	cbz	r0, 80031ce <__ieee754_exp+0x66>
 80031be:	a384      	add	r3, pc, #528	; (adr r3, 80033d0 <__ieee754_exp+0x268>)
 80031c0:	e9d3 2300 	ldrd	r2, r3, [r3]
 80031c4:	4610      	mov	r0, r2
 80031c6:	4619      	mov	r1, r3
 80031c8:	f7fd fa36 	bl	8000638 <__aeabi_dmul>
 80031cc:	e7e5      	b.n	800319a <__ieee754_exp+0x32>
 80031ce:	a382      	add	r3, pc, #520	; (adr r3, 80033d8 <__ieee754_exp+0x270>)
 80031d0:	e9d3 2300 	ldrd	r2, r3, [r3]
 80031d4:	4620      	mov	r0, r4
 80031d6:	4629      	mov	r1, r5
 80031d8:	f7fd fca0 	bl	8000b1c <__aeabi_dcmplt>
 80031dc:	b130      	cbz	r0, 80031ec <__ieee754_exp+0x84>
 80031de:	2400      	movs	r4, #0
 80031e0:	2500      	movs	r5, #0
 80031e2:	e7de      	b.n	80031a2 <__ieee754_exp+0x3a>
 80031e4:	4b90      	ldr	r3, [pc, #576]	; (8003428 <__ieee754_exp+0x2c0>)
 80031e6:	429e      	cmp	r6, r3
 80031e8:	f240 80a6 	bls.w	8003338 <__ieee754_exp+0x1d0>
 80031ec:	4b8f      	ldr	r3, [pc, #572]	; (800342c <__ieee754_exp+0x2c4>)
 80031ee:	429e      	cmp	r6, r3
 80031f0:	ea4f 08c7 	mov.w	r8, r7, lsl #3
 80031f4:	d875      	bhi.n	80032e2 <__ieee754_exp+0x17a>
 80031f6:	4b8e      	ldr	r3, [pc, #568]	; (8003430 <__ieee754_exp+0x2c8>)
 80031f8:	4e8e      	ldr	r6, [pc, #568]	; (8003434 <__ieee754_exp+0x2cc>)
 80031fa:	4443      	add	r3, r8
 80031fc:	e9d3 2300 	ldrd	r2, r3, [r3]
 8003200:	4620      	mov	r0, r4
 8003202:	4629      	mov	r1, r5
 8003204:	f7fd f860 	bl	80002c8 <__aeabi_dsub>
 8003208:	4446      	add	r6, r8
 800320a:	e9cd 0100 	strd	r0, r1, [sp]
 800320e:	e9d6 8900 	ldrd	r8, r9, [r6]
 8003212:	f1c7 0a01 	rsb	sl, r7, #1
 8003216:	ebaa 0a07 	sub.w	sl, sl, r7
 800321a:	4642      	mov	r2, r8
 800321c:	464b      	mov	r3, r9
 800321e:	e9dd 0100 	ldrd	r0, r1, [sp]
 8003222:	f7fd f851 	bl	80002c8 <__aeabi_dsub>
 8003226:	4604      	mov	r4, r0
 8003228:	460d      	mov	r5, r1
 800322a:	4622      	mov	r2, r4
 800322c:	462b      	mov	r3, r5
 800322e:	4620      	mov	r0, r4
 8003230:	4629      	mov	r1, r5
 8003232:	f7fd fa01 	bl	8000638 <__aeabi_dmul>
 8003236:	a36a      	add	r3, pc, #424	; (adr r3, 80033e0 <__ieee754_exp+0x278>)
 8003238:	e9d3 2300 	ldrd	r2, r3, [r3]
 800323c:	4606      	mov	r6, r0
 800323e:	460f      	mov	r7, r1
 8003240:	f7fd f9fa 	bl	8000638 <__aeabi_dmul>
 8003244:	a368      	add	r3, pc, #416	; (adr r3, 80033e8 <__ieee754_exp+0x280>)
 8003246:	e9d3 2300 	ldrd	r2, r3, [r3]
 800324a:	f7fd f83d 	bl	80002c8 <__aeabi_dsub>
 800324e:	4632      	mov	r2, r6
 8003250:	463b      	mov	r3, r7
 8003252:	f7fd f9f1 	bl	8000638 <__aeabi_dmul>
 8003256:	a366      	add	r3, pc, #408	; (adr r3, 80033f0 <__ieee754_exp+0x288>)
 8003258:	e9d3 2300 	ldrd	r2, r3, [r3]
 800325c:	f7fd f836 	bl	80002cc <__adddf3>
 8003260:	4632      	mov	r2, r6
 8003262:	463b      	mov	r3, r7
 8003264:	f7fd f9e8 	bl	8000638 <__aeabi_dmul>
 8003268:	a363      	add	r3, pc, #396	; (adr r3, 80033f8 <__ieee754_exp+0x290>)
 800326a:	e9d3 2300 	ldrd	r2, r3, [r3]
 800326e:	f7fd f82b 	bl	80002c8 <__aeabi_dsub>
 8003272:	4632      	mov	r2, r6
 8003274:	463b      	mov	r3, r7
 8003276:	f7fd f9df 	bl	8000638 <__aeabi_dmul>
 800327a:	a361      	add	r3, pc, #388	; (adr r3, 8003400 <__ieee754_exp+0x298>)
 800327c:	e9d3 2300 	ldrd	r2, r3, [r3]
 8003280:	f7fd f824 	bl	80002cc <__adddf3>
 8003284:	4632      	mov	r2, r6
 8003286:	463b      	mov	r3, r7
 8003288:	f7fd f9d6 	bl	8000638 <__aeabi_dmul>
 800328c:	4602      	mov	r2, r0
 800328e:	460b      	mov	r3, r1
 8003290:	4620      	mov	r0, r4
 8003292:	4629      	mov	r1, r5
 8003294:	f7fd f818 	bl	80002c8 <__aeabi_dsub>
 8003298:	4602      	mov	r2, r0
 800329a:	460b      	mov	r3, r1
 800329c:	4606      	mov	r6, r0
 800329e:	460f      	mov	r7, r1
 80032a0:	4620      	mov	r0, r4
 80032a2:	4629      	mov	r1, r5
 80032a4:	f7fd f9c8 	bl	8000638 <__aeabi_dmul>
 80032a8:	e9cd 0102 	strd	r0, r1, [sp, #8]
 80032ac:	f1ba 0f00 	cmp.w	sl, #0
 80032b0:	d15c      	bne.n	800336c <__ieee754_exp+0x204>
 80032b2:	2200      	movs	r2, #0
 80032b4:	f04f 4380 	mov.w	r3, #1073741824	; 0x40000000
 80032b8:	4630      	mov	r0, r6
 80032ba:	4639      	mov	r1, r7
 80032bc:	f7fd f804 	bl	80002c8 <__aeabi_dsub>
 80032c0:	4602      	mov	r2, r0
 80032c2:	460b      	mov	r3, r1
 80032c4:	e9dd 0102 	ldrd	r0, r1, [sp, #8]
 80032c8:	f7fd fae0 	bl	800088c <__aeabi_ddiv>
 80032cc:	4622      	mov	r2, r4
 80032ce:	462b      	mov	r3, r5
 80032d0:	f7fc fffa 	bl	80002c8 <__aeabi_dsub>
 80032d4:	4602      	mov	r2, r0
 80032d6:	460b      	mov	r3, r1
 80032d8:	2000      	movs	r0, #0
 80032da:	4957      	ldr	r1, [pc, #348]	; (8003438 <__ieee754_exp+0x2d0>)
 80032dc:	f7fc fff4 	bl	80002c8 <__aeabi_dsub>
 80032e0:	e75b      	b.n	800319a <__ieee754_exp+0x32>
 80032e2:	4e56      	ldr	r6, [pc, #344]	; (800343c <__ieee754_exp+0x2d4>)
 80032e4:	a348      	add	r3, pc, #288	; (adr r3, 8003408 <__ieee754_exp+0x2a0>)
 80032e6:	e9d3 2300 	ldrd	r2, r3, [r3]
 80032ea:	4446      	add	r6, r8
 80032ec:	4620      	mov	r0, r4
 80032ee:	4629      	mov	r1, r5
 80032f0:	f7fd f9a2 	bl	8000638 <__aeabi_dmul>
 80032f4:	e9d6 2300 	ldrd	r2, r3, [r6]
 80032f8:	f7fc ffe8 	bl	80002cc <__adddf3>
 80032fc:	f7fd fc4c 	bl	8000b98 <__aeabi_d2iz>
 8003300:	4682      	mov	sl, r0
 8003302:	f7fd f92f 	bl	8000564 <__aeabi_i2d>
 8003306:	a342      	add	r3, pc, #264	; (adr r3, 8003410 <__ieee754_exp+0x2a8>)
 8003308:	e9d3 2300 	ldrd	r2, r3, [r3]
 800330c:	4606      	mov	r6, r0
 800330e:	460f      	mov	r7, r1
 8003310:	f7fd f992 	bl	8000638 <__aeabi_dmul>
 8003314:	4602      	mov	r2, r0
 8003316:	460b      	mov	r3, r1
 8003318:	4620      	mov	r0, r4
 800331a:	4629      	mov	r1, r5
 800331c:	f7fc ffd4 	bl	80002c8 <__aeabi_dsub>
 8003320:	a33d      	add	r3, pc, #244	; (adr r3, 8003418 <__ieee754_exp+0x2b0>)
 8003322:	e9d3 2300 	ldrd	r2, r3, [r3]
 8003326:	e9cd 0100 	strd	r0, r1, [sp]
 800332a:	4630      	mov	r0, r6
 800332c:	4639      	mov	r1, r7
 800332e:	f7fd f983 	bl	8000638 <__aeabi_dmul>
 8003332:	4680      	mov	r8, r0
 8003334:	4689      	mov	r9, r1
 8003336:	e770      	b.n	800321a <__ieee754_exp+0xb2>
 8003338:	4b41      	ldr	r3, [pc, #260]	; (8003440 <__ieee754_exp+0x2d8>)
 800333a:	429e      	cmp	r6, r3
 800333c:	d811      	bhi.n	8003362 <__ieee754_exp+0x1fa>
 800333e:	a324      	add	r3, pc, #144	; (adr r3, 80033d0 <__ieee754_exp+0x268>)
 8003340:	e9d3 2300 	ldrd	r2, r3, [r3]
 8003344:	ee10 0a10 	vmov	r0, s0
 8003348:	4629      	mov	r1, r5
 800334a:	f7fc ffbf 	bl	80002cc <__adddf3>
 800334e:	2200      	movs	r2, #0
 8003350:	4b39      	ldr	r3, [pc, #228]	; (8003438 <__ieee754_exp+0x2d0>)
 8003352:	f7fd fc01 	bl	8000b58 <__aeabi_dcmpgt>
 8003356:	b138      	cbz	r0, 8003368 <__ieee754_exp+0x200>
 8003358:	2200      	movs	r2, #0
 800335a:	4b37      	ldr	r3, [pc, #220]	; (8003438 <__ieee754_exp+0x2d0>)
 800335c:	4620      	mov	r0, r4
 800335e:	4629      	mov	r1, r5
 8003360:	e719      	b.n	8003196 <__ieee754_exp+0x2e>
 8003362:	f04f 0a00 	mov.w	sl, #0
 8003366:	e760      	b.n	800322a <__ieee754_exp+0xc2>
 8003368:	4682      	mov	sl, r0
 800336a:	e75e      	b.n	800322a <__ieee754_exp+0xc2>
 800336c:	4632      	mov	r2, r6
 800336e:	463b      	mov	r3, r7
 8003370:	2000      	movs	r0, #0
 8003372:	f04f 4180 	mov.w	r1, #1073741824	; 0x40000000
 8003376:	f7fc ffa7 	bl	80002c8 <__aeabi_dsub>
 800337a:	4602      	mov	r2, r0
 800337c:	460b      	mov	r3, r1
 800337e:	e9dd 0102 	ldrd	r0, r1, [sp, #8]
 8003382:	f7fd fa83 	bl	800088c <__aeabi_ddiv>
 8003386:	4602      	mov	r2, r0
 8003388:	460b      	mov	r3, r1
 800338a:	4640      	mov	r0, r8
 800338c:	4649      	mov	r1, r9
 800338e:	f7fc ff9b 	bl	80002c8 <__aeabi_dsub>
 8003392:	e9dd 2300 	ldrd	r2, r3, [sp]
 8003396:	f7fc ff97 	bl	80002c8 <__aeabi_dsub>
 800339a:	4602      	mov	r2, r0
 800339c:	460b      	mov	r3, r1
 800339e:	2000      	movs	r0, #0
 80033a0:	4925      	ldr	r1, [pc, #148]	; (8003438 <__ieee754_exp+0x2d0>)
 80033a2:	f7fc ff91 	bl	80002c8 <__aeabi_dsub>
 80033a6:	f46f 727f 	mvn.w	r2, #1020	; 0x3fc
 80033aa:	4592      	cmp	sl, r2
 80033ac:	db02      	blt.n	80033b4 <__ieee754_exp+0x24c>
 80033ae:	eb01 510a 	add.w	r1, r1, sl, lsl #20
 80033b2:	e6f2      	b.n	800319a <__ieee754_exp+0x32>
 80033b4:	f50a 7a7a 	add.w	sl, sl, #1000	; 0x3e8
 80033b8:	eb01 510a 	add.w	r1, r1, sl, lsl #20
 80033bc:	2200      	movs	r2, #0
 80033be:	f04f 73b8 	mov.w	r3, #24117248	; 0x1700000
 80033c2:	e701      	b.n	80031c8 <__ieee754_exp+0x60>
 80033c4:	f3af 8000 	nop.w
 80033c8:	fefa39ef 	.word	0xfefa39ef
 80033cc:	40862e42 	.word	0x40862e42
 80033d0:	8800759c 	.word	0x8800759c
 80033d4:	7e37e43c 	.word	0x7e37e43c
 80033d8:	d52d3051 	.word	0xd52d3051
 80033dc:	c0874910 	.word	0xc0874910
 80033e0:	72bea4d0 	.word	0x72bea4d0
 80033e4:	3e663769 	.word	0x3e663769
 80033e8:	c5d26bf1 	.word	0xc5d26bf1
 80033ec:	3ebbbd41 	.word	0x3ebbbd41
 80033f0:	af25de2c 	.word	0xaf25de2c
 80033f4:	3f11566a 	.word	0x3f11566a
 80033f8:	16bebd93 	.word	0x16bebd93
 80033fc:	3f66c16c 	.word	0x3f66c16c
 8003400:	5555553e 	.word	0x5555553e
 8003404:	3fc55555 	.word	0x3fc55555
 8003408:	652b82fe 	.word	0x652b82fe
 800340c:	3ff71547 	.word	0x3ff71547
 8003410:	fee00000 	.word	0xfee00000
 8003414:	3fe62e42 	.word	0x3fe62e42
 8003418:	35793c76 	.word	0x35793c76
 800341c:	3dea39ef 	.word	0x3dea39ef
 8003420:	40862e41 	.word	0x40862e41
 8003424:	7fefffff 	.word	0x7fefffff
 8003428:	3fd62e42 	.word	0x3fd62e42
 800342c:	3ff0a2b1 	.word	0x3ff0a2b1
 8003430:	08007788 	.word	0x08007788
 8003434:	08007798 	.word	0x08007798
 8003438:	3ff00000 	.word	0x3ff00000
 800343c:	08007778 	.word	0x08007778
 8003440:	3e2fffff 	.word	0x3e2fffff

08003444 <finite>:
 8003444:	ee10 3a90 	vmov	r3, s1
 8003448:	f043 4000 	orr.w	r0, r3, #2147483648	; 0x80000000
 800344c:	f500 1080 	add.w	r0, r0, #1048576	; 0x100000
 8003450:	0fc0      	lsrs	r0, r0, #31
 8003452:	4770      	bx	lr

08003454 <matherr>:
 8003454:	2000      	movs	r0, #0
 8003456:	4770      	bx	lr

08003458 <atoi>:
 8003458:	220a      	movs	r2, #10
 800345a:	2100      	movs	r1, #0
 800345c:	f000 bb8c 	b.w	8003b78 <strtol>

08003460 <__errno>:
 8003460:	4b01      	ldr	r3, [pc, #4]	; (8003468 <__errno+0x8>)
 8003462:	6818      	ldr	r0, [r3, #0]
 8003464:	4770      	bx	lr
 8003466:	bf00      	nop
 8003468:	20000518 	.word	0x20000518

0800346c <__libc_init_array>:
 800346c:	b570      	push	{r4, r5, r6, lr}
 800346e:	4e0d      	ldr	r6, [pc, #52]	; (80034a4 <__libc_init_array+0x38>)
 8003470:	4c0d      	ldr	r4, [pc, #52]	; (80034a8 <__libc_init_array+0x3c>)
 8003472:	1ba4      	subs	r4, r4, r6
 8003474:	10a4      	asrs	r4, r4, #2
 8003476:	2500      	movs	r5, #0
 8003478:	42a5      	cmp	r5, r4
 800347a:	d109      	bne.n	8003490 <__libc_init_array+0x24>
 800347c:	4e0b      	ldr	r6, [pc, #44]	; (80034ac <__libc_init_array+0x40>)
 800347e:	4c0c      	ldr	r4, [pc, #48]	; (80034b0 <__libc_init_array+0x44>)
 8003480:	f004 f8da 	bl	8007638 <_init>
 8003484:	1ba4      	subs	r4, r4, r6
 8003486:	10a4      	asrs	r4, r4, #2
 8003488:	2500      	movs	r5, #0
 800348a:	42a5      	cmp	r5, r4
 800348c:	d105      	bne.n	800349a <__libc_init_array+0x2e>
 800348e:	bd70      	pop	{r4, r5, r6, pc}
 8003490:	f856 3025 	ldr.w	r3, [r6, r5, lsl #2]
 8003494:	4798      	blx	r3
 8003496:	3501      	adds	r5, #1
 8003498:	e7ee      	b.n	8003478 <__libc_init_array+0xc>
 800349a:	f856 3025 	ldr.w	r3, [r6, r5, lsl #2]
 800349e:	4798      	blx	r3
 80034a0:	3501      	adds	r5, #1
 80034a2:	e7f2      	b.n	800348a <__libc_init_array+0x1e>
 80034a4:	08007a28 	.word	0x08007a28
 80034a8:	08007a28 	.word	0x08007a28
 80034ac:	08007a28 	.word	0x08007a28
 80034b0:	08007a30 	.word	0x08007a30

080034b4 <malloc>:
 80034b4:	4b02      	ldr	r3, [pc, #8]	; (80034c0 <malloc+0xc>)
 80034b6:	4601      	mov	r1, r0
 80034b8:	6818      	ldr	r0, [r3, #0]
 80034ba:	f000 b80b 	b.w	80034d4 <_malloc_r>
 80034be:	bf00      	nop
 80034c0:	20000518 	.word	0x20000518

080034c4 <free>:
 80034c4:	4b02      	ldr	r3, [pc, #8]	; (80034d0 <free+0xc>)
 80034c6:	4601      	mov	r1, r0
 80034c8:	6818      	ldr	r0, [r3, #0]
 80034ca:	f002 be53 	b.w	8006174 <_free_r>
 80034ce:	bf00      	nop
 80034d0:	20000518 	.word	0x20000518

080034d4 <_malloc_r>:
 80034d4:	e92d 4ff7 	stmdb	sp!, {r0, r1, r2, r4, r5, r6, r7, r8, r9, sl, fp, lr}
 80034d8:	f101 050b 	add.w	r5, r1, #11
 80034dc:	2d16      	cmp	r5, #22
 80034de:	4606      	mov	r6, r0
 80034e0:	d906      	bls.n	80034f0 <_malloc_r+0x1c>
 80034e2:	f035 0507 	bics.w	r5, r5, #7
 80034e6:	d504      	bpl.n	80034f2 <_malloc_r+0x1e>
 80034e8:	230c      	movs	r3, #12
 80034ea:	6033      	str	r3, [r6, #0]
 80034ec:	2400      	movs	r4, #0
 80034ee:	e1a8      	b.n	8003842 <_malloc_r+0x36e>
 80034f0:	2510      	movs	r5, #16
 80034f2:	428d      	cmp	r5, r1
 80034f4:	d3f8      	bcc.n	80034e8 <_malloc_r+0x14>
 80034f6:	4630      	mov	r0, r6
 80034f8:	f000 fa2a 	bl	8003950 <__malloc_lock>
 80034fc:	f5b5 7ffc 	cmp.w	r5, #504	; 0x1f8
 8003500:	4fc0      	ldr	r7, [pc, #768]	; (8003804 <_malloc_r+0x330>)
 8003502:	d238      	bcs.n	8003576 <_malloc_r+0xa2>
 8003504:	f105 0208 	add.w	r2, r5, #8
 8003508:	443a      	add	r2, r7
 800350a:	f1a2 0108 	sub.w	r1, r2, #8
 800350e:	6854      	ldr	r4, [r2, #4]
 8003510:	428c      	cmp	r4, r1
 8003512:	ea4f 03d5 	mov.w	r3, r5, lsr #3
 8003516:	d102      	bne.n	800351e <_malloc_r+0x4a>
 8003518:	68d4      	ldr	r4, [r2, #12]
 800351a:	42a2      	cmp	r2, r4
 800351c:	d010      	beq.n	8003540 <_malloc_r+0x6c>
 800351e:	6863      	ldr	r3, [r4, #4]
 8003520:	e9d4 1202 	ldrd	r1, r2, [r4, #8]
 8003524:	f023 0303 	bic.w	r3, r3, #3
 8003528:	60ca      	str	r2, [r1, #12]
 800352a:	4423      	add	r3, r4
 800352c:	6091      	str	r1, [r2, #8]
 800352e:	685a      	ldr	r2, [r3, #4]
 8003530:	f042 0201 	orr.w	r2, r2, #1
 8003534:	605a      	str	r2, [r3, #4]
 8003536:	4630      	mov	r0, r6
 8003538:	f000 fa10 	bl	800395c <__malloc_unlock>
 800353c:	3408      	adds	r4, #8
 800353e:	e180      	b.n	8003842 <_malloc_r+0x36e>
 8003540:	3302      	adds	r3, #2
 8003542:	4ab1      	ldr	r2, [pc, #708]	; (8003808 <_malloc_r+0x334>)
 8003544:	693c      	ldr	r4, [r7, #16]
 8003546:	4294      	cmp	r4, r2
 8003548:	4611      	mov	r1, r2
 800354a:	d075      	beq.n	8003638 <_malloc_r+0x164>
 800354c:	6860      	ldr	r0, [r4, #4]
 800354e:	f020 0c03 	bic.w	ip, r0, #3
 8003552:	ebac 0005 	sub.w	r0, ip, r5
 8003556:	280f      	cmp	r0, #15
 8003558:	dd48      	ble.n	80035ec <_malloc_r+0x118>
 800355a:	1963      	adds	r3, r4, r5
 800355c:	f045 0501 	orr.w	r5, r5, #1
 8003560:	6065      	str	r5, [r4, #4]
 8003562:	e9c7 3304 	strd	r3, r3, [r7, #16]
 8003566:	e9c3 2202 	strd	r2, r2, [r3, #8]
 800356a:	f040 0201 	orr.w	r2, r0, #1
 800356e:	605a      	str	r2, [r3, #4]
 8003570:	f844 000c 	str.w	r0, [r4, ip]
 8003574:	e7df      	b.n	8003536 <_malloc_r+0x62>
 8003576:	0a6b      	lsrs	r3, r5, #9
 8003578:	d02a      	beq.n	80035d0 <_malloc_r+0xfc>
 800357a:	2b04      	cmp	r3, #4
 800357c:	d812      	bhi.n	80035a4 <_malloc_r+0xd0>
 800357e:	09ab      	lsrs	r3, r5, #6
 8003580:	3338      	adds	r3, #56	; 0x38
 8003582:	1c5a      	adds	r2, r3, #1
 8003584:	eb07 02c2 	add.w	r2, r7, r2, lsl #3
 8003588:	f1a2 0c08 	sub.w	ip, r2, #8
 800358c:	6854      	ldr	r4, [r2, #4]
 800358e:	4564      	cmp	r4, ip
 8003590:	d006      	beq.n	80035a0 <_malloc_r+0xcc>
 8003592:	6862      	ldr	r2, [r4, #4]
 8003594:	f022 0203 	bic.w	r2, r2, #3
 8003598:	1b50      	subs	r0, r2, r5
 800359a:	280f      	cmp	r0, #15
 800359c:	dd1c      	ble.n	80035d8 <_malloc_r+0x104>
 800359e:	3b01      	subs	r3, #1
 80035a0:	3301      	adds	r3, #1
 80035a2:	e7ce      	b.n	8003542 <_malloc_r+0x6e>
 80035a4:	2b14      	cmp	r3, #20
 80035a6:	d801      	bhi.n	80035ac <_malloc_r+0xd8>
 80035a8:	335b      	adds	r3, #91	; 0x5b
 80035aa:	e7ea      	b.n	8003582 <_malloc_r+0xae>
 80035ac:	2b54      	cmp	r3, #84	; 0x54
 80035ae:	d802      	bhi.n	80035b6 <_malloc_r+0xe2>
 80035b0:	0b2b      	lsrs	r3, r5, #12
 80035b2:	336e      	adds	r3, #110	; 0x6e
 80035b4:	e7e5      	b.n	8003582 <_malloc_r+0xae>
 80035b6:	f5b3 7faa 	cmp.w	r3, #340	; 0x154
 80035ba:	d802      	bhi.n	80035c2 <_malloc_r+0xee>
 80035bc:	0beb      	lsrs	r3, r5, #15
 80035be:	3377      	adds	r3, #119	; 0x77
 80035c0:	e7df      	b.n	8003582 <_malloc_r+0xae>
 80035c2:	f240 5254 	movw	r2, #1364	; 0x554
 80035c6:	4293      	cmp	r3, r2
 80035c8:	d804      	bhi.n	80035d4 <_malloc_r+0x100>
 80035ca:	0cab      	lsrs	r3, r5, #18
 80035cc:	337c      	adds	r3, #124	; 0x7c
 80035ce:	e7d8      	b.n	8003582 <_malloc_r+0xae>
 80035d0:	233f      	movs	r3, #63	; 0x3f
 80035d2:	e7d6      	b.n	8003582 <_malloc_r+0xae>
 80035d4:	237e      	movs	r3, #126	; 0x7e
 80035d6:	e7d4      	b.n	8003582 <_malloc_r+0xae>
 80035d8:	2800      	cmp	r0, #0
 80035da:	68e1      	ldr	r1, [r4, #12]
 80035dc:	db04      	blt.n	80035e8 <_malloc_r+0x114>
 80035de:	68a3      	ldr	r3, [r4, #8]
 80035e0:	60d9      	str	r1, [r3, #12]
 80035e2:	608b      	str	r3, [r1, #8]
 80035e4:	18a3      	adds	r3, r4, r2
 80035e6:	e7a2      	b.n	800352e <_malloc_r+0x5a>
 80035e8:	460c      	mov	r4, r1
 80035ea:	e7d0      	b.n	800358e <_malloc_r+0xba>
 80035ec:	2800      	cmp	r0, #0
 80035ee:	e9c7 2204 	strd	r2, r2, [r7, #16]
 80035f2:	db07      	blt.n	8003604 <_malloc_r+0x130>
 80035f4:	44a4      	add	ip, r4
 80035f6:	f8dc 3004 	ldr.w	r3, [ip, #4]
 80035fa:	f043 0301 	orr.w	r3, r3, #1
 80035fe:	f8cc 3004 	str.w	r3, [ip, #4]
 8003602:	e798      	b.n	8003536 <_malloc_r+0x62>
 8003604:	f5bc 7f00 	cmp.w	ip, #512	; 0x200
 8003608:	6878      	ldr	r0, [r7, #4]
 800360a:	f080 8099 	bcs.w	8003740 <_malloc_r+0x26c>
 800360e:	ea4f 0cdc 	mov.w	ip, ip, lsr #3
 8003612:	ea4f 0eac 	mov.w	lr, ip, asr #2
 8003616:	2201      	movs	r2, #1
 8003618:	f10c 0c01 	add.w	ip, ip, #1
 800361c:	fa02 f20e 	lsl.w	r2, r2, lr
 8003620:	4310      	orrs	r0, r2
 8003622:	6078      	str	r0, [r7, #4]
 8003624:	eb07 02cc 	add.w	r2, r7, ip, lsl #3
 8003628:	f857 003c 	ldr.w	r0, [r7, ip, lsl #3]
 800362c:	3a08      	subs	r2, #8
 800362e:	e9c4 0202 	strd	r0, r2, [r4, #8]
 8003632:	f847 403c 	str.w	r4, [r7, ip, lsl #3]
 8003636:	60c4      	str	r4, [r0, #12]
 8003638:	2001      	movs	r0, #1
 800363a:	109a      	asrs	r2, r3, #2
 800363c:	fa00 f202 	lsl.w	r2, r0, r2
 8003640:	6878      	ldr	r0, [r7, #4]
 8003642:	4290      	cmp	r0, r2
 8003644:	d326      	bcc.n	8003694 <_malloc_r+0x1c0>
 8003646:	4210      	tst	r0, r2
 8003648:	d106      	bne.n	8003658 <_malloc_r+0x184>
 800364a:	f023 0303 	bic.w	r3, r3, #3
 800364e:	0052      	lsls	r2, r2, #1
 8003650:	4210      	tst	r0, r2
 8003652:	f103 0304 	add.w	r3, r3, #4
 8003656:	d0fa      	beq.n	800364e <_malloc_r+0x17a>
 8003658:	eb07 0cc3 	add.w	ip, r7, r3, lsl #3
 800365c:	46e1      	mov	r9, ip
 800365e:	4698      	mov	r8, r3
 8003660:	f8d9 400c 	ldr.w	r4, [r9, #12]
 8003664:	454c      	cmp	r4, r9
 8003666:	f040 80af 	bne.w	80037c8 <_malloc_r+0x2f4>
 800366a:	f108 0801 	add.w	r8, r8, #1
 800366e:	f018 0f03 	tst.w	r8, #3
 8003672:	f109 0908 	add.w	r9, r9, #8
 8003676:	d1f3      	bne.n	8003660 <_malloc_r+0x18c>
 8003678:	0798      	lsls	r0, r3, #30
 800367a:	f040 80e8 	bne.w	800384e <_malloc_r+0x37a>
 800367e:	687b      	ldr	r3, [r7, #4]
 8003680:	ea23 0302 	bic.w	r3, r3, r2
 8003684:	607b      	str	r3, [r7, #4]
 8003686:	6878      	ldr	r0, [r7, #4]
 8003688:	0052      	lsls	r2, r2, #1
 800368a:	4290      	cmp	r0, r2
 800368c:	d302      	bcc.n	8003694 <_malloc_r+0x1c0>
 800368e:	2a00      	cmp	r2, #0
 8003690:	f040 80ec 	bne.w	800386c <_malloc_r+0x398>
 8003694:	f8d7 a008 	ldr.w	sl, [r7, #8]
 8003698:	f8da 4004 	ldr.w	r4, [sl, #4]
 800369c:	f024 0203 	bic.w	r2, r4, #3
 80036a0:	42aa      	cmp	r2, r5
 80036a2:	d303      	bcc.n	80036ac <_malloc_r+0x1d8>
 80036a4:	1b53      	subs	r3, r2, r5
 80036a6:	2b0f      	cmp	r3, #15
 80036a8:	f300 8140 	bgt.w	800392c <_malloc_r+0x458>
 80036ac:	4b57      	ldr	r3, [pc, #348]	; (800380c <_malloc_r+0x338>)
 80036ae:	9200      	str	r2, [sp, #0]
 80036b0:	2008      	movs	r0, #8
 80036b2:	681c      	ldr	r4, [r3, #0]
 80036b4:	f000 fa76 	bl	8003ba4 <sysconf>
 80036b8:	4b55      	ldr	r3, [pc, #340]	; (8003810 <_malloc_r+0x33c>)
 80036ba:	9a00      	ldr	r2, [sp, #0]
 80036bc:	6819      	ldr	r1, [r3, #0]
 80036be:	3410      	adds	r4, #16
 80036c0:	3101      	adds	r1, #1
 80036c2:	442c      	add	r4, r5
 80036c4:	bf1f      	itttt	ne
 80036c6:	f104 34ff 	addne.w	r4, r4, #4294967295	; 0xffffffff
 80036ca:	1824      	addne	r4, r4, r0
 80036cc:	4241      	negne	r1, r0
 80036ce:	400c      	andne	r4, r1
 80036d0:	4680      	mov	r8, r0
 80036d2:	4621      	mov	r1, r4
 80036d4:	4630      	mov	r0, r6
 80036d6:	e9cd 2300 	strd	r2, r3, [sp]
 80036da:	f000 f9af 	bl	8003a3c <_sbrk_r>
 80036de:	f1b0 3fff 	cmp.w	r0, #4294967295	; 0xffffffff
 80036e2:	4683      	mov	fp, r0
 80036e4:	f000 80fb 	beq.w	80038de <_malloc_r+0x40a>
 80036e8:	9a00      	ldr	r2, [sp, #0]
 80036ea:	9b01      	ldr	r3, [sp, #4]
 80036ec:	eb0a 0102 	add.w	r1, sl, r2
 80036f0:	4281      	cmp	r1, r0
 80036f2:	d902      	bls.n	80036fa <_malloc_r+0x226>
 80036f4:	45ba      	cmp	sl, r7
 80036f6:	f040 80f2 	bne.w	80038de <_malloc_r+0x40a>
 80036fa:	f8df 9120 	ldr.w	r9, [pc, #288]	; 800381c <_malloc_r+0x348>
 80036fe:	f8d9 0000 	ldr.w	r0, [r9]
 8003702:	4559      	cmp	r1, fp
 8003704:	eb00 0e04 	add.w	lr, r0, r4
 8003708:	f8c9 e000 	str.w	lr, [r9]
 800370c:	f108 3cff 	add.w	ip, r8, #4294967295	; 0xffffffff
 8003710:	f040 80ae 	bne.w	8003870 <_malloc_r+0x39c>
 8003714:	ea11 0f0c 	tst.w	r1, ip
 8003718:	f040 80aa 	bne.w	8003870 <_malloc_r+0x39c>
 800371c:	68bb      	ldr	r3, [r7, #8]
 800371e:	4414      	add	r4, r2
 8003720:	f044 0401 	orr.w	r4, r4, #1
 8003724:	605c      	str	r4, [r3, #4]
 8003726:	4a3b      	ldr	r2, [pc, #236]	; (8003814 <_malloc_r+0x340>)
 8003728:	f8d9 3000 	ldr.w	r3, [r9]
 800372c:	6811      	ldr	r1, [r2, #0]
 800372e:	428b      	cmp	r3, r1
 8003730:	bf88      	it	hi
 8003732:	6013      	strhi	r3, [r2, #0]
 8003734:	4a38      	ldr	r2, [pc, #224]	; (8003818 <_malloc_r+0x344>)
 8003736:	6811      	ldr	r1, [r2, #0]
 8003738:	428b      	cmp	r3, r1
 800373a:	bf88      	it	hi
 800373c:	6013      	strhi	r3, [r2, #0]
 800373e:	e0ce      	b.n	80038de <_malloc_r+0x40a>
 8003740:	ea4f 225c 	mov.w	r2, ip, lsr #9
 8003744:	2a04      	cmp	r2, #4
 8003746:	d818      	bhi.n	800377a <_malloc_r+0x2a6>
 8003748:	ea4f 129c 	mov.w	r2, ip, lsr #6
 800374c:	3238      	adds	r2, #56	; 0x38
 800374e:	f102 0e01 	add.w	lr, r2, #1
 8003752:	eb07 08c2 	add.w	r8, r7, r2, lsl #3
 8003756:	f857 e03e 	ldr.w	lr, [r7, lr, lsl #3]
 800375a:	45f0      	cmp	r8, lr
 800375c:	d12b      	bne.n	80037b6 <_malloc_r+0x2e2>
 800375e:	1092      	asrs	r2, r2, #2
 8003760:	f04f 0c01 	mov.w	ip, #1
 8003764:	fa0c f202 	lsl.w	r2, ip, r2
 8003768:	4310      	orrs	r0, r2
 800376a:	6078      	str	r0, [r7, #4]
 800376c:	e9c4 e802 	strd	lr, r8, [r4, #8]
 8003770:	f8c8 4008 	str.w	r4, [r8, #8]
 8003774:	f8ce 400c 	str.w	r4, [lr, #12]
 8003778:	e75e      	b.n	8003638 <_malloc_r+0x164>
 800377a:	2a14      	cmp	r2, #20
 800377c:	d801      	bhi.n	8003782 <_malloc_r+0x2ae>
 800377e:	325b      	adds	r2, #91	; 0x5b
 8003780:	e7e5      	b.n	800374e <_malloc_r+0x27a>
 8003782:	2a54      	cmp	r2, #84	; 0x54
 8003784:	d803      	bhi.n	800378e <_malloc_r+0x2ba>
 8003786:	ea4f 321c 	mov.w	r2, ip, lsr #12
 800378a:	326e      	adds	r2, #110	; 0x6e
 800378c:	e7df      	b.n	800374e <_malloc_r+0x27a>
 800378e:	f5b2 7faa 	cmp.w	r2, #340	; 0x154
 8003792:	d803      	bhi.n	800379c <_malloc_r+0x2c8>
 8003794:	ea4f 32dc 	mov.w	r2, ip, lsr #15
 8003798:	3277      	adds	r2, #119	; 0x77
 800379a:	e7d8      	b.n	800374e <_malloc_r+0x27a>
 800379c:	f240 5e54 	movw	lr, #1364	; 0x554
 80037a0:	4572      	cmp	r2, lr
 80037a2:	bf9a      	itte	ls
 80037a4:	ea4f 429c 	movls.w	r2, ip, lsr #18
 80037a8:	327c      	addls	r2, #124	; 0x7c
 80037aa:	227e      	movhi	r2, #126	; 0x7e
 80037ac:	e7cf      	b.n	800374e <_malloc_r+0x27a>
 80037ae:	f8de e008 	ldr.w	lr, [lr, #8]
 80037b2:	45f0      	cmp	r8, lr
 80037b4:	d005      	beq.n	80037c2 <_malloc_r+0x2ee>
 80037b6:	f8de 2004 	ldr.w	r2, [lr, #4]
 80037ba:	f022 0203 	bic.w	r2, r2, #3
 80037be:	4562      	cmp	r2, ip
 80037c0:	d8f5      	bhi.n	80037ae <_malloc_r+0x2da>
 80037c2:	f8de 800c 	ldr.w	r8, [lr, #12]
 80037c6:	e7d1      	b.n	800376c <_malloc_r+0x298>
 80037c8:	6860      	ldr	r0, [r4, #4]
 80037ca:	f8d4 e00c 	ldr.w	lr, [r4, #12]
 80037ce:	f020 0003 	bic.w	r0, r0, #3
 80037d2:	eba0 0a05 	sub.w	sl, r0, r5
 80037d6:	f1ba 0f0f 	cmp.w	sl, #15
 80037da:	dd21      	ble.n	8003820 <_malloc_r+0x34c>
 80037dc:	68a2      	ldr	r2, [r4, #8]
 80037de:	1963      	adds	r3, r4, r5
 80037e0:	f045 0501 	orr.w	r5, r5, #1
 80037e4:	6065      	str	r5, [r4, #4]
 80037e6:	f8c2 e00c 	str.w	lr, [r2, #12]
 80037ea:	f8ce 2008 	str.w	r2, [lr, #8]
 80037ee:	f04a 0201 	orr.w	r2, sl, #1
 80037f2:	e9c7 3304 	strd	r3, r3, [r7, #16]
 80037f6:	e9c3 1102 	strd	r1, r1, [r3, #8]
 80037fa:	605a      	str	r2, [r3, #4]
 80037fc:	f844 a000 	str.w	sl, [r4, r0]
 8003800:	e699      	b.n	8003536 <_malloc_r+0x62>
 8003802:	bf00      	nop
 8003804:	20000948 	.word	0x20000948
 8003808:	20000950 	.word	0x20000950
 800380c:	20000f24 	.word	0x20000f24
 8003810:	20000d50 	.word	0x20000d50
 8003814:	20000f1c 	.word	0x20000f1c
 8003818:	20000f20 	.word	0x20000f20
 800381c:	20000ef4 	.word	0x20000ef4
 8003820:	f1ba 0f00 	cmp.w	sl, #0
 8003824:	db11      	blt.n	800384a <_malloc_r+0x376>
 8003826:	4420      	add	r0, r4
 8003828:	6843      	ldr	r3, [r0, #4]
 800382a:	f043 0301 	orr.w	r3, r3, #1
 800382e:	6043      	str	r3, [r0, #4]
 8003830:	f854 3f08 	ldr.w	r3, [r4, #8]!
 8003834:	4630      	mov	r0, r6
 8003836:	f8c3 e00c 	str.w	lr, [r3, #12]
 800383a:	f8ce 3008 	str.w	r3, [lr, #8]
 800383e:	f000 f88d 	bl	800395c <__malloc_unlock>
 8003842:	4620      	mov	r0, r4
 8003844:	b003      	add	sp, #12
 8003846:	e8bd 8ff0 	ldmia.w	sp!, {r4, r5, r6, r7, r8, r9, sl, fp, pc}
 800384a:	4674      	mov	r4, lr
 800384c:	e70a      	b.n	8003664 <_malloc_r+0x190>
 800384e:	f1ac 0008 	sub.w	r0, ip, #8
 8003852:	f8dc c000 	ldr.w	ip, [ip]
 8003856:	4584      	cmp	ip, r0
 8003858:	f103 33ff 	add.w	r3, r3, #4294967295	; 0xffffffff
 800385c:	f43f af0c 	beq.w	8003678 <_malloc_r+0x1a4>
 8003860:	e711      	b.n	8003686 <_malloc_r+0x1b2>
 8003862:	3304      	adds	r3, #4
 8003864:	0052      	lsls	r2, r2, #1
 8003866:	4210      	tst	r0, r2
 8003868:	d0fb      	beq.n	8003862 <_malloc_r+0x38e>
 800386a:	e6f5      	b.n	8003658 <_malloc_r+0x184>
 800386c:	4643      	mov	r3, r8
 800386e:	e7fa      	b.n	8003866 <_malloc_r+0x392>
 8003870:	6818      	ldr	r0, [r3, #0]
 8003872:	9200      	str	r2, [sp, #0]
 8003874:	3001      	adds	r0, #1
 8003876:	bf1b      	ittet	ne
 8003878:	ebab 0101 	subne.w	r1, fp, r1
 800387c:	4471      	addne	r1, lr
 800387e:	f8c3 b000 	streq.w	fp, [r3]
 8003882:	f8c9 1000 	strne.w	r1, [r9]
 8003886:	f01b 0307 	ands.w	r3, fp, #7
 800388a:	bf1c      	itt	ne
 800388c:	f1c3 0308 	rsbne	r3, r3, #8
 8003890:	449b      	addne	fp, r3
 8003892:	445c      	add	r4, fp
 8003894:	4498      	add	r8, r3
 8003896:	ea04 030c 	and.w	r3, r4, ip
 800389a:	eba8 0803 	sub.w	r8, r8, r3
 800389e:	4641      	mov	r1, r8
 80038a0:	4630      	mov	r0, r6
 80038a2:	f000 f8cb 	bl	8003a3c <_sbrk_r>
 80038a6:	1c43      	adds	r3, r0, #1
 80038a8:	bf04      	itt	eq
 80038aa:	4658      	moveq	r0, fp
 80038ac:	f04f 0800 	moveq.w	r8, #0
 80038b0:	f8d9 3000 	ldr.w	r3, [r9]
 80038b4:	f8c7 b008 	str.w	fp, [r7, #8]
 80038b8:	eba0 000b 	sub.w	r0, r0, fp
 80038bc:	4440      	add	r0, r8
 80038be:	4443      	add	r3, r8
 80038c0:	f040 0001 	orr.w	r0, r0, #1
 80038c4:	45ba      	cmp	sl, r7
 80038c6:	9a00      	ldr	r2, [sp, #0]
 80038c8:	f8c9 3000 	str.w	r3, [r9]
 80038cc:	f8cb 0004 	str.w	r0, [fp, #4]
 80038d0:	f43f af29 	beq.w	8003726 <_malloc_r+0x252>
 80038d4:	2a0f      	cmp	r2, #15
 80038d6:	d810      	bhi.n	80038fa <_malloc_r+0x426>
 80038d8:	2301      	movs	r3, #1
 80038da:	f8cb 3004 	str.w	r3, [fp, #4]
 80038de:	68bb      	ldr	r3, [r7, #8]
 80038e0:	685a      	ldr	r2, [r3, #4]
 80038e2:	f022 0203 	bic.w	r2, r2, #3
 80038e6:	42aa      	cmp	r2, r5
 80038e8:	eba2 0305 	sub.w	r3, r2, r5
 80038ec:	d301      	bcc.n	80038f2 <_malloc_r+0x41e>
 80038ee:	2b0f      	cmp	r3, #15
 80038f0:	dc1c      	bgt.n	800392c <_malloc_r+0x458>
 80038f2:	4630      	mov	r0, r6
 80038f4:	f000 f832 	bl	800395c <__malloc_unlock>
 80038f8:	e5f8      	b.n	80034ec <_malloc_r+0x18>
 80038fa:	f8da 3004 	ldr.w	r3, [sl, #4]
 80038fe:	f1a2 040c 	sub.w	r4, r2, #12
 8003902:	f024 0407 	bic.w	r4, r4, #7
 8003906:	f003 0301 	and.w	r3, r3, #1
 800390a:	4323      	orrs	r3, r4
 800390c:	f8ca 3004 	str.w	r3, [sl, #4]
 8003910:	2205      	movs	r2, #5
 8003912:	eb0a 0304 	add.w	r3, sl, r4
 8003916:	2c0f      	cmp	r4, #15
 8003918:	e9c3 2201 	strd	r2, r2, [r3, #4]
 800391c:	f67f af03 	bls.w	8003726 <_malloc_r+0x252>
 8003920:	f10a 0108 	add.w	r1, sl, #8
 8003924:	4630      	mov	r0, r6
 8003926:	f002 fc25 	bl	8006174 <_free_r>
 800392a:	e6fc      	b.n	8003726 <_malloc_r+0x252>
 800392c:	68bc      	ldr	r4, [r7, #8]
 800392e:	f045 0201 	orr.w	r2, r5, #1
 8003932:	4425      	add	r5, r4
 8003934:	f043 0301 	orr.w	r3, r3, #1
 8003938:	6062      	str	r2, [r4, #4]
 800393a:	60bd      	str	r5, [r7, #8]
 800393c:	606b      	str	r3, [r5, #4]
 800393e:	e5fa      	b.n	8003536 <_malloc_r+0x62>

08003940 <memset>:
 8003940:	4402      	add	r2, r0
 8003942:	4603      	mov	r3, r0
 8003944:	4293      	cmp	r3, r2
 8003946:	d100      	bne.n	800394a <memset+0xa>
 8003948:	4770      	bx	lr
 800394a:	f803 1b01 	strb.w	r1, [r3], #1
 800394e:	e7f9      	b.n	8003944 <memset+0x4>

08003950 <__malloc_lock>:
 8003950:	4801      	ldr	r0, [pc, #4]	; (8003958 <__malloc_lock+0x8>)
 8003952:	f002 be59 	b.w	8006608 <__retarget_lock_acquire_recursive>
 8003956:	bf00      	nop
 8003958:	200011b8 	.word	0x200011b8

0800395c <__malloc_unlock>:
 800395c:	4801      	ldr	r0, [pc, #4]	; (8003964 <__malloc_unlock+0x8>)
 800395e:	f002 be54 	b.w	800660a <__retarget_lock_release_recursive>
 8003962:	bf00      	nop
 8003964:	200011b8 	.word	0x200011b8

08003968 <printf>:
 8003968:	b40f      	push	{r0, r1, r2, r3}
 800396a:	b507      	push	{r0, r1, r2, lr}
 800396c:	4906      	ldr	r1, [pc, #24]	; (8003988 <printf+0x20>)
 800396e:	ab04      	add	r3, sp, #16
 8003970:	6808      	ldr	r0, [r1, #0]
 8003972:	f853 2b04 	ldr.w	r2, [r3], #4
 8003976:	6881      	ldr	r1, [r0, #8]
 8003978:	9301      	str	r3, [sp, #4]
 800397a:	f000 f921 	bl	8003bc0 <_vfprintf_r>
 800397e:	b003      	add	sp, #12
 8003980:	f85d eb04 	ldr.w	lr, [sp], #4
 8003984:	b004      	add	sp, #16
 8003986:	4770      	bx	lr
 8003988:	20000518 	.word	0x20000518

0800398c <putchar>:
 800398c:	4b03      	ldr	r3, [pc, #12]	; (800399c <putchar+0x10>)
 800398e:	681b      	ldr	r3, [r3, #0]
 8003990:	4601      	mov	r1, r0
 8003992:	689a      	ldr	r2, [r3, #8]
 8003994:	4618      	mov	r0, r3
 8003996:	f003 b98b 	b.w	8006cb0 <_putc_r>
 800399a:	bf00      	nop
 800399c:	20000518 	.word	0x20000518

080039a0 <_puts_r>:
 80039a0:	b530      	push	{r4, r5, lr}
 80039a2:	4605      	mov	r5, r0
 80039a4:	b089      	sub	sp, #36	; 0x24
 80039a6:	4608      	mov	r0, r1
 80039a8:	460c      	mov	r4, r1
 80039aa:	f7fc fc31 	bl	8000210 <strlen>
 80039ae:	4b1e      	ldr	r3, [pc, #120]	; (8003a28 <_puts_r+0x88>)
 80039b0:	9306      	str	r3, [sp, #24]
 80039b2:	2301      	movs	r3, #1
 80039b4:	e9cd 4004 	strd	r4, r0, [sp, #16]
 80039b8:	9307      	str	r3, [sp, #28]
 80039ba:	4418      	add	r0, r3
 80039bc:	ab04      	add	r3, sp, #16
 80039be:	9301      	str	r3, [sp, #4]
 80039c0:	2302      	movs	r3, #2
 80039c2:	9302      	str	r3, [sp, #8]
 80039c4:	6bab      	ldr	r3, [r5, #56]	; 0x38
 80039c6:	9003      	str	r0, [sp, #12]
 80039c8:	68ac      	ldr	r4, [r5, #8]
 80039ca:	b913      	cbnz	r3, 80039d2 <_puts_r+0x32>
 80039cc:	4628      	mov	r0, r5
 80039ce:	f002 fb41 	bl	8006054 <__sinit>
 80039d2:	6e63      	ldr	r3, [r4, #100]	; 0x64
 80039d4:	07db      	lsls	r3, r3, #31
 80039d6:	d405      	bmi.n	80039e4 <_puts_r+0x44>
 80039d8:	89a3      	ldrh	r3, [r4, #12]
 80039da:	0598      	lsls	r0, r3, #22
 80039dc:	d402      	bmi.n	80039e4 <_puts_r+0x44>
 80039de:	6da0      	ldr	r0, [r4, #88]	; 0x58
 80039e0:	f002 fe12 	bl	8006608 <__retarget_lock_acquire_recursive>
 80039e4:	f9b4 300c 	ldrsh.w	r3, [r4, #12]
 80039e8:	0499      	lsls	r1, r3, #18
 80039ea:	d406      	bmi.n	80039fa <_puts_r+0x5a>
 80039ec:	f443 5300 	orr.w	r3, r3, #8192	; 0x2000
 80039f0:	81a3      	strh	r3, [r4, #12]
 80039f2:	6e63      	ldr	r3, [r4, #100]	; 0x64
 80039f4:	f423 5300 	bic.w	r3, r3, #8192	; 0x2000
 80039f8:	6663      	str	r3, [r4, #100]	; 0x64
 80039fa:	4628      	mov	r0, r5
 80039fc:	aa01      	add	r2, sp, #4
 80039fe:	4621      	mov	r1, r4
 8003a00:	f002 fc74 	bl	80062ec <__sfvwrite_r>
 8003a04:	6e63      	ldr	r3, [r4, #100]	; 0x64
 8003a06:	2800      	cmp	r0, #0
 8003a08:	bf0c      	ite	eq
 8003a0a:	250a      	moveq	r5, #10
 8003a0c:	f04f 35ff 	movne.w	r5, #4294967295	; 0xffffffff
 8003a10:	07da      	lsls	r2, r3, #31
 8003a12:	d405      	bmi.n	8003a20 <_puts_r+0x80>
 8003a14:	89a3      	ldrh	r3, [r4, #12]
 8003a16:	059b      	lsls	r3, r3, #22
 8003a18:	d402      	bmi.n	8003a20 <_puts_r+0x80>
 8003a1a:	6da0      	ldr	r0, [r4, #88]	; 0x58
 8003a1c:	f002 fdf5 	bl	800660a <__retarget_lock_release_recursive>
 8003a20:	4628      	mov	r0, r5
 8003a22:	b009      	add	sp, #36	; 0x24
 8003a24:	bd30      	pop	{r4, r5, pc}
 8003a26:	bf00      	nop
 8003a28:	080077ac 	.word	0x080077ac

08003a2c <puts>:
 8003a2c:	4b02      	ldr	r3, [pc, #8]	; (8003a38 <puts+0xc>)
 8003a2e:	4601      	mov	r1, r0
 8003a30:	6818      	ldr	r0, [r3, #0]
 8003a32:	f7ff bfb5 	b.w	80039a0 <_puts_r>
 8003a36:	bf00      	nop
 8003a38:	20000518 	.word	0x20000518

08003a3c <_sbrk_r>:
 8003a3c:	b538      	push	{r3, r4, r5, lr}
 8003a3e:	4c06      	ldr	r4, [pc, #24]	; (8003a58 <_sbrk_r+0x1c>)
 8003a40:	2300      	movs	r3, #0
 8003a42:	4605      	mov	r5, r0
 8003a44:	4608      	mov	r0, r1
 8003a46:	6023      	str	r3, [r4, #0]
 8003a48:	f7ff faa0 	bl	8002f8c <_sbrk>
 8003a4c:	1c43      	adds	r3, r0, #1
 8003a4e:	d102      	bne.n	8003a56 <_sbrk_r+0x1a>
 8003a50:	6823      	ldr	r3, [r4, #0]
 8003a52:	b103      	cbz	r3, 8003a56 <_sbrk_r+0x1a>
 8003a54:	602b      	str	r3, [r5, #0]
 8003a56:	bd38      	pop	{r3, r4, r5, pc}
 8003a58:	200011c0 	.word	0x200011c0

08003a5c <strncmp>:
 8003a5c:	b510      	push	{r4, lr}
 8003a5e:	b16a      	cbz	r2, 8003a7c <strncmp+0x20>
 8003a60:	3901      	subs	r1, #1
 8003a62:	1884      	adds	r4, r0, r2
 8003a64:	f810 3b01 	ldrb.w	r3, [r0], #1
 8003a68:	f811 2f01 	ldrb.w	r2, [r1, #1]!
 8003a6c:	4293      	cmp	r3, r2
 8003a6e:	d103      	bne.n	8003a78 <strncmp+0x1c>
 8003a70:	42a0      	cmp	r0, r4
 8003a72:	d001      	beq.n	8003a78 <strncmp+0x1c>
 8003a74:	2b00      	cmp	r3, #0
 8003a76:	d1f5      	bne.n	8003a64 <strncmp+0x8>
 8003a78:	1a98      	subs	r0, r3, r2
 8003a7a:	bd10      	pop	{r4, pc}
 8003a7c:	4610      	mov	r0, r2
 8003a7e:	e7fc      	b.n	8003a7a <strncmp+0x1e>

08003a80 <_strtol_l.isra.0>:
 8003a80:	e92d 47f0 	stmdb	sp!, {r4, r5, r6, r7, r8, r9, sl, lr}
 8003a84:	4680      	mov	r8, r0
 8003a86:	4689      	mov	r9, r1
 8003a88:	4692      	mov	sl, r2
 8003a8a:	461e      	mov	r6, r3
 8003a8c:	460f      	mov	r7, r1
 8003a8e:	463d      	mov	r5, r7
 8003a90:	9808      	ldr	r0, [sp, #32]
 8003a92:	f815 4b01 	ldrb.w	r4, [r5], #1
 8003a96:	f002 fda3 	bl	80065e0 <__locale_ctype_ptr_l>
 8003a9a:	4420      	add	r0, r4
 8003a9c:	7843      	ldrb	r3, [r0, #1]
 8003a9e:	f013 0308 	ands.w	r3, r3, #8
 8003aa2:	d132      	bne.n	8003b0a <_strtol_l.isra.0+0x8a>
 8003aa4:	2c2d      	cmp	r4, #45	; 0x2d
 8003aa6:	d132      	bne.n	8003b0e <_strtol_l.isra.0+0x8e>
 8003aa8:	787c      	ldrb	r4, [r7, #1]
 8003aaa:	1cbd      	adds	r5, r7, #2
 8003aac:	2201      	movs	r2, #1
 8003aae:	2e00      	cmp	r6, #0
 8003ab0:	d05d      	beq.n	8003b6e <_strtol_l.isra.0+0xee>
 8003ab2:	2e10      	cmp	r6, #16
 8003ab4:	d109      	bne.n	8003aca <_strtol_l.isra.0+0x4a>
 8003ab6:	2c30      	cmp	r4, #48	; 0x30
 8003ab8:	d107      	bne.n	8003aca <_strtol_l.isra.0+0x4a>
 8003aba:	782b      	ldrb	r3, [r5, #0]
 8003abc:	f003 03df 	and.w	r3, r3, #223	; 0xdf
 8003ac0:	2b58      	cmp	r3, #88	; 0x58
 8003ac2:	d14f      	bne.n	8003b64 <_strtol_l.isra.0+0xe4>
 8003ac4:	786c      	ldrb	r4, [r5, #1]
 8003ac6:	2610      	movs	r6, #16
 8003ac8:	3502      	adds	r5, #2
 8003aca:	2a00      	cmp	r2, #0
 8003acc:	bf14      	ite	ne
 8003ace:	f04f 4100 	movne.w	r1, #2147483648	; 0x80000000
 8003ad2:	f06f 4100 	mvneq.w	r1, #2147483648	; 0x80000000
 8003ad6:	2700      	movs	r7, #0
 8003ad8:	fbb1 fcf6 	udiv	ip, r1, r6
 8003adc:	4638      	mov	r0, r7
 8003ade:	fb06 1e1c 	mls	lr, r6, ip, r1
 8003ae2:	f1a4 0330 	sub.w	r3, r4, #48	; 0x30
 8003ae6:	2b09      	cmp	r3, #9
 8003ae8:	d817      	bhi.n	8003b1a <_strtol_l.isra.0+0x9a>
 8003aea:	461c      	mov	r4, r3
 8003aec:	42a6      	cmp	r6, r4
 8003aee:	dd23      	ble.n	8003b38 <_strtol_l.isra.0+0xb8>
 8003af0:	1c7b      	adds	r3, r7, #1
 8003af2:	d007      	beq.n	8003b04 <_strtol_l.isra.0+0x84>
 8003af4:	4584      	cmp	ip, r0
 8003af6:	d31c      	bcc.n	8003b32 <_strtol_l.isra.0+0xb2>
 8003af8:	d101      	bne.n	8003afe <_strtol_l.isra.0+0x7e>
 8003afa:	45a6      	cmp	lr, r4
 8003afc:	db19      	blt.n	8003b32 <_strtol_l.isra.0+0xb2>
 8003afe:	fb00 4006 	mla	r0, r0, r6, r4
 8003b02:	2701      	movs	r7, #1
 8003b04:	f815 4b01 	ldrb.w	r4, [r5], #1
 8003b08:	e7eb      	b.n	8003ae2 <_strtol_l.isra.0+0x62>
 8003b0a:	462f      	mov	r7, r5
 8003b0c:	e7bf      	b.n	8003a8e <_strtol_l.isra.0+0xe>
 8003b0e:	2c2b      	cmp	r4, #43	; 0x2b
 8003b10:	bf04      	itt	eq
 8003b12:	1cbd      	addeq	r5, r7, #2
 8003b14:	787c      	ldrbeq	r4, [r7, #1]
 8003b16:	461a      	mov	r2, r3
 8003b18:	e7c9      	b.n	8003aae <_strtol_l.isra.0+0x2e>
 8003b1a:	f1a4 0341 	sub.w	r3, r4, #65	; 0x41
 8003b1e:	2b19      	cmp	r3, #25
 8003b20:	d801      	bhi.n	8003b26 <_strtol_l.isra.0+0xa6>
 8003b22:	3c37      	subs	r4, #55	; 0x37
 8003b24:	e7e2      	b.n	8003aec <_strtol_l.isra.0+0x6c>
 8003b26:	f1a4 0361 	sub.w	r3, r4, #97	; 0x61
 8003b2a:	2b19      	cmp	r3, #25
 8003b2c:	d804      	bhi.n	8003b38 <_strtol_l.isra.0+0xb8>
 8003b2e:	3c57      	subs	r4, #87	; 0x57
 8003b30:	e7dc      	b.n	8003aec <_strtol_l.isra.0+0x6c>
 8003b32:	f04f 37ff 	mov.w	r7, #4294967295	; 0xffffffff
 8003b36:	e7e5      	b.n	8003b04 <_strtol_l.isra.0+0x84>
 8003b38:	1c7b      	adds	r3, r7, #1
 8003b3a:	d108      	bne.n	8003b4e <_strtol_l.isra.0+0xce>
 8003b3c:	2322      	movs	r3, #34	; 0x22
 8003b3e:	f8c8 3000 	str.w	r3, [r8]
 8003b42:	4608      	mov	r0, r1
 8003b44:	f1ba 0f00 	cmp.w	sl, #0
 8003b48:	d107      	bne.n	8003b5a <_strtol_l.isra.0+0xda>
 8003b4a:	e8bd 87f0 	ldmia.w	sp!, {r4, r5, r6, r7, r8, r9, sl, pc}
 8003b4e:	b102      	cbz	r2, 8003b52 <_strtol_l.isra.0+0xd2>
 8003b50:	4240      	negs	r0, r0
 8003b52:	f1ba 0f00 	cmp.w	sl, #0
 8003b56:	d0f8      	beq.n	8003b4a <_strtol_l.isra.0+0xca>
 8003b58:	b10f      	cbz	r7, 8003b5e <_strtol_l.isra.0+0xde>
 8003b5a:	f105 39ff 	add.w	r9, r5, #4294967295	; 0xffffffff
 8003b5e:	f8ca 9000 	str.w	r9, [sl]
 8003b62:	e7f2      	b.n	8003b4a <_strtol_l.isra.0+0xca>
 8003b64:	2430      	movs	r4, #48	; 0x30
 8003b66:	2e00      	cmp	r6, #0
 8003b68:	d1af      	bne.n	8003aca <_strtol_l.isra.0+0x4a>
 8003b6a:	2608      	movs	r6, #8
 8003b6c:	e7ad      	b.n	8003aca <_strtol_l.isra.0+0x4a>
 8003b6e:	2c30      	cmp	r4, #48	; 0x30
 8003b70:	d0a3      	beq.n	8003aba <_strtol_l.isra.0+0x3a>
 8003b72:	260a      	movs	r6, #10
 8003b74:	e7a9      	b.n	8003aca <_strtol_l.isra.0+0x4a>
	...

08003b78 <strtol>:
 8003b78:	4b08      	ldr	r3, [pc, #32]	; (8003b9c <strtol+0x24>)
 8003b7a:	b537      	push	{r0, r1, r2, r4, r5, lr}
 8003b7c:	681c      	ldr	r4, [r3, #0]
 8003b7e:	4d08      	ldr	r5, [pc, #32]	; (8003ba0 <strtol+0x28>)
 8003b80:	6b63      	ldr	r3, [r4, #52]	; 0x34
 8003b82:	2b00      	cmp	r3, #0
 8003b84:	bf08      	it	eq
 8003b86:	462b      	moveq	r3, r5
 8003b88:	9300      	str	r3, [sp, #0]
 8003b8a:	4613      	mov	r3, r2
 8003b8c:	460a      	mov	r2, r1
 8003b8e:	4601      	mov	r1, r0
 8003b90:	4620      	mov	r0, r4
 8003b92:	f7ff ff75 	bl	8003a80 <_strtol_l.isra.0>
 8003b96:	b003      	add	sp, #12
 8003b98:	bd30      	pop	{r4, r5, pc}
 8003b9a:	bf00      	nop
 8003b9c:	20000518 	.word	0x20000518
 8003ba0:	20000d5c 	.word	0x20000d5c

08003ba4 <sysconf>:
 8003ba4:	2808      	cmp	r0, #8
 8003ba6:	b508      	push	{r3, lr}
 8003ba8:	d006      	beq.n	8003bb8 <sysconf+0x14>
 8003baa:	f7ff fc59 	bl	8003460 <__errno>
 8003bae:	2316      	movs	r3, #22
 8003bb0:	6003      	str	r3, [r0, #0]
 8003bb2:	f04f 30ff 	mov.w	r0, #4294967295	; 0xffffffff
 8003bb6:	bd08      	pop	{r3, pc}
 8003bb8:	f44f 5080 	mov.w	r0, #4096	; 0x1000
 8003bbc:	e7fb      	b.n	8003bb6 <sysconf+0x12>
	...

08003bc0 <_vfprintf_r>:
 8003bc0:	e92d 4ff0 	stmdb	sp!, {r4, r5, r6, r7, r8, r9, sl, fp, lr}
 8003bc4:	b0d3      	sub	sp, #332	; 0x14c
 8003bc6:	4688      	mov	r8, r1
 8003bc8:	4691      	mov	r9, r2
 8003bca:	461c      	mov	r4, r3
 8003bcc:	461e      	mov	r6, r3
 8003bce:	4683      	mov	fp, r0
 8003bd0:	f002 fd0a 	bl	80065e8 <_localeconv_r>
 8003bd4:	6803      	ldr	r3, [r0, #0]
 8003bd6:	9316      	str	r3, [sp, #88]	; 0x58
 8003bd8:	4618      	mov	r0, r3
 8003bda:	f7fc fb19 	bl	8000210 <strlen>
 8003bde:	900d      	str	r0, [sp, #52]	; 0x34
 8003be0:	f1bb 0f00 	cmp.w	fp, #0
 8003be4:	d005      	beq.n	8003bf2 <_vfprintf_r+0x32>
 8003be6:	f8db 3038 	ldr.w	r3, [fp, #56]	; 0x38
 8003bea:	b913      	cbnz	r3, 8003bf2 <_vfprintf_r+0x32>
 8003bec:	4658      	mov	r0, fp
 8003bee:	f002 fa31 	bl	8006054 <__sinit>
 8003bf2:	f8d8 3064 	ldr.w	r3, [r8, #100]	; 0x64
 8003bf6:	07d8      	lsls	r0, r3, #31
 8003bf8:	d407      	bmi.n	8003c0a <_vfprintf_r+0x4a>
 8003bfa:	f8b8 300c 	ldrh.w	r3, [r8, #12]
 8003bfe:	0599      	lsls	r1, r3, #22
 8003c00:	d403      	bmi.n	8003c0a <_vfprintf_r+0x4a>
 8003c02:	f8d8 0058 	ldr.w	r0, [r8, #88]	; 0x58
 8003c06:	f002 fcff 	bl	8006608 <__retarget_lock_acquire_recursive>
 8003c0a:	f9b8 300c 	ldrsh.w	r3, [r8, #12]
 8003c0e:	049a      	lsls	r2, r3, #18
 8003c10:	d409      	bmi.n	8003c26 <_vfprintf_r+0x66>
 8003c12:	f443 5300 	orr.w	r3, r3, #8192	; 0x2000
 8003c16:	f8a8 300c 	strh.w	r3, [r8, #12]
 8003c1a:	f8d8 3064 	ldr.w	r3, [r8, #100]	; 0x64
 8003c1e:	f423 5300 	bic.w	r3, r3, #8192	; 0x2000
 8003c22:	f8c8 3064 	str.w	r3, [r8, #100]	; 0x64
 8003c26:	f8b8 300c 	ldrh.w	r3, [r8, #12]
 8003c2a:	071f      	lsls	r7, r3, #28
 8003c2c:	d502      	bpl.n	8003c34 <_vfprintf_r+0x74>
 8003c2e:	f8d8 3010 	ldr.w	r3, [r8, #16]
 8003c32:	b9a3      	cbnz	r3, 8003c5e <_vfprintf_r+0x9e>
 8003c34:	4641      	mov	r1, r8
 8003c36:	4658      	mov	r0, fp
 8003c38:	f001 fa74 	bl	8005124 <__swsetup_r>
 8003c3c:	b178      	cbz	r0, 8003c5e <_vfprintf_r+0x9e>
 8003c3e:	f8d8 3064 	ldr.w	r3, [r8, #100]	; 0x64
 8003c42:	07dd      	lsls	r5, r3, #31
 8003c44:	d407      	bmi.n	8003c56 <_vfprintf_r+0x96>
 8003c46:	f8b8 300c 	ldrh.w	r3, [r8, #12]
 8003c4a:	059c      	lsls	r4, r3, #22
 8003c4c:	d403      	bmi.n	8003c56 <_vfprintf_r+0x96>
 8003c4e:	f8d8 0058 	ldr.w	r0, [r8, #88]	; 0x58
 8003c52:	f002 fcda 	bl	800660a <__retarget_lock_release_recursive>
 8003c56:	f04f 33ff 	mov.w	r3, #4294967295	; 0xffffffff
 8003c5a:	930e      	str	r3, [sp, #56]	; 0x38
 8003c5c:	e01a      	b.n	8003c94 <_vfprintf_r+0xd4>
 8003c5e:	f8b8 300c 	ldrh.w	r3, [r8, #12]
 8003c62:	f003 021a 	and.w	r2, r3, #26
 8003c66:	2a0a      	cmp	r2, #10
 8003c68:	d118      	bne.n	8003c9c <_vfprintf_r+0xdc>
 8003c6a:	f9b8 200e 	ldrsh.w	r2, [r8, #14]
 8003c6e:	2a00      	cmp	r2, #0
 8003c70:	db14      	blt.n	8003c9c <_vfprintf_r+0xdc>
 8003c72:	f8d8 2064 	ldr.w	r2, [r8, #100]	; 0x64
 8003c76:	07d0      	lsls	r0, r2, #31
 8003c78:	d405      	bmi.n	8003c86 <_vfprintf_r+0xc6>
 8003c7a:	0599      	lsls	r1, r3, #22
 8003c7c:	d403      	bmi.n	8003c86 <_vfprintf_r+0xc6>
 8003c7e:	f8d8 0058 	ldr.w	r0, [r8, #88]	; 0x58
 8003c82:	f002 fcc2 	bl	800660a <__retarget_lock_release_recursive>
 8003c86:	4623      	mov	r3, r4
 8003c88:	464a      	mov	r2, r9
 8003c8a:	4641      	mov	r1, r8
 8003c8c:	4658      	mov	r0, fp
 8003c8e:	f001 fa09 	bl	80050a4 <__sbprintf>
 8003c92:	900e      	str	r0, [sp, #56]	; 0x38
 8003c94:	980e      	ldr	r0, [sp, #56]	; 0x38
 8003c96:	b053      	add	sp, #332	; 0x14c
 8003c98:	e8bd 8ff0 	ldmia.w	sp!, {r4, r5, r6, r7, r8, r9, sl, fp, pc}
 8003c9c:	ed9f 7bc8 	vldr	d7, [pc, #800]	; 8003fc0 <_vfprintf_r+0x400>
 8003ca0:	2300      	movs	r3, #0
 8003ca2:	e9cd 3327 	strd	r3, r3, [sp, #156]	; 0x9c
 8003ca6:	ed8d 7b0a 	vstr	d7, [sp, #40]	; 0x28
 8003caa:	e9cd 3317 	strd	r3, r3, [sp, #92]	; 0x5c
 8003cae:	ac29      	add	r4, sp, #164	; 0xa4
 8003cb0:	9426      	str	r4, [sp, #152]	; 0x98
 8003cb2:	9304      	str	r3, [sp, #16]
 8003cb4:	9308      	str	r3, [sp, #32]
 8003cb6:	9312      	str	r3, [sp, #72]	; 0x48
 8003cb8:	9319      	str	r3, [sp, #100]	; 0x64
 8003cba:	930e      	str	r3, [sp, #56]	; 0x38
 8003cbc:	464d      	mov	r5, r9
 8003cbe:	462b      	mov	r3, r5
 8003cc0:	f813 2b01 	ldrb.w	r2, [r3], #1
 8003cc4:	b112      	cbz	r2, 8003ccc <_vfprintf_r+0x10c>
 8003cc6:	2a25      	cmp	r2, #37	; 0x25
 8003cc8:	f040 80e4 	bne.w	8003e94 <_vfprintf_r+0x2d4>
 8003ccc:	ebb5 0709 	subs.w	r7, r5, r9
 8003cd0:	d00e      	beq.n	8003cf0 <_vfprintf_r+0x130>
 8003cd2:	9b28      	ldr	r3, [sp, #160]	; 0xa0
 8003cd4:	443b      	add	r3, r7
 8003cd6:	9328      	str	r3, [sp, #160]	; 0xa0
 8003cd8:	9b27      	ldr	r3, [sp, #156]	; 0x9c
 8003cda:	3301      	adds	r3, #1
 8003cdc:	2b07      	cmp	r3, #7
 8003cde:	e9c4 9700 	strd	r9, r7, [r4]
 8003ce2:	9327      	str	r3, [sp, #156]	; 0x9c
 8003ce4:	f300 80d8 	bgt.w	8003e98 <_vfprintf_r+0x2d8>
 8003ce8:	3408      	adds	r4, #8
 8003cea:	9b0e      	ldr	r3, [sp, #56]	; 0x38
 8003cec:	443b      	add	r3, r7
 8003cee:	930e      	str	r3, [sp, #56]	; 0x38
 8003cf0:	782b      	ldrb	r3, [r5, #0]
 8003cf2:	2b00      	cmp	r3, #0
 8003cf4:	f001 81c2 	beq.w	800507c <_vfprintf_r+0x14bc>
 8003cf8:	1c6b      	adds	r3, r5, #1
 8003cfa:	930c      	str	r3, [sp, #48]	; 0x30
 8003cfc:	2300      	movs	r3, #0
 8003cfe:	f88d 307b 	strb.w	r3, [sp, #123]	; 0x7b
 8003d02:	f04f 35ff 	mov.w	r5, #4294967295	; 0xffffffff
 8003d06:	930f      	str	r3, [sp, #60]	; 0x3c
 8003d08:	469a      	mov	sl, r3
 8003d0a:	270a      	movs	r7, #10
 8003d0c:	9b0c      	ldr	r3, [sp, #48]	; 0x30
 8003d0e:	781b      	ldrb	r3, [r3, #0]
 8003d10:	9306      	str	r3, [sp, #24]
 8003d12:	9b0c      	ldr	r3, [sp, #48]	; 0x30
 8003d14:	3301      	adds	r3, #1
 8003d16:	930c      	str	r3, [sp, #48]	; 0x30
 8003d18:	9b06      	ldr	r3, [sp, #24]
 8003d1a:	3b20      	subs	r3, #32
 8003d1c:	2b5a      	cmp	r3, #90	; 0x5a
 8003d1e:	f200 862f 	bhi.w	8004980 <_vfprintf_r+0xdc0>
 8003d22:	a201      	add	r2, pc, #4	; (adr r2, 8003d28 <_vfprintf_r+0x168>)
 8003d24:	f852 f023 	ldr.w	pc, [r2, r3, lsl #2]
 8003d28:	08003f2b 	.word	0x08003f2b
 8003d2c:	08004981 	.word	0x08004981
 8003d30:	08004981 	.word	0x08004981
 8003d34:	08003f3d 	.word	0x08003f3d
 8003d38:	08004981 	.word	0x08004981
 8003d3c:	08004981 	.word	0x08004981
 8003d40:	08004981 	.word	0x08004981
 8003d44:	08003ef1 	.word	0x08003ef1
 8003d48:	08004981 	.word	0x08004981
 8003d4c:	08004981 	.word	0x08004981
 8003d50:	08003f43 	.word	0x08003f43
 8003d54:	08003f5b 	.word	0x08003f5b
 8003d58:	08004981 	.word	0x08004981
 8003d5c:	08003f55 	.word	0x08003f55
 8003d60:	08003f5f 	.word	0x08003f5f
 8003d64:	08004981 	.word	0x08004981
 8003d68:	08003f93 	.word	0x08003f93
 8003d6c:	08003f99 	.word	0x08003f99
 8003d70:	08003f99 	.word	0x08003f99
 8003d74:	08003f99 	.word	0x08003f99
 8003d78:	08003f99 	.word	0x08003f99
 8003d7c:	08003f99 	.word	0x08003f99
 8003d80:	08003f99 	.word	0x08003f99
 8003d84:	08003f99 	.word	0x08003f99
 8003d88:	08003f99 	.word	0x08003f99
 8003d8c:	08003f99 	.word	0x08003f99
 8003d90:	08004981 	.word	0x08004981
 8003d94:	08004981 	.word	0x08004981
 8003d98:	08004981 	.word	0x08004981
 8003d9c:	08004981 	.word	0x08004981
 8003da0:	08004981 	.word	0x08004981
 8003da4:	08004981 	.word	0x08004981
 8003da8:	08004981 	.word	0x08004981
 8003dac:	08004097 	.word	0x08004097
 8003db0:	08004981 	.word	0x08004981
 8003db4:	08004001 	.word	0x08004001
 8003db8:	08004023 	.word	0x08004023
 8003dbc:	08004097 	.word	0x08004097
 8003dc0:	08004097 	.word	0x08004097
 8003dc4:	08004097 	.word	0x08004097
 8003dc8:	08004981 	.word	0x08004981
 8003dcc:	08004981 	.word	0x08004981
 8003dd0:	08004981 	.word	0x08004981
 8003dd4:	08004981 	.word	0x08004981
 8003dd8:	08003fb9 	.word	0x08003fb9
 8003ddc:	08004981 	.word	0x08004981
 8003de0:	08004981 	.word	0x08004981
 8003de4:	0800457d 	.word	0x0800457d
 8003de8:	08004981 	.word	0x08004981
 8003dec:	08004981 	.word	0x08004981
 8003df0:	08004981 	.word	0x08004981
 8003df4:	08004609 	.word	0x08004609
 8003df8:	08004981 	.word	0x08004981
 8003dfc:	080047ed 	.word	0x080047ed
 8003e00:	08004981 	.word	0x08004981
 8003e04:	08004981 	.word	0x08004981
 8003e08:	08003eb1 	.word	0x08003eb1
 8003e0c:	08004981 	.word	0x08004981
 8003e10:	08004981 	.word	0x08004981
 8003e14:	08004981 	.word	0x08004981
 8003e18:	08004981 	.word	0x08004981
 8003e1c:	08004981 	.word	0x08004981
 8003e20:	08004981 	.word	0x08004981
 8003e24:	08004981 	.word	0x08004981
 8003e28:	08004981 	.word	0x08004981
 8003e2c:	08004097 	.word	0x08004097
 8003e30:	08004981 	.word	0x08004981
 8003e34:	08004001 	.word	0x08004001
 8003e38:	08004027 	.word	0x08004027
 8003e3c:	08004097 	.word	0x08004097
 8003e40:	08004097 	.word	0x08004097
 8003e44:	08004097 	.word	0x08004097
 8003e48:	08003fcd 	.word	0x08003fcd
 8003e4c:	08004027 	.word	0x08004027
 8003e50:	08003ff5 	.word	0x08003ff5
 8003e54:	08004981 	.word	0x08004981
 8003e58:	08003fe7 	.word	0x08003fe7
 8003e5c:	08004981 	.word	0x08004981
 8003e60:	08004537 	.word	0x08004537
 8003e64:	08004581 	.word	0x08004581
 8003e68:	080045e9 	.word	0x080045e9
 8003e6c:	08003ff5 	.word	0x08003ff5
 8003e70:	08004981 	.word	0x08004981
 8003e74:	08004609 	.word	0x08004609
 8003e78:	08003d0d 	.word	0x08003d0d
 8003e7c:	080047f1 	.word	0x080047f1
 8003e80:	08004981 	.word	0x08004981
 8003e84:	08004981 	.word	0x08004981
 8003e88:	0800482f 	.word	0x0800482f
 8003e8c:	08004981 	.word	0x08004981
 8003e90:	08003d0d 	.word	0x08003d0d
 8003e94:	461d      	mov	r5, r3
 8003e96:	e712      	b.n	8003cbe <_vfprintf_r+0xfe>
 8003e98:	aa26      	add	r2, sp, #152	; 0x98
 8003e9a:	4641      	mov	r1, r8
 8003e9c:	4658      	mov	r0, fp
 8003e9e:	f003 f971 	bl	8007184 <__sprint_r>
 8003ea2:	2800      	cmp	r0, #0
 8003ea4:	f040 8161 	bne.w	800416a <_vfprintf_r+0x5aa>
 8003ea8:	ac29      	add	r4, sp, #164	; 0xa4
 8003eaa:	e71e      	b.n	8003cea <_vfprintf_r+0x12a>
 8003eac:	461e      	mov	r6, r3
 8003eae:	e72d      	b.n	8003d0c <_vfprintf_r+0x14c>
 8003eb0:	4b45      	ldr	r3, [pc, #276]	; (8003fc8 <_vfprintf_r+0x408>)
 8003eb2:	9318      	str	r3, [sp, #96]	; 0x60
 8003eb4:	f01a 0f20 	tst.w	sl, #32
 8003eb8:	f000 84bc 	beq.w	8004834 <_vfprintf_r+0xc74>
 8003ebc:	3607      	adds	r6, #7
 8003ebe:	f026 0607 	bic.w	r6, r6, #7
 8003ec2:	f106 0308 	add.w	r3, r6, #8
 8003ec6:	e9d6 6700 	ldrd	r6, r7, [r6]
 8003eca:	9309      	str	r3, [sp, #36]	; 0x24
 8003ecc:	f01a 0f01 	tst.w	sl, #1
 8003ed0:	d00a      	beq.n	8003ee8 <_vfprintf_r+0x328>
 8003ed2:	ea56 0307 	orrs.w	r3, r6, r7
 8003ed6:	d007      	beq.n	8003ee8 <_vfprintf_r+0x328>
 8003ed8:	2330      	movs	r3, #48	; 0x30
 8003eda:	f88d 307c 	strb.w	r3, [sp, #124]	; 0x7c
 8003ede:	9b06      	ldr	r3, [sp, #24]
 8003ee0:	f88d 307d 	strb.w	r3, [sp, #125]	; 0x7d
 8003ee4:	f04a 0a02 	orr.w	sl, sl, #2
 8003ee8:	f42a 6a80 	bic.w	sl, sl, #1024	; 0x400
 8003eec:	2302      	movs	r3, #2
 8003eee:	e355      	b.n	800459c <_vfprintf_r+0x9dc>
 8003ef0:	4658      	mov	r0, fp
 8003ef2:	f002 fb79 	bl	80065e8 <_localeconv_r>
 8003ef6:	6843      	ldr	r3, [r0, #4]
 8003ef8:	9319      	str	r3, [sp, #100]	; 0x64
 8003efa:	4618      	mov	r0, r3
 8003efc:	f7fc f988 	bl	8000210 <strlen>
 8003f00:	9012      	str	r0, [sp, #72]	; 0x48
 8003f02:	4658      	mov	r0, fp
 8003f04:	f002 fb70 	bl	80065e8 <_localeconv_r>
 8003f08:	6883      	ldr	r3, [r0, #8]
 8003f0a:	9308      	str	r3, [sp, #32]
 8003f0c:	9b12      	ldr	r3, [sp, #72]	; 0x48
 8003f0e:	2b00      	cmp	r3, #0
 8003f10:	f43f aefc 	beq.w	8003d0c <_vfprintf_r+0x14c>
 8003f14:	9b08      	ldr	r3, [sp, #32]
 8003f16:	2b00      	cmp	r3, #0
 8003f18:	f43f aef8 	beq.w	8003d0c <_vfprintf_r+0x14c>
 8003f1c:	781b      	ldrb	r3, [r3, #0]
 8003f1e:	2b00      	cmp	r3, #0
 8003f20:	f43f aef4 	beq.w	8003d0c <_vfprintf_r+0x14c>
 8003f24:	f44a 6a80 	orr.w	sl, sl, #1024	; 0x400
 8003f28:	e6f0      	b.n	8003d0c <_vfprintf_r+0x14c>
 8003f2a:	f89d 307b 	ldrb.w	r3, [sp, #123]	; 0x7b
 8003f2e:	2b00      	cmp	r3, #0
 8003f30:	f47f aeec 	bne.w	8003d0c <_vfprintf_r+0x14c>
 8003f34:	2320      	movs	r3, #32
 8003f36:	f88d 307b 	strb.w	r3, [sp, #123]	; 0x7b
 8003f3a:	e6e7      	b.n	8003d0c <_vfprintf_r+0x14c>
 8003f3c:	f04a 0a01 	orr.w	sl, sl, #1
 8003f40:	e6e4      	b.n	8003d0c <_vfprintf_r+0x14c>
 8003f42:	6832      	ldr	r2, [r6, #0]
 8003f44:	920f      	str	r2, [sp, #60]	; 0x3c
 8003f46:	2a00      	cmp	r2, #0
 8003f48:	f106 0304 	add.w	r3, r6, #4
 8003f4c:	daae      	bge.n	8003eac <_vfprintf_r+0x2ec>
 8003f4e:	4252      	negs	r2, r2
 8003f50:	920f      	str	r2, [sp, #60]	; 0x3c
 8003f52:	461e      	mov	r6, r3
 8003f54:	f04a 0a04 	orr.w	sl, sl, #4
 8003f58:	e6d8      	b.n	8003d0c <_vfprintf_r+0x14c>
 8003f5a:	232b      	movs	r3, #43	; 0x2b
 8003f5c:	e7eb      	b.n	8003f36 <_vfprintf_r+0x376>
 8003f5e:	9a0c      	ldr	r2, [sp, #48]	; 0x30
 8003f60:	9b0c      	ldr	r3, [sp, #48]	; 0x30
 8003f62:	7812      	ldrb	r2, [r2, #0]
 8003f64:	9206      	str	r2, [sp, #24]
 8003f66:	2a2a      	cmp	r2, #42	; 0x2a
 8003f68:	f103 0301 	add.w	r3, r3, #1
 8003f6c:	d10f      	bne.n	8003f8e <_vfprintf_r+0x3ce>
 8003f6e:	6835      	ldr	r5, [r6, #0]
 8003f70:	930c      	str	r3, [sp, #48]	; 0x30
 8003f72:	ea45 75e5 	orr.w	r5, r5, r5, asr #31
 8003f76:	3604      	adds	r6, #4
 8003f78:	e6c8      	b.n	8003d0c <_vfprintf_r+0x14c>
 8003f7a:	fb07 2505 	mla	r5, r7, r5, r2
 8003f7e:	f813 2b01 	ldrb.w	r2, [r3], #1
 8003f82:	9206      	str	r2, [sp, #24]
 8003f84:	9a06      	ldr	r2, [sp, #24]
 8003f86:	3a30      	subs	r2, #48	; 0x30
 8003f88:	2a09      	cmp	r2, #9
 8003f8a:	d9f6      	bls.n	8003f7a <_vfprintf_r+0x3ba>
 8003f8c:	e6c3      	b.n	8003d16 <_vfprintf_r+0x156>
 8003f8e:	2500      	movs	r5, #0
 8003f90:	e7f8      	b.n	8003f84 <_vfprintf_r+0x3c4>
 8003f92:	f04a 0a80 	orr.w	sl, sl, #128	; 0x80
 8003f96:	e6b9      	b.n	8003d0c <_vfprintf_r+0x14c>
 8003f98:	2200      	movs	r2, #0
 8003f9a:	9b0c      	ldr	r3, [sp, #48]	; 0x30
 8003f9c:	920f      	str	r2, [sp, #60]	; 0x3c
 8003f9e:	9a06      	ldr	r2, [sp, #24]
 8003fa0:	990f      	ldr	r1, [sp, #60]	; 0x3c
 8003fa2:	3a30      	subs	r2, #48	; 0x30
 8003fa4:	fb07 2201 	mla	r2, r7, r1, r2
 8003fa8:	920f      	str	r2, [sp, #60]	; 0x3c
 8003faa:	f813 2b01 	ldrb.w	r2, [r3], #1
 8003fae:	9206      	str	r2, [sp, #24]
 8003fb0:	3a30      	subs	r2, #48	; 0x30
 8003fb2:	2a09      	cmp	r2, #9
 8003fb4:	d9f3      	bls.n	8003f9e <_vfprintf_r+0x3de>
 8003fb6:	e6ae      	b.n	8003d16 <_vfprintf_r+0x156>
 8003fb8:	f04a 0a08 	orr.w	sl, sl, #8
 8003fbc:	e6a6      	b.n	8003d0c <_vfprintf_r+0x14c>
 8003fbe:	bf00      	nop
	...
 8003fc8:	080077cf 	.word	0x080077cf
 8003fcc:	9b0c      	ldr	r3, [sp, #48]	; 0x30
 8003fce:	781b      	ldrb	r3, [r3, #0]
 8003fd0:	2b68      	cmp	r3, #104	; 0x68
 8003fd2:	bf01      	itttt	eq
 8003fd4:	9b0c      	ldreq	r3, [sp, #48]	; 0x30
 8003fd6:	3301      	addeq	r3, #1
 8003fd8:	930c      	streq	r3, [sp, #48]	; 0x30
 8003fda:	f44a 7a00 	orreq.w	sl, sl, #512	; 0x200
 8003fde:	bf18      	it	ne
 8003fe0:	f04a 0a40 	orrne.w	sl, sl, #64	; 0x40
 8003fe4:	e692      	b.n	8003d0c <_vfprintf_r+0x14c>
 8003fe6:	9b0c      	ldr	r3, [sp, #48]	; 0x30
 8003fe8:	781b      	ldrb	r3, [r3, #0]
 8003fea:	2b6c      	cmp	r3, #108	; 0x6c
 8003fec:	d105      	bne.n	8003ffa <_vfprintf_r+0x43a>
 8003fee:	9b0c      	ldr	r3, [sp, #48]	; 0x30
 8003ff0:	3301      	adds	r3, #1
 8003ff2:	930c      	str	r3, [sp, #48]	; 0x30
 8003ff4:	f04a 0a20 	orr.w	sl, sl, #32
 8003ff8:	e688      	b.n	8003d0c <_vfprintf_r+0x14c>
 8003ffa:	f04a 0a10 	orr.w	sl, sl, #16
 8003ffe:	e685      	b.n	8003d0c <_vfprintf_r+0x14c>
 8004000:	1d33      	adds	r3, r6, #4
 8004002:	9309      	str	r3, [sp, #36]	; 0x24
 8004004:	2000      	movs	r0, #0
 8004006:	6833      	ldr	r3, [r6, #0]
 8004008:	f88d 30e4 	strb.w	r3, [sp, #228]	; 0xe4
 800400c:	f88d 007b 	strb.w	r0, [sp, #123]	; 0x7b
 8004010:	9003      	str	r0, [sp, #12]
 8004012:	2501      	movs	r5, #1
 8004014:	9010      	str	r0, [sp, #64]	; 0x40
 8004016:	4607      	mov	r7, r0
 8004018:	9007      	str	r0, [sp, #28]
 800401a:	4606      	mov	r6, r0
 800401c:	f10d 09e4 	add.w	r9, sp, #228	; 0xe4
 8004020:	e30b      	b.n	800463a <_vfprintf_r+0xa7a>
 8004022:	f04a 0a10 	orr.w	sl, sl, #16
 8004026:	f01a 0f20 	tst.w	sl, #32
 800402a:	d021      	beq.n	8004070 <_vfprintf_r+0x4b0>
 800402c:	3607      	adds	r6, #7
 800402e:	f026 0607 	bic.w	r6, r6, #7
 8004032:	f106 0308 	add.w	r3, r6, #8
 8004036:	e9d6 6700 	ldrd	r6, r7, [r6]
 800403a:	9309      	str	r3, [sp, #36]	; 0x24
 800403c:	2e00      	cmp	r6, #0
 800403e:	f177 0300 	sbcs.w	r3, r7, #0
 8004042:	da06      	bge.n	8004052 <_vfprintf_r+0x492>
 8004044:	4276      	negs	r6, r6
 8004046:	f04f 032d 	mov.w	r3, #45	; 0x2d
 800404a:	eb67 0747 	sbc.w	r7, r7, r7, lsl #1
 800404e:	f88d 307b 	strb.w	r3, [sp, #123]	; 0x7b
 8004052:	1c6b      	adds	r3, r5, #1
 8004054:	f040 8401 	bne.w	800485a <_vfprintf_r+0xc9a>
 8004058:	2f00      	cmp	r7, #0
 800405a:	bf08      	it	eq
 800405c:	2e0a      	cmpeq	r6, #10
 800405e:	f080 8431 	bcs.w	80048c4 <_vfprintf_r+0xd04>
 8004062:	f50d 79a4 	add.w	r9, sp, #328	; 0x148
 8004066:	3630      	adds	r6, #48	; 0x30
 8004068:	f809 6d01 	strb.w	r6, [r9, #-1]!
 800406c:	f000 bc18 	b.w	80048a0 <_vfprintf_r+0xce0>
 8004070:	1d33      	adds	r3, r6, #4
 8004072:	f01a 0f10 	tst.w	sl, #16
 8004076:	9309      	str	r3, [sp, #36]	; 0x24
 8004078:	d002      	beq.n	8004080 <_vfprintf_r+0x4c0>
 800407a:	6836      	ldr	r6, [r6, #0]
 800407c:	17f7      	asrs	r7, r6, #31
 800407e:	e7dd      	b.n	800403c <_vfprintf_r+0x47c>
 8004080:	f01a 0f40 	tst.w	sl, #64	; 0x40
 8004084:	6836      	ldr	r6, [r6, #0]
 8004086:	d001      	beq.n	800408c <_vfprintf_r+0x4cc>
 8004088:	b236      	sxth	r6, r6
 800408a:	e7f7      	b.n	800407c <_vfprintf_r+0x4bc>
 800408c:	f41a 7f00 	tst.w	sl, #512	; 0x200
 8004090:	bf18      	it	ne
 8004092:	b276      	sxtbne	r6, r6
 8004094:	e7f2      	b.n	800407c <_vfprintf_r+0x4bc>
 8004096:	3607      	adds	r6, #7
 8004098:	f026 0607 	bic.w	r6, r6, #7
 800409c:	ed96 7b00 	vldr	d7, [r6]
 80040a0:	f106 0308 	add.w	r3, r6, #8
 80040a4:	ed8d 7b0a 	vstr	d7, [sp, #40]	; 0x28
 80040a8:	9309      	str	r3, [sp, #36]	; 0x24
 80040aa:	9b0a      	ldr	r3, [sp, #40]	; 0x28
 80040ac:	931a      	str	r3, [sp, #104]	; 0x68
 80040ae:	9b0b      	ldr	r3, [sp, #44]	; 0x2c
 80040b0:	f023 4300 	bic.w	r3, r3, #2147483648	; 0x80000000
 80040b4:	931b      	str	r3, [sp, #108]	; 0x6c
 80040b6:	f04f 32ff 	mov.w	r2, #4294967295	; 0xffffffff
 80040ba:	4bb0      	ldr	r3, [pc, #704]	; (800437c <_vfprintf_r+0x7bc>)
 80040bc:	e9dd 011a 	ldrd	r0, r1, [sp, #104]	; 0x68
 80040c0:	f7fc fd54 	bl	8000b6c <__aeabi_dcmpun>
 80040c4:	b9f8      	cbnz	r0, 8004106 <_vfprintf_r+0x546>
 80040c6:	f04f 32ff 	mov.w	r2, #4294967295	; 0xffffffff
 80040ca:	4bac      	ldr	r3, [pc, #688]	; (800437c <_vfprintf_r+0x7bc>)
 80040cc:	e9dd 011a 	ldrd	r0, r1, [sp, #104]	; 0x68
 80040d0:	f7fc fd2e 	bl	8000b30 <__aeabi_dcmple>
 80040d4:	b9b8      	cbnz	r0, 8004106 <_vfprintf_r+0x546>
 80040d6:	2200      	movs	r2, #0
 80040d8:	2300      	movs	r3, #0
 80040da:	e9dd 010a 	ldrd	r0, r1, [sp, #40]	; 0x28
 80040de:	f7fc fd1d 	bl	8000b1c <__aeabi_dcmplt>
 80040e2:	b110      	cbz	r0, 80040ea <_vfprintf_r+0x52a>
 80040e4:	232d      	movs	r3, #45	; 0x2d
 80040e6:	f88d 307b 	strb.w	r3, [sp, #123]	; 0x7b
 80040ea:	4aa5      	ldr	r2, [pc, #660]	; (8004380 <_vfprintf_r+0x7c0>)
 80040ec:	4ba5      	ldr	r3, [pc, #660]	; (8004384 <_vfprintf_r+0x7c4>)
 80040ee:	9906      	ldr	r1, [sp, #24]
 80040f0:	2947      	cmp	r1, #71	; 0x47
 80040f2:	bfcc      	ite	gt
 80040f4:	4691      	movgt	r9, r2
 80040f6:	4699      	movle	r9, r3
 80040f8:	2300      	movs	r3, #0
 80040fa:	f02a 0a80 	bic.w	sl, sl, #128	; 0x80
 80040fe:	9303      	str	r3, [sp, #12]
 8004100:	2503      	movs	r5, #3
 8004102:	9310      	str	r3, [sp, #64]	; 0x40
 8004104:	e3d2      	b.n	80048ac <_vfprintf_r+0xcec>
 8004106:	e9dd 230a 	ldrd	r2, r3, [sp, #40]	; 0x28
 800410a:	4610      	mov	r0, r2
 800410c:	4619      	mov	r1, r3
 800410e:	f7fc fd2d 	bl	8000b6c <__aeabi_dcmpun>
 8004112:	b140      	cbz	r0, 8004126 <_vfprintf_r+0x566>
 8004114:	9b0b      	ldr	r3, [sp, #44]	; 0x2c
 8004116:	4a9c      	ldr	r2, [pc, #624]	; (8004388 <_vfprintf_r+0x7c8>)
 8004118:	2b00      	cmp	r3, #0
 800411a:	bfbc      	itt	lt
 800411c:	232d      	movlt	r3, #45	; 0x2d
 800411e:	f88d 307b 	strblt.w	r3, [sp, #123]	; 0x7b
 8004122:	4b9a      	ldr	r3, [pc, #616]	; (800438c <_vfprintf_r+0x7cc>)
 8004124:	e7e3      	b.n	80040ee <_vfprintf_r+0x52e>
 8004126:	9b06      	ldr	r3, [sp, #24]
 8004128:	f023 0320 	bic.w	r3, r3, #32
 800412c:	2b41      	cmp	r3, #65	; 0x41
 800412e:	9307      	str	r3, [sp, #28]
 8004130:	d12d      	bne.n	800418e <_vfprintf_r+0x5ce>
 8004132:	2330      	movs	r3, #48	; 0x30
 8004134:	f88d 307c 	strb.w	r3, [sp, #124]	; 0x7c
 8004138:	9b06      	ldr	r3, [sp, #24]
 800413a:	2b61      	cmp	r3, #97	; 0x61
 800413c:	bf14      	ite	ne
 800413e:	2358      	movne	r3, #88	; 0x58
 8004140:	2378      	moveq	r3, #120	; 0x78
 8004142:	2d63      	cmp	r5, #99	; 0x63
 8004144:	f88d 307d 	strb.w	r3, [sp, #125]	; 0x7d
 8004148:	f04a 0a02 	orr.w	sl, sl, #2
 800414c:	dd2a      	ble.n	80041a4 <_vfprintf_r+0x5e4>
 800414e:	1c69      	adds	r1, r5, #1
 8004150:	4658      	mov	r0, fp
 8004152:	f7ff f9bf 	bl	80034d4 <_malloc_r>
 8004156:	4681      	mov	r9, r0
 8004158:	2800      	cmp	r0, #0
 800415a:	f040 8121 	bne.w	80043a0 <_vfprintf_r+0x7e0>
 800415e:	f8b8 300c 	ldrh.w	r3, [r8, #12]
 8004162:	f043 0340 	orr.w	r3, r3, #64	; 0x40
 8004166:	f8a8 300c 	strh.w	r3, [r8, #12]
 800416a:	f8d8 3064 	ldr.w	r3, [r8, #100]	; 0x64
 800416e:	07d8      	lsls	r0, r3, #31
 8004170:	d407      	bmi.n	8004182 <_vfprintf_r+0x5c2>
 8004172:	f8b8 300c 	ldrh.w	r3, [r8, #12]
 8004176:	0599      	lsls	r1, r3, #22
 8004178:	d403      	bmi.n	8004182 <_vfprintf_r+0x5c2>
 800417a:	f8d8 0058 	ldr.w	r0, [r8, #88]	; 0x58
 800417e:	f002 fa44 	bl	800660a <__retarget_lock_release_recursive>
 8004182:	f8b8 300c 	ldrh.w	r3, [r8, #12]
 8004186:	065a      	lsls	r2, r3, #25
 8004188:	f57f ad84 	bpl.w	8003c94 <_vfprintf_r+0xd4>
 800418c:	e563      	b.n	8003c56 <_vfprintf_r+0x96>
 800418e:	1c6a      	adds	r2, r5, #1
 8004190:	f000 8108 	beq.w	80043a4 <_vfprintf_r+0x7e4>
 8004194:	9b07      	ldr	r3, [sp, #28]
 8004196:	2b47      	cmp	r3, #71	; 0x47
 8004198:	d102      	bne.n	80041a0 <_vfprintf_r+0x5e0>
 800419a:	2d00      	cmp	r5, #0
 800419c:	f000 8105 	beq.w	80043aa <_vfprintf_r+0x7ea>
 80041a0:	9003      	str	r0, [sp, #12]
 80041a2:	e002      	b.n	80041aa <_vfprintf_r+0x5ea>
 80041a4:	9003      	str	r0, [sp, #12]
 80041a6:	f10d 09e4 	add.w	r9, sp, #228	; 0xe4
 80041aa:	f44a 7380 	orr.w	r3, sl, #256	; 0x100
 80041ae:	9310      	str	r3, [sp, #64]	; 0x40
 80041b0:	9b0b      	ldr	r3, [sp, #44]	; 0x2c
 80041b2:	2b00      	cmp	r3, #0
 80041b4:	f280 80fc 	bge.w	80043b0 <_vfprintf_r+0x7f0>
 80041b8:	9b0a      	ldr	r3, [sp, #40]	; 0x28
 80041ba:	9314      	str	r3, [sp, #80]	; 0x50
 80041bc:	9b0b      	ldr	r3, [sp, #44]	; 0x2c
 80041be:	f103 4300 	add.w	r3, r3, #2147483648	; 0x80000000
 80041c2:	9315      	str	r3, [sp, #84]	; 0x54
 80041c4:	232d      	movs	r3, #45	; 0x2d
 80041c6:	9313      	str	r3, [sp, #76]	; 0x4c
 80041c8:	9b07      	ldr	r3, [sp, #28]
 80041ca:	2b41      	cmp	r3, #65	; 0x41
 80041cc:	f040 8104 	bne.w	80043d8 <_vfprintf_r+0x818>
 80041d0:	a820      	add	r0, sp, #128	; 0x80
 80041d2:	ed9d 0b14 	vldr	d0, [sp, #80]	; 0x50
 80041d6:	f002 ff47 	bl	8007068 <frexp>
 80041da:	2200      	movs	r2, #0
 80041dc:	f04f 537f 	mov.w	r3, #1069547520	; 0x3fc00000
 80041e0:	ec51 0b10 	vmov	r0, r1, d0
 80041e4:	f7fc fa28 	bl	8000638 <__aeabi_dmul>
 80041e8:	2200      	movs	r2, #0
 80041ea:	2300      	movs	r3, #0
 80041ec:	e9cd 0104 	strd	r0, r1, [sp, #16]
 80041f0:	f7fc fc8a 	bl	8000b08 <__aeabi_dcmpeq>
 80041f4:	b108      	cbz	r0, 80041fa <_vfprintf_r+0x63a>
 80041f6:	2301      	movs	r3, #1
 80041f8:	9320      	str	r3, [sp, #128]	; 0x80
 80041fa:	4f65      	ldr	r7, [pc, #404]	; (8004390 <_vfprintf_r+0x7d0>)
 80041fc:	4b65      	ldr	r3, [pc, #404]	; (8004394 <_vfprintf_r+0x7d4>)
 80041fe:	9a06      	ldr	r2, [sp, #24]
 8004200:	2a61      	cmp	r2, #97	; 0x61
 8004202:	bf08      	it	eq
 8004204:	461f      	moveq	r7, r3
 8004206:	9711      	str	r7, [sp, #68]	; 0x44
 8004208:	464e      	mov	r6, r9
 800420a:	1e6f      	subs	r7, r5, #1
 800420c:	2200      	movs	r2, #0
 800420e:	4b62      	ldr	r3, [pc, #392]	; (8004398 <_vfprintf_r+0x7d8>)
 8004210:	e9dd 0104 	ldrd	r0, r1, [sp, #16]
 8004214:	f7fc fa10 	bl	8000638 <__aeabi_dmul>
 8004218:	e9cd 0104 	strd	r0, r1, [sp, #16]
 800421c:	f7fc fcbc 	bl	8000b98 <__aeabi_d2iz>
 8004220:	901c      	str	r0, [sp, #112]	; 0x70
 8004222:	f7fc f99f 	bl	8000564 <__aeabi_i2d>
 8004226:	4602      	mov	r2, r0
 8004228:	460b      	mov	r3, r1
 800422a:	e9dd 0104 	ldrd	r0, r1, [sp, #16]
 800422e:	f7fc f84b 	bl	80002c8 <__aeabi_dsub>
 8004232:	9b11      	ldr	r3, [sp, #68]	; 0x44
 8004234:	9a1c      	ldr	r2, [sp, #112]	; 0x70
 8004236:	971d      	str	r7, [sp, #116]	; 0x74
 8004238:	5c9b      	ldrb	r3, [r3, r2]
 800423a:	f806 3b01 	strb.w	r3, [r6], #1
 800423e:	1c7b      	adds	r3, r7, #1
 8004240:	e9cd 0104 	strd	r0, r1, [sp, #16]
 8004244:	d006      	beq.n	8004254 <_vfprintf_r+0x694>
 8004246:	2200      	movs	r2, #0
 8004248:	2300      	movs	r3, #0
 800424a:	3f01      	subs	r7, #1
 800424c:	f7fc fc5c 	bl	8000b08 <__aeabi_dcmpeq>
 8004250:	2800      	cmp	r0, #0
 8004252:	d0db      	beq.n	800420c <_vfprintf_r+0x64c>
 8004254:	2200      	movs	r2, #0
 8004256:	4b51      	ldr	r3, [pc, #324]	; (800439c <_vfprintf_r+0x7dc>)
 8004258:	e9dd 0104 	ldrd	r0, r1, [sp, #16]
 800425c:	f7fc fc7c 	bl	8000b58 <__aeabi_dcmpgt>
 8004260:	b960      	cbnz	r0, 800427c <_vfprintf_r+0x6bc>
 8004262:	2200      	movs	r2, #0
 8004264:	4b4d      	ldr	r3, [pc, #308]	; (800439c <_vfprintf_r+0x7dc>)
 8004266:	e9dd 0104 	ldrd	r0, r1, [sp, #16]
 800426a:	f7fc fc4d 	bl	8000b08 <__aeabi_dcmpeq>
 800426e:	2800      	cmp	r0, #0
 8004270:	f000 80ad 	beq.w	80043ce <_vfprintf_r+0x80e>
 8004274:	9b1c      	ldr	r3, [sp, #112]	; 0x70
 8004276:	07df      	lsls	r7, r3, #31
 8004278:	f140 80a9 	bpl.w	80043ce <_vfprintf_r+0x80e>
 800427c:	9b11      	ldr	r3, [sp, #68]	; 0x44
 800427e:	9624      	str	r6, [sp, #144]	; 0x90
 8004280:	7bd9      	ldrb	r1, [r3, #15]
 8004282:	2030      	movs	r0, #48	; 0x30
 8004284:	9a24      	ldr	r2, [sp, #144]	; 0x90
 8004286:	1e53      	subs	r3, r2, #1
 8004288:	9324      	str	r3, [sp, #144]	; 0x90
 800428a:	f812 3c01 	ldrb.w	r3, [r2, #-1]
 800428e:	428b      	cmp	r3, r1
 8004290:	f000 8094 	beq.w	80043bc <_vfprintf_r+0x7fc>
 8004294:	2b39      	cmp	r3, #57	; 0x39
 8004296:	bf0b      	itete	eq
 8004298:	9b11      	ldreq	r3, [sp, #68]	; 0x44
 800429a:	3301      	addne	r3, #1
 800429c:	7a9b      	ldrbeq	r3, [r3, #10]
 800429e:	b2db      	uxtbne	r3, r3
 80042a0:	f802 3c01 	strb.w	r3, [r2, #-1]
 80042a4:	4633      	mov	r3, r6
 80042a6:	eba3 0309 	sub.w	r3, r3, r9
 80042aa:	9304      	str	r3, [sp, #16]
 80042ac:	9b07      	ldr	r3, [sp, #28]
 80042ae:	9e20      	ldr	r6, [sp, #128]	; 0x80
 80042b0:	2b47      	cmp	r3, #71	; 0x47
 80042b2:	f040 80d6 	bne.w	8004462 <_vfprintf_r+0x8a2>
 80042b6:	1cf0      	adds	r0, r6, #3
 80042b8:	db02      	blt.n	80042c0 <_vfprintf_r+0x700>
 80042ba:	42b5      	cmp	r5, r6
 80042bc:	f280 80fc 	bge.w	80044b8 <_vfprintf_r+0x8f8>
 80042c0:	9b06      	ldr	r3, [sp, #24]
 80042c2:	3b02      	subs	r3, #2
 80042c4:	9306      	str	r3, [sp, #24]
 80042c6:	9906      	ldr	r1, [sp, #24]
 80042c8:	f89d 2018 	ldrb.w	r2, [sp, #24]
 80042cc:	f021 0120 	bic.w	r1, r1, #32
 80042d0:	2941      	cmp	r1, #65	; 0x41
 80042d2:	bf08      	it	eq
 80042d4:	320f      	addeq	r2, #15
 80042d6:	f106 33ff 	add.w	r3, r6, #4294967295	; 0xffffffff
 80042da:	bf06      	itte	eq
 80042dc:	b2d2      	uxtbeq	r2, r2
 80042de:	2101      	moveq	r1, #1
 80042e0:	2100      	movne	r1, #0
 80042e2:	2b00      	cmp	r3, #0
 80042e4:	9320      	str	r3, [sp, #128]	; 0x80
 80042e6:	bfb8      	it	lt
 80042e8:	f1c6 0301 	rsblt	r3, r6, #1
 80042ec:	f88d 2088 	strb.w	r2, [sp, #136]	; 0x88
 80042f0:	bfb4      	ite	lt
 80042f2:	222d      	movlt	r2, #45	; 0x2d
 80042f4:	222b      	movge	r2, #43	; 0x2b
 80042f6:	2b09      	cmp	r3, #9
 80042f8:	f88d 2089 	strb.w	r2, [sp, #137]	; 0x89
 80042fc:	f340 80c8 	ble.w	8004490 <_vfprintf_r+0x8d0>
 8004300:	f10d 0297 	add.w	r2, sp, #151	; 0x97
 8004304:	250a      	movs	r5, #10
 8004306:	fb93 f0f5 	sdiv	r0, r3, r5
 800430a:	fb05 3310 	mls	r3, r5, r0, r3
 800430e:	3330      	adds	r3, #48	; 0x30
 8004310:	2809      	cmp	r0, #9
 8004312:	f802 3c01 	strb.w	r3, [r2, #-1]
 8004316:	f102 31ff 	add.w	r1, r2, #4294967295	; 0xffffffff
 800431a:	4603      	mov	r3, r0
 800431c:	f300 80b1 	bgt.w	8004482 <_vfprintf_r+0x8c2>
 8004320:	3330      	adds	r3, #48	; 0x30
 8004322:	f801 3c01 	strb.w	r3, [r1, #-1]
 8004326:	3a02      	subs	r2, #2
 8004328:	f10d 038a 	add.w	r3, sp, #138	; 0x8a
 800432c:	f10d 0097 	add.w	r0, sp, #151	; 0x97
 8004330:	4282      	cmp	r2, r0
 8004332:	4619      	mov	r1, r3
 8004334:	f0c0 80a7 	bcc.w	8004486 <_vfprintf_r+0x8c6>
 8004338:	9a04      	ldr	r2, [sp, #16]
 800433a:	ab22      	add	r3, sp, #136	; 0x88
 800433c:	1acb      	subs	r3, r1, r3
 800433e:	2a01      	cmp	r2, #1
 8004340:	9317      	str	r3, [sp, #92]	; 0x5c
 8004342:	eb03 0502 	add.w	r5, r3, r2
 8004346:	dc02      	bgt.n	800434e <_vfprintf_r+0x78e>
 8004348:	f01a 0f01 	tst.w	sl, #1
 800434c:	d001      	beq.n	8004352 <_vfprintf_r+0x792>
 800434e:	9b0d      	ldr	r3, [sp, #52]	; 0x34
 8004350:	441d      	add	r5, r3
 8004352:	f42a 6380 	bic.w	r3, sl, #1024	; 0x400
 8004356:	2700      	movs	r7, #0
 8004358:	f443 7380 	orr.w	r3, r3, #256	; 0x100
 800435c:	9310      	str	r3, [sp, #64]	; 0x40
 800435e:	9707      	str	r7, [sp, #28]
 8004360:	463e      	mov	r6, r7
 8004362:	9b13      	ldr	r3, [sp, #76]	; 0x4c
 8004364:	2b00      	cmp	r3, #0
 8004366:	f000 8317 	beq.w	8004998 <_vfprintf_r+0xdd8>
 800436a:	232d      	movs	r3, #45	; 0x2d
 800436c:	f8dd a040 	ldr.w	sl, [sp, #64]	; 0x40
 8004370:	f88d 307b 	strb.w	r3, [sp, #123]	; 0x7b
 8004374:	2300      	movs	r3, #0
 8004376:	9310      	str	r3, [sp, #64]	; 0x40
 8004378:	e15f      	b.n	800463a <_vfprintf_r+0xa7a>
 800437a:	bf00      	nop
 800437c:	7fefffff 	.word	0x7fefffff
 8004380:	080077b2 	.word	0x080077b2
 8004384:	080077ae 	.word	0x080077ae
 8004388:	080077ba 	.word	0x080077ba
 800438c:	080077b6 	.word	0x080077b6
 8004390:	080077cf 	.word	0x080077cf
 8004394:	080077be 	.word	0x080077be
 8004398:	40300000 	.word	0x40300000
 800439c:	3fe00000 	.word	0x3fe00000
 80043a0:	9003      	str	r0, [sp, #12]
 80043a2:	e702      	b.n	80041aa <_vfprintf_r+0x5ea>
 80043a4:	9003      	str	r0, [sp, #12]
 80043a6:	2506      	movs	r5, #6
 80043a8:	e6ff      	b.n	80041aa <_vfprintf_r+0x5ea>
 80043aa:	9503      	str	r5, [sp, #12]
 80043ac:	2501      	movs	r5, #1
 80043ae:	e6fc      	b.n	80041aa <_vfprintf_r+0x5ea>
 80043b0:	ed9d 7b0a 	vldr	d7, [sp, #40]	; 0x28
 80043b4:	2300      	movs	r3, #0
 80043b6:	ed8d 7b14 	vstr	d7, [sp, #80]	; 0x50
 80043ba:	e704      	b.n	80041c6 <_vfprintf_r+0x606>
 80043bc:	f802 0c01 	strb.w	r0, [r2, #-1]
 80043c0:	e760      	b.n	8004284 <_vfprintf_r+0x6c4>
 80043c2:	f803 1b01 	strb.w	r1, [r3], #1
 80043c6:	1af2      	subs	r2, r6, r3
 80043c8:	2a00      	cmp	r2, #0
 80043ca:	dafa      	bge.n	80043c2 <_vfprintf_r+0x802>
 80043cc:	e76b      	b.n	80042a6 <_vfprintf_r+0x6e6>
 80043ce:	9a1d      	ldr	r2, [sp, #116]	; 0x74
 80043d0:	4633      	mov	r3, r6
 80043d2:	2130      	movs	r1, #48	; 0x30
 80043d4:	4416      	add	r6, r2
 80043d6:	e7f6      	b.n	80043c6 <_vfprintf_r+0x806>
 80043d8:	9b07      	ldr	r3, [sp, #28]
 80043da:	2b46      	cmp	r3, #70	; 0x46
 80043dc:	d004      	beq.n	80043e8 <_vfprintf_r+0x828>
 80043de:	2b45      	cmp	r3, #69	; 0x45
 80043e0:	d13a      	bne.n	8004458 <_vfprintf_r+0x898>
 80043e2:	1c6e      	adds	r6, r5, #1
 80043e4:	2102      	movs	r1, #2
 80043e6:	e001      	b.n	80043ec <_vfprintf_r+0x82c>
 80043e8:	462e      	mov	r6, r5
 80043ea:	2103      	movs	r1, #3
 80043ec:	ab24      	add	r3, sp, #144	; 0x90
 80043ee:	9301      	str	r3, [sp, #4]
 80043f0:	ab21      	add	r3, sp, #132	; 0x84
 80043f2:	9300      	str	r3, [sp, #0]
 80043f4:	4632      	mov	r2, r6
 80043f6:	ab20      	add	r3, sp, #128	; 0x80
 80043f8:	ed9d 0b14 	vldr	d0, [sp, #80]	; 0x50
 80043fc:	4658      	mov	r0, fp
 80043fe:	f000 ff87 	bl	8005310 <_dtoa_r>
 8004402:	9b07      	ldr	r3, [sp, #28]
 8004404:	2b47      	cmp	r3, #71	; 0x47
 8004406:	4681      	mov	r9, r0
 8004408:	d102      	bne.n	8004410 <_vfprintf_r+0x850>
 800440a:	f01a 0f01 	tst.w	sl, #1
 800440e:	d026      	beq.n	800445e <_vfprintf_r+0x89e>
 8004410:	9b07      	ldr	r3, [sp, #28]
 8004412:	2b46      	cmp	r3, #70	; 0x46
 8004414:	eb09 0706 	add.w	r7, r9, r6
 8004418:	d10f      	bne.n	800443a <_vfprintf_r+0x87a>
 800441a:	f899 3000 	ldrb.w	r3, [r9]
 800441e:	2b30      	cmp	r3, #48	; 0x30
 8004420:	d109      	bne.n	8004436 <_vfprintf_r+0x876>
 8004422:	2200      	movs	r2, #0
 8004424:	2300      	movs	r3, #0
 8004426:	e9dd 0114 	ldrd	r0, r1, [sp, #80]	; 0x50
 800442a:	f7fc fb6d 	bl	8000b08 <__aeabi_dcmpeq>
 800442e:	b910      	cbnz	r0, 8004436 <_vfprintf_r+0x876>
 8004430:	f1c6 0601 	rsb	r6, r6, #1
 8004434:	9620      	str	r6, [sp, #128]	; 0x80
 8004436:	9b20      	ldr	r3, [sp, #128]	; 0x80
 8004438:	441f      	add	r7, r3
 800443a:	2200      	movs	r2, #0
 800443c:	2300      	movs	r3, #0
 800443e:	e9dd 0114 	ldrd	r0, r1, [sp, #80]	; 0x50
 8004442:	f7fc fb61 	bl	8000b08 <__aeabi_dcmpeq>
 8004446:	b948      	cbnz	r0, 800445c <_vfprintf_r+0x89c>
 8004448:	2230      	movs	r2, #48	; 0x30
 800444a:	9b24      	ldr	r3, [sp, #144]	; 0x90
 800444c:	429f      	cmp	r7, r3
 800444e:	d906      	bls.n	800445e <_vfprintf_r+0x89e>
 8004450:	1c59      	adds	r1, r3, #1
 8004452:	9124      	str	r1, [sp, #144]	; 0x90
 8004454:	701a      	strb	r2, [r3, #0]
 8004456:	e7f8      	b.n	800444a <_vfprintf_r+0x88a>
 8004458:	462e      	mov	r6, r5
 800445a:	e7c3      	b.n	80043e4 <_vfprintf_r+0x824>
 800445c:	9724      	str	r7, [sp, #144]	; 0x90
 800445e:	9b24      	ldr	r3, [sp, #144]	; 0x90
 8004460:	e721      	b.n	80042a6 <_vfprintf_r+0x6e6>
 8004462:	9b07      	ldr	r3, [sp, #28]
 8004464:	2b46      	cmp	r3, #70	; 0x46
 8004466:	f47f af2e 	bne.w	80042c6 <_vfprintf_r+0x706>
 800446a:	2e00      	cmp	r6, #0
 800446c:	dd1d      	ble.n	80044aa <_vfprintf_r+0x8ea>
 800446e:	b915      	cbnz	r5, 8004476 <_vfprintf_r+0x8b6>
 8004470:	f01a 0f01 	tst.w	sl, #1
 8004474:	d034      	beq.n	80044e0 <_vfprintf_r+0x920>
 8004476:	9b0d      	ldr	r3, [sp, #52]	; 0x34
 8004478:	18f3      	adds	r3, r6, r3
 800447a:	441d      	add	r5, r3
 800447c:	2366      	movs	r3, #102	; 0x66
 800447e:	9306      	str	r3, [sp, #24]
 8004480:	e033      	b.n	80044ea <_vfprintf_r+0x92a>
 8004482:	460a      	mov	r2, r1
 8004484:	e73f      	b.n	8004306 <_vfprintf_r+0x746>
 8004486:	f812 1b01 	ldrb.w	r1, [r2], #1
 800448a:	f803 1b01 	strb.w	r1, [r3], #1
 800448e:	e74f      	b.n	8004330 <_vfprintf_r+0x770>
 8004490:	b941      	cbnz	r1, 80044a4 <_vfprintf_r+0x8e4>
 8004492:	2230      	movs	r2, #48	; 0x30
 8004494:	f88d 208a 	strb.w	r2, [sp, #138]	; 0x8a
 8004498:	f10d 028b 	add.w	r2, sp, #139	; 0x8b
 800449c:	3330      	adds	r3, #48	; 0x30
 800449e:	1c51      	adds	r1, r2, #1
 80044a0:	7013      	strb	r3, [r2, #0]
 80044a2:	e749      	b.n	8004338 <_vfprintf_r+0x778>
 80044a4:	f10d 028a 	add.w	r2, sp, #138	; 0x8a
 80044a8:	e7f8      	b.n	800449c <_vfprintf_r+0x8dc>
 80044aa:	b915      	cbnz	r5, 80044b2 <_vfprintf_r+0x8f2>
 80044ac:	f01a 0f01 	tst.w	sl, #1
 80044b0:	d018      	beq.n	80044e4 <_vfprintf_r+0x924>
 80044b2:	9b0d      	ldr	r3, [sp, #52]	; 0x34
 80044b4:	3301      	adds	r3, #1
 80044b6:	e7e0      	b.n	800447a <_vfprintf_r+0x8ba>
 80044b8:	9b04      	ldr	r3, [sp, #16]
 80044ba:	42b3      	cmp	r3, r6
 80044bc:	dc06      	bgt.n	80044cc <_vfprintf_r+0x90c>
 80044be:	f01a 0f01 	tst.w	sl, #1
 80044c2:	d025      	beq.n	8004510 <_vfprintf_r+0x950>
 80044c4:	9b0d      	ldr	r3, [sp, #52]	; 0x34
 80044c6:	18f5      	adds	r5, r6, r3
 80044c8:	2367      	movs	r3, #103	; 0x67
 80044ca:	e7d8      	b.n	800447e <_vfprintf_r+0x8be>
 80044cc:	9b04      	ldr	r3, [sp, #16]
 80044ce:	9a0d      	ldr	r2, [sp, #52]	; 0x34
 80044d0:	2e00      	cmp	r6, #0
 80044d2:	eb03 0502 	add.w	r5, r3, r2
 80044d6:	dcf7      	bgt.n	80044c8 <_vfprintf_r+0x908>
 80044d8:	f1c6 0301 	rsb	r3, r6, #1
 80044dc:	441d      	add	r5, r3
 80044de:	e7f3      	b.n	80044c8 <_vfprintf_r+0x908>
 80044e0:	4635      	mov	r5, r6
 80044e2:	e7cb      	b.n	800447c <_vfprintf_r+0x8bc>
 80044e4:	2366      	movs	r3, #102	; 0x66
 80044e6:	9306      	str	r3, [sp, #24]
 80044e8:	2501      	movs	r5, #1
 80044ea:	f41a 6380 	ands.w	r3, sl, #1024	; 0x400
 80044ee:	9307      	str	r3, [sp, #28]
 80044f0:	d01f      	beq.n	8004532 <_vfprintf_r+0x972>
 80044f2:	2700      	movs	r7, #0
 80044f4:	2e00      	cmp	r6, #0
 80044f6:	9707      	str	r7, [sp, #28]
 80044f8:	f77f af33 	ble.w	8004362 <_vfprintf_r+0x7a2>
 80044fc:	9b08      	ldr	r3, [sp, #32]
 80044fe:	781b      	ldrb	r3, [r3, #0]
 8004500:	2bff      	cmp	r3, #255	; 0xff
 8004502:	d107      	bne.n	8004514 <_vfprintf_r+0x954>
 8004504:	9b07      	ldr	r3, [sp, #28]
 8004506:	9a12      	ldr	r2, [sp, #72]	; 0x48
 8004508:	443b      	add	r3, r7
 800450a:	fb02 5503 	mla	r5, r2, r3, r5
 800450e:	e728      	b.n	8004362 <_vfprintf_r+0x7a2>
 8004510:	4635      	mov	r5, r6
 8004512:	e7d9      	b.n	80044c8 <_vfprintf_r+0x908>
 8004514:	42b3      	cmp	r3, r6
 8004516:	daf5      	bge.n	8004504 <_vfprintf_r+0x944>
 8004518:	1af6      	subs	r6, r6, r3
 800451a:	9b08      	ldr	r3, [sp, #32]
 800451c:	785b      	ldrb	r3, [r3, #1]
 800451e:	b133      	cbz	r3, 800452e <_vfprintf_r+0x96e>
 8004520:	9b07      	ldr	r3, [sp, #28]
 8004522:	3301      	adds	r3, #1
 8004524:	9307      	str	r3, [sp, #28]
 8004526:	9b08      	ldr	r3, [sp, #32]
 8004528:	3301      	adds	r3, #1
 800452a:	9308      	str	r3, [sp, #32]
 800452c:	e7e6      	b.n	80044fc <_vfprintf_r+0x93c>
 800452e:	3701      	adds	r7, #1
 8004530:	e7e4      	b.n	80044fc <_vfprintf_r+0x93c>
 8004532:	9f07      	ldr	r7, [sp, #28]
 8004534:	e715      	b.n	8004362 <_vfprintf_r+0x7a2>
 8004536:	4632      	mov	r2, r6
 8004538:	f01a 0f20 	tst.w	sl, #32
 800453c:	f852 3b04 	ldr.w	r3, [r2], #4
 8004540:	9209      	str	r2, [sp, #36]	; 0x24
 8004542:	d009      	beq.n	8004558 <_vfprintf_r+0x998>
 8004544:	9a0e      	ldr	r2, [sp, #56]	; 0x38
 8004546:	4610      	mov	r0, r2
 8004548:	17d1      	asrs	r1, r2, #31
 800454a:	e9c3 0100 	strd	r0, r1, [r3]
 800454e:	9e09      	ldr	r6, [sp, #36]	; 0x24
 8004550:	f8dd 9030 	ldr.w	r9, [sp, #48]	; 0x30
 8004554:	f7ff bbb2 	b.w	8003cbc <_vfprintf_r+0xfc>
 8004558:	f01a 0f10 	tst.w	sl, #16
 800455c:	d002      	beq.n	8004564 <_vfprintf_r+0x9a4>
 800455e:	9a0e      	ldr	r2, [sp, #56]	; 0x38
 8004560:	601a      	str	r2, [r3, #0]
 8004562:	e7f4      	b.n	800454e <_vfprintf_r+0x98e>
 8004564:	f01a 0f40 	tst.w	sl, #64	; 0x40
 8004568:	d002      	beq.n	8004570 <_vfprintf_r+0x9b0>
 800456a:	9a0e      	ldr	r2, [sp, #56]	; 0x38
 800456c:	801a      	strh	r2, [r3, #0]
 800456e:	e7ee      	b.n	800454e <_vfprintf_r+0x98e>
 8004570:	f41a 7f00 	tst.w	sl, #512	; 0x200
 8004574:	d0f3      	beq.n	800455e <_vfprintf_r+0x99e>
 8004576:	9a0e      	ldr	r2, [sp, #56]	; 0x38
 8004578:	701a      	strb	r2, [r3, #0]
 800457a:	e7e8      	b.n	800454e <_vfprintf_r+0x98e>
 800457c:	f04a 0a10 	orr.w	sl, sl, #16
 8004580:	f01a 0f20 	tst.w	sl, #32
 8004584:	d01e      	beq.n	80045c4 <_vfprintf_r+0xa04>
 8004586:	3607      	adds	r6, #7
 8004588:	f026 0607 	bic.w	r6, r6, #7
 800458c:	f106 0308 	add.w	r3, r6, #8
 8004590:	e9d6 6700 	ldrd	r6, r7, [r6]
 8004594:	9309      	str	r3, [sp, #36]	; 0x24
 8004596:	f42a 6a80 	bic.w	sl, sl, #1024	; 0x400
 800459a:	2300      	movs	r3, #0
 800459c:	2200      	movs	r2, #0
 800459e:	f88d 207b 	strb.w	r2, [sp, #123]	; 0x7b
 80045a2:	1c6a      	adds	r2, r5, #1
 80045a4:	f000 815c 	beq.w	8004860 <_vfprintf_r+0xca0>
 80045a8:	4652      	mov	r2, sl
 80045aa:	ea56 0107 	orrs.w	r1, r6, r7
 80045ae:	f02a 0a80 	bic.w	sl, sl, #128	; 0x80
 80045b2:	f040 8155 	bne.w	8004860 <_vfprintf_r+0xca0>
 80045b6:	2d00      	cmp	r5, #0
 80045b8:	f000 81d8 	beq.w	800496c <_vfprintf_r+0xdac>
 80045bc:	2b01      	cmp	r3, #1
 80045be:	f040 8152 	bne.w	8004866 <_vfprintf_r+0xca6>
 80045c2:	e54e      	b.n	8004062 <_vfprintf_r+0x4a2>
 80045c4:	1d33      	adds	r3, r6, #4
 80045c6:	f01a 0f10 	tst.w	sl, #16
 80045ca:	9309      	str	r3, [sp, #36]	; 0x24
 80045cc:	d001      	beq.n	80045d2 <_vfprintf_r+0xa12>
 80045ce:	6836      	ldr	r6, [r6, #0]
 80045d0:	e003      	b.n	80045da <_vfprintf_r+0xa1a>
 80045d2:	f01a 0f40 	tst.w	sl, #64	; 0x40
 80045d6:	d002      	beq.n	80045de <_vfprintf_r+0xa1e>
 80045d8:	8836      	ldrh	r6, [r6, #0]
 80045da:	2700      	movs	r7, #0
 80045dc:	e7db      	b.n	8004596 <_vfprintf_r+0x9d6>
 80045de:	f41a 7f00 	tst.w	sl, #512	; 0x200
 80045e2:	d0f4      	beq.n	80045ce <_vfprintf_r+0xa0e>
 80045e4:	7836      	ldrb	r6, [r6, #0]
 80045e6:	e7f8      	b.n	80045da <_vfprintf_r+0xa1a>
 80045e8:	1d33      	adds	r3, r6, #4
 80045ea:	9309      	str	r3, [sp, #36]	; 0x24
 80045ec:	f647 0330 	movw	r3, #30768	; 0x7830
 80045f0:	f8ad 307c 	strh.w	r3, [sp, #124]	; 0x7c
 80045f4:	2278      	movs	r2, #120	; 0x78
 80045f6:	4bb0      	ldr	r3, [pc, #704]	; (80048b8 <_vfprintf_r+0xcf8>)
 80045f8:	9318      	str	r3, [sp, #96]	; 0x60
 80045fa:	6836      	ldr	r6, [r6, #0]
 80045fc:	9206      	str	r2, [sp, #24]
 80045fe:	2700      	movs	r7, #0
 8004600:	f04a 0a02 	orr.w	sl, sl, #2
 8004604:	2302      	movs	r3, #2
 8004606:	e7c9      	b.n	800459c <_vfprintf_r+0x9dc>
 8004608:	1d33      	adds	r3, r6, #4
 800460a:	f8d6 9000 	ldr.w	r9, [r6]
 800460e:	9309      	str	r3, [sp, #36]	; 0x24
 8004610:	2600      	movs	r6, #0
 8004612:	1c69      	adds	r1, r5, #1
 8004614:	f88d 607b 	strb.w	r6, [sp, #123]	; 0x7b
 8004618:	f000 80e1 	beq.w	80047de <_vfprintf_r+0xc1e>
 800461c:	462a      	mov	r2, r5
 800461e:	4631      	mov	r1, r6
 8004620:	4648      	mov	r0, r9
 8004622:	f7fb fdfd 	bl	8000220 <memchr>
 8004626:	9003      	str	r0, [sp, #12]
 8004628:	2800      	cmp	r0, #0
 800462a:	f000 81b9 	beq.w	80049a0 <_vfprintf_r+0xde0>
 800462e:	eba0 0509 	sub.w	r5, r0, r9
 8004632:	9603      	str	r6, [sp, #12]
 8004634:	9610      	str	r6, [sp, #64]	; 0x40
 8004636:	4637      	mov	r7, r6
 8004638:	9607      	str	r6, [sp, #28]
 800463a:	9b10      	ldr	r3, [sp, #64]	; 0x40
 800463c:	42ab      	cmp	r3, r5
 800463e:	bfb8      	it	lt
 8004640:	462b      	movlt	r3, r5
 8004642:	9311      	str	r3, [sp, #68]	; 0x44
 8004644:	f89d 307b 	ldrb.w	r3, [sp, #123]	; 0x7b
 8004648:	b113      	cbz	r3, 8004650 <_vfprintf_r+0xa90>
 800464a:	9b11      	ldr	r3, [sp, #68]	; 0x44
 800464c:	3301      	adds	r3, #1
 800464e:	9311      	str	r3, [sp, #68]	; 0x44
 8004650:	f01a 0302 	ands.w	r3, sl, #2
 8004654:	931c      	str	r3, [sp, #112]	; 0x70
 8004656:	bf1e      	ittt	ne
 8004658:	9b11      	ldrne	r3, [sp, #68]	; 0x44
 800465a:	3302      	addne	r3, #2
 800465c:	9311      	strne	r3, [sp, #68]	; 0x44
 800465e:	f01a 0384 	ands.w	r3, sl, #132	; 0x84
 8004662:	931d      	str	r3, [sp, #116]	; 0x74
 8004664:	d122      	bne.n	80046ac <_vfprintf_r+0xaec>
 8004666:	9b0f      	ldr	r3, [sp, #60]	; 0x3c
 8004668:	9a11      	ldr	r2, [sp, #68]	; 0x44
 800466a:	1a9b      	subs	r3, r3, r2
 800466c:	2b00      	cmp	r3, #0
 800466e:	9313      	str	r3, [sp, #76]	; 0x4c
 8004670:	dd1c      	ble.n	80046ac <_vfprintf_r+0xaec>
 8004672:	9813      	ldr	r0, [sp, #76]	; 0x4c
 8004674:	e9dd 2327 	ldrd	r2, r3, [sp, #156]	; 0x9c
 8004678:	2810      	cmp	r0, #16
 800467a:	4890      	ldr	r0, [pc, #576]	; (80048bc <_vfprintf_r+0xcfc>)
 800467c:	6020      	str	r0, [r4, #0]
 800467e:	f102 0201 	add.w	r2, r2, #1
 8004682:	f104 0108 	add.w	r1, r4, #8
 8004686:	f300 818e 	bgt.w	80049a6 <_vfprintf_r+0xde6>
 800468a:	9813      	ldr	r0, [sp, #76]	; 0x4c
 800468c:	6060      	str	r0, [r4, #4]
 800468e:	4403      	add	r3, r0
 8004690:	2a07      	cmp	r2, #7
 8004692:	e9cd 2327 	strd	r2, r3, [sp, #156]	; 0x9c
 8004696:	f340 819b 	ble.w	80049d0 <_vfprintf_r+0xe10>
 800469a:	aa26      	add	r2, sp, #152	; 0x98
 800469c:	4641      	mov	r1, r8
 800469e:	4658      	mov	r0, fp
 80046a0:	f002 fd70 	bl	8007184 <__sprint_r>
 80046a4:	2800      	cmp	r0, #0
 80046a6:	f040 84c7 	bne.w	8005038 <_vfprintf_r+0x1478>
 80046aa:	ac29      	add	r4, sp, #164	; 0xa4
 80046ac:	f89d 307b 	ldrb.w	r3, [sp, #123]	; 0x7b
 80046b0:	b173      	cbz	r3, 80046d0 <_vfprintf_r+0xb10>
 80046b2:	f10d 037b 	add.w	r3, sp, #123	; 0x7b
 80046b6:	6023      	str	r3, [r4, #0]
 80046b8:	2301      	movs	r3, #1
 80046ba:	6063      	str	r3, [r4, #4]
 80046bc:	9b28      	ldr	r3, [sp, #160]	; 0xa0
 80046be:	3301      	adds	r3, #1
 80046c0:	9328      	str	r3, [sp, #160]	; 0xa0
 80046c2:	9b27      	ldr	r3, [sp, #156]	; 0x9c
 80046c4:	3301      	adds	r3, #1
 80046c6:	2b07      	cmp	r3, #7
 80046c8:	9327      	str	r3, [sp, #156]	; 0x9c
 80046ca:	f300 8183 	bgt.w	80049d4 <_vfprintf_r+0xe14>
 80046ce:	3408      	adds	r4, #8
 80046d0:	9b1c      	ldr	r3, [sp, #112]	; 0x70
 80046d2:	b16b      	cbz	r3, 80046f0 <_vfprintf_r+0xb30>
 80046d4:	ab1f      	add	r3, sp, #124	; 0x7c
 80046d6:	6023      	str	r3, [r4, #0]
 80046d8:	2302      	movs	r3, #2
 80046da:	6063      	str	r3, [r4, #4]
 80046dc:	9b28      	ldr	r3, [sp, #160]	; 0xa0
 80046de:	3302      	adds	r3, #2
 80046e0:	9328      	str	r3, [sp, #160]	; 0xa0
 80046e2:	9b27      	ldr	r3, [sp, #156]	; 0x9c
 80046e4:	3301      	adds	r3, #1
 80046e6:	2b07      	cmp	r3, #7
 80046e8:	9327      	str	r3, [sp, #156]	; 0x9c
 80046ea:	f300 817d 	bgt.w	80049e8 <_vfprintf_r+0xe28>
 80046ee:	3408      	adds	r4, #8
 80046f0:	9b1d      	ldr	r3, [sp, #116]	; 0x74
 80046f2:	2b80      	cmp	r3, #128	; 0x80
 80046f4:	d122      	bne.n	800473c <_vfprintf_r+0xb7c>
 80046f6:	9b0f      	ldr	r3, [sp, #60]	; 0x3c
 80046f8:	9a11      	ldr	r2, [sp, #68]	; 0x44
 80046fa:	1a9b      	subs	r3, r3, r2
 80046fc:	2b00      	cmp	r3, #0
 80046fe:	9313      	str	r3, [sp, #76]	; 0x4c
 8004700:	dd1c      	ble.n	800473c <_vfprintf_r+0xb7c>
 8004702:	9813      	ldr	r0, [sp, #76]	; 0x4c
 8004704:	e9dd 2327 	ldrd	r2, r3, [sp, #156]	; 0x9c
 8004708:	2810      	cmp	r0, #16
 800470a:	486d      	ldr	r0, [pc, #436]	; (80048c0 <_vfprintf_r+0xd00>)
 800470c:	6020      	str	r0, [r4, #0]
 800470e:	f102 0201 	add.w	r2, r2, #1
 8004712:	f104 0108 	add.w	r1, r4, #8
 8004716:	f300 8171 	bgt.w	80049fc <_vfprintf_r+0xe3c>
 800471a:	9813      	ldr	r0, [sp, #76]	; 0x4c
 800471c:	6060      	str	r0, [r4, #4]
 800471e:	4403      	add	r3, r0
 8004720:	2a07      	cmp	r2, #7
 8004722:	e9cd 2327 	strd	r2, r3, [sp, #156]	; 0x9c
 8004726:	f340 817e 	ble.w	8004a26 <_vfprintf_r+0xe66>
 800472a:	aa26      	add	r2, sp, #152	; 0x98
 800472c:	4641      	mov	r1, r8
 800472e:	4658      	mov	r0, fp
 8004730:	f002 fd28 	bl	8007184 <__sprint_r>
 8004734:	2800      	cmp	r0, #0
 8004736:	f040 847f 	bne.w	8005038 <_vfprintf_r+0x1478>
 800473a:	ac29      	add	r4, sp, #164	; 0xa4
 800473c:	9b10      	ldr	r3, [sp, #64]	; 0x40
 800473e:	1b5b      	subs	r3, r3, r5
 8004740:	2b00      	cmp	r3, #0
 8004742:	9310      	str	r3, [sp, #64]	; 0x40
 8004744:	dd1c      	ble.n	8004780 <_vfprintf_r+0xbc0>
 8004746:	9810      	ldr	r0, [sp, #64]	; 0x40
 8004748:	e9dd 2327 	ldrd	r2, r3, [sp, #156]	; 0x9c
 800474c:	2810      	cmp	r0, #16
 800474e:	485c      	ldr	r0, [pc, #368]	; (80048c0 <_vfprintf_r+0xd00>)
 8004750:	6020      	str	r0, [r4, #0]
 8004752:	f102 0201 	add.w	r2, r2, #1
 8004756:	f104 0108 	add.w	r1, r4, #8
 800475a:	f300 8166 	bgt.w	8004a2a <_vfprintf_r+0xe6a>
 800475e:	9810      	ldr	r0, [sp, #64]	; 0x40
 8004760:	6060      	str	r0, [r4, #4]
 8004762:	4403      	add	r3, r0
 8004764:	2a07      	cmp	r2, #7
 8004766:	e9cd 2327 	strd	r2, r3, [sp, #156]	; 0x9c
 800476a:	f340 8173 	ble.w	8004a54 <_vfprintf_r+0xe94>
 800476e:	aa26      	add	r2, sp, #152	; 0x98
 8004770:	4641      	mov	r1, r8
 8004772:	4658      	mov	r0, fp
 8004774:	f002 fd06 	bl	8007184 <__sprint_r>
 8004778:	2800      	cmp	r0, #0
 800477a:	f040 845d 	bne.w	8005038 <_vfprintf_r+0x1478>
 800477e:	ac29      	add	r4, sp, #164	; 0xa4
 8004780:	9b28      	ldr	r3, [sp, #160]	; 0xa0
 8004782:	9310      	str	r3, [sp, #64]	; 0x40
 8004784:	f41a 7f80 	tst.w	sl, #256	; 0x100
 8004788:	f040 8166 	bne.w	8004a58 <_vfprintf_r+0xe98>
 800478c:	e9c4 9500 	strd	r9, r5, [r4]
 8004790:	441d      	add	r5, r3
 8004792:	9528      	str	r5, [sp, #160]	; 0xa0
 8004794:	9b27      	ldr	r3, [sp, #156]	; 0x9c
 8004796:	3301      	adds	r3, #1
 8004798:	2b07      	cmp	r3, #7
 800479a:	9327      	str	r3, [sp, #156]	; 0x9c
 800479c:	f300 81a2 	bgt.w	8004ae4 <_vfprintf_r+0xf24>
 80047a0:	3408      	adds	r4, #8
 80047a2:	f01a 0f04 	tst.w	sl, #4
 80047a6:	f040 8429 	bne.w	8004ffc <_vfprintf_r+0x143c>
 80047aa:	e9dd 320e 	ldrd	r3, r2, [sp, #56]	; 0x38
 80047ae:	9911      	ldr	r1, [sp, #68]	; 0x44
 80047b0:	428a      	cmp	r2, r1
 80047b2:	bfac      	ite	ge
 80047b4:	189b      	addge	r3, r3, r2
 80047b6:	185b      	addlt	r3, r3, r1
 80047b8:	930e      	str	r3, [sp, #56]	; 0x38
 80047ba:	9b28      	ldr	r3, [sp, #160]	; 0xa0
 80047bc:	b13b      	cbz	r3, 80047ce <_vfprintf_r+0xc0e>
 80047be:	aa26      	add	r2, sp, #152	; 0x98
 80047c0:	4641      	mov	r1, r8
 80047c2:	4658      	mov	r0, fp
 80047c4:	f002 fcde 	bl	8007184 <__sprint_r>
 80047c8:	2800      	cmp	r0, #0
 80047ca:	f040 8435 	bne.w	8005038 <_vfprintf_r+0x1478>
 80047ce:	2300      	movs	r3, #0
 80047d0:	9327      	str	r3, [sp, #156]	; 0x9c
 80047d2:	9b03      	ldr	r3, [sp, #12]
 80047d4:	2b00      	cmp	r3, #0
 80047d6:	f040 844b 	bne.w	8005070 <_vfprintf_r+0x14b0>
 80047da:	ac29      	add	r4, sp, #164	; 0xa4
 80047dc:	e6b7      	b.n	800454e <_vfprintf_r+0x98e>
 80047de:	4648      	mov	r0, r9
 80047e0:	f7fb fd16 	bl	8000210 <strlen>
 80047e4:	9603      	str	r6, [sp, #12]
 80047e6:	4605      	mov	r5, r0
 80047e8:	4633      	mov	r3, r6
 80047ea:	e48a      	b.n	8004102 <_vfprintf_r+0x542>
 80047ec:	f04a 0a10 	orr.w	sl, sl, #16
 80047f0:	f01a 0f20 	tst.w	sl, #32
 80047f4:	d009      	beq.n	800480a <_vfprintf_r+0xc4a>
 80047f6:	3607      	adds	r6, #7
 80047f8:	f026 0607 	bic.w	r6, r6, #7
 80047fc:	f106 0308 	add.w	r3, r6, #8
 8004800:	e9d6 6700 	ldrd	r6, r7, [r6]
 8004804:	9309      	str	r3, [sp, #36]	; 0x24
 8004806:	2301      	movs	r3, #1
 8004808:	e6c8      	b.n	800459c <_vfprintf_r+0x9dc>
 800480a:	1d33      	adds	r3, r6, #4
 800480c:	f01a 0f10 	tst.w	sl, #16
 8004810:	9309      	str	r3, [sp, #36]	; 0x24
 8004812:	d001      	beq.n	8004818 <_vfprintf_r+0xc58>
 8004814:	6836      	ldr	r6, [r6, #0]
 8004816:	e003      	b.n	8004820 <_vfprintf_r+0xc60>
 8004818:	f01a 0f40 	tst.w	sl, #64	; 0x40
 800481c:	d002      	beq.n	8004824 <_vfprintf_r+0xc64>
 800481e:	8836      	ldrh	r6, [r6, #0]
 8004820:	2700      	movs	r7, #0
 8004822:	e7f0      	b.n	8004806 <_vfprintf_r+0xc46>
 8004824:	f41a 7f00 	tst.w	sl, #512	; 0x200
 8004828:	d0f4      	beq.n	8004814 <_vfprintf_r+0xc54>
 800482a:	7836      	ldrb	r6, [r6, #0]
 800482c:	e7f8      	b.n	8004820 <_vfprintf_r+0xc60>
 800482e:	4b22      	ldr	r3, [pc, #136]	; (80048b8 <_vfprintf_r+0xcf8>)
 8004830:	f7ff bb3f 	b.w	8003eb2 <_vfprintf_r+0x2f2>
 8004834:	1d33      	adds	r3, r6, #4
 8004836:	f01a 0f10 	tst.w	sl, #16
 800483a:	9309      	str	r3, [sp, #36]	; 0x24
 800483c:	d001      	beq.n	8004842 <_vfprintf_r+0xc82>
 800483e:	6836      	ldr	r6, [r6, #0]
 8004840:	e003      	b.n	800484a <_vfprintf_r+0xc8a>
 8004842:	f01a 0f40 	tst.w	sl, #64	; 0x40
 8004846:	d003      	beq.n	8004850 <_vfprintf_r+0xc90>
 8004848:	8836      	ldrh	r6, [r6, #0]
 800484a:	2700      	movs	r7, #0
 800484c:	f7ff bb3e 	b.w	8003ecc <_vfprintf_r+0x30c>
 8004850:	f41a 7f00 	tst.w	sl, #512	; 0x200
 8004854:	d0f3      	beq.n	800483e <_vfprintf_r+0xc7e>
 8004856:	7836      	ldrb	r6, [r6, #0]
 8004858:	e7f7      	b.n	800484a <_vfprintf_r+0xc8a>
 800485a:	4652      	mov	r2, sl
 800485c:	2301      	movs	r3, #1
 800485e:	e6a4      	b.n	80045aa <_vfprintf_r+0x9ea>
 8004860:	2b01      	cmp	r3, #1
 8004862:	f43f abf9 	beq.w	8004058 <_vfprintf_r+0x498>
 8004866:	2b02      	cmp	r3, #2
 8004868:	d06e      	beq.n	8004948 <_vfprintf_r+0xd88>
 800486a:	ab52      	add	r3, sp, #328	; 0x148
 800486c:	08f1      	lsrs	r1, r6, #3
 800486e:	ea41 7147 	orr.w	r1, r1, r7, lsl #29
 8004872:	08f8      	lsrs	r0, r7, #3
 8004874:	f006 0207 	and.w	r2, r6, #7
 8004878:	4607      	mov	r7, r0
 800487a:	460e      	mov	r6, r1
 800487c:	3230      	adds	r2, #48	; 0x30
 800487e:	ea56 0107 	orrs.w	r1, r6, r7
 8004882:	f103 39ff 	add.w	r9, r3, #4294967295	; 0xffffffff
 8004886:	f803 2c01 	strb.w	r2, [r3, #-1]
 800488a:	d113      	bne.n	80048b4 <_vfprintf_r+0xcf4>
 800488c:	f01a 0f01 	tst.w	sl, #1
 8004890:	d006      	beq.n	80048a0 <_vfprintf_r+0xce0>
 8004892:	2a30      	cmp	r2, #48	; 0x30
 8004894:	d004      	beq.n	80048a0 <_vfprintf_r+0xce0>
 8004896:	2230      	movs	r2, #48	; 0x30
 8004898:	f809 2c01 	strb.w	r2, [r9, #-1]
 800489c:	f1a3 0902 	sub.w	r9, r3, #2
 80048a0:	ab52      	add	r3, sp, #328	; 0x148
 80048a2:	9510      	str	r5, [sp, #64]	; 0x40
 80048a4:	eba3 0509 	sub.w	r5, r3, r9
 80048a8:	2300      	movs	r3, #0
 80048aa:	9303      	str	r3, [sp, #12]
 80048ac:	461f      	mov	r7, r3
 80048ae:	9307      	str	r3, [sp, #28]
 80048b0:	461e      	mov	r6, r3
 80048b2:	e6c2      	b.n	800463a <_vfprintf_r+0xa7a>
 80048b4:	464b      	mov	r3, r9
 80048b6:	e7d9      	b.n	800486c <_vfprintf_r+0xcac>
 80048b8:	080077be 	.word	0x080077be
 80048bc:	080077e2 	.word	0x080077e2
 80048c0:	080077f2 	.word	0x080077f2
 80048c4:	2300      	movs	r3, #0
 80048c6:	9304      	str	r3, [sp, #16]
 80048c8:	ab52      	add	r3, sp, #328	; 0x148
 80048ca:	9303      	str	r3, [sp, #12]
 80048cc:	f40a 6380 	and.w	r3, sl, #1024	; 0x400
 80048d0:	9307      	str	r3, [sp, #28]
 80048d2:	9b03      	ldr	r3, [sp, #12]
 80048d4:	220a      	movs	r2, #10
 80048d6:	f103 39ff 	add.w	r9, r3, #4294967295	; 0xffffffff
 80048da:	4630      	mov	r0, r6
 80048dc:	2300      	movs	r3, #0
 80048de:	4639      	mov	r1, r7
 80048e0:	f7fc f982 	bl	8000be8 <__aeabi_uldivmod>
 80048e4:	9b03      	ldr	r3, [sp, #12]
 80048e6:	3230      	adds	r2, #48	; 0x30
 80048e8:	f803 2c01 	strb.w	r2, [r3, #-1]
 80048ec:	9b04      	ldr	r3, [sp, #16]
 80048ee:	3301      	adds	r3, #1
 80048f0:	9304      	str	r3, [sp, #16]
 80048f2:	9b07      	ldr	r3, [sp, #28]
 80048f4:	b1d3      	cbz	r3, 800492c <_vfprintf_r+0xd6c>
 80048f6:	9b08      	ldr	r3, [sp, #32]
 80048f8:	9a04      	ldr	r2, [sp, #16]
 80048fa:	781b      	ldrb	r3, [r3, #0]
 80048fc:	429a      	cmp	r2, r3
 80048fe:	d115      	bne.n	800492c <_vfprintf_r+0xd6c>
 8004900:	2aff      	cmp	r2, #255	; 0xff
 8004902:	d013      	beq.n	800492c <_vfprintf_r+0xd6c>
 8004904:	2f00      	cmp	r7, #0
 8004906:	bf08      	it	eq
 8004908:	2e0a      	cmpeq	r6, #10
 800490a:	d30f      	bcc.n	800492c <_vfprintf_r+0xd6c>
 800490c:	9b12      	ldr	r3, [sp, #72]	; 0x48
 800490e:	9919      	ldr	r1, [sp, #100]	; 0x64
 8004910:	eba9 0903 	sub.w	r9, r9, r3
 8004914:	461a      	mov	r2, r3
 8004916:	4648      	mov	r0, r9
 8004918:	f002 fc1f 	bl	800715a <strncpy>
 800491c:	9b08      	ldr	r3, [sp, #32]
 800491e:	785b      	ldrb	r3, [r3, #1]
 8004920:	b11b      	cbz	r3, 800492a <_vfprintf_r+0xd6a>
 8004922:	9b08      	ldr	r3, [sp, #32]
 8004924:	3301      	adds	r3, #1
 8004926:	9308      	str	r3, [sp, #32]
 8004928:	2300      	movs	r3, #0
 800492a:	9304      	str	r3, [sp, #16]
 800492c:	2300      	movs	r3, #0
 800492e:	4630      	mov	r0, r6
 8004930:	4639      	mov	r1, r7
 8004932:	220a      	movs	r2, #10
 8004934:	f7fc f958 	bl	8000be8 <__aeabi_uldivmod>
 8004938:	4606      	mov	r6, r0
 800493a:	460f      	mov	r7, r1
 800493c:	ea56 0307 	orrs.w	r3, r6, r7
 8004940:	d0ae      	beq.n	80048a0 <_vfprintf_r+0xce0>
 8004942:	f8cd 900c 	str.w	r9, [sp, #12]
 8004946:	e7c4      	b.n	80048d2 <_vfprintf_r+0xd12>
 8004948:	f50d 79a4 	add.w	r9, sp, #328	; 0x148
 800494c:	f006 030f 	and.w	r3, r6, #15
 8004950:	9a18      	ldr	r2, [sp, #96]	; 0x60
 8004952:	5cd3      	ldrb	r3, [r2, r3]
 8004954:	f809 3d01 	strb.w	r3, [r9, #-1]!
 8004958:	0933      	lsrs	r3, r6, #4
 800495a:	ea43 7307 	orr.w	r3, r3, r7, lsl #28
 800495e:	093a      	lsrs	r2, r7, #4
 8004960:	461e      	mov	r6, r3
 8004962:	4617      	mov	r7, r2
 8004964:	ea56 0307 	orrs.w	r3, r6, r7
 8004968:	d1f0      	bne.n	800494c <_vfprintf_r+0xd8c>
 800496a:	e799      	b.n	80048a0 <_vfprintf_r+0xce0>
 800496c:	f50d 79a4 	add.w	r9, sp, #328	; 0x148
 8004970:	2b00      	cmp	r3, #0
 8004972:	d195      	bne.n	80048a0 <_vfprintf_r+0xce0>
 8004974:	07d6      	lsls	r6, r2, #31
 8004976:	bf44      	itt	mi
 8004978:	2330      	movmi	r3, #48	; 0x30
 800497a:	f809 3d01 	strbmi.w	r3, [r9, #-1]!
 800497e:	e78f      	b.n	80048a0 <_vfprintf_r+0xce0>
 8004980:	9b06      	ldr	r3, [sp, #24]
 8004982:	2b00      	cmp	r3, #0
 8004984:	f000 837a 	beq.w	800507c <_vfprintf_r+0x14bc>
 8004988:	2000      	movs	r0, #0
 800498a:	f88d 30e4 	strb.w	r3, [sp, #228]	; 0xe4
 800498e:	f88d 007b 	strb.w	r0, [sp, #123]	; 0x7b
 8004992:	9609      	str	r6, [sp, #36]	; 0x24
 8004994:	f7ff bb3c 	b.w	8004010 <_vfprintf_r+0x450>
 8004998:	f8dd a040 	ldr.w	sl, [sp, #64]	; 0x40
 800499c:	9b13      	ldr	r3, [sp, #76]	; 0x4c
 800499e:	e4ea      	b.n	8004376 <_vfprintf_r+0x7b6>
 80049a0:	9b03      	ldr	r3, [sp, #12]
 80049a2:	f7ff bbae 	b.w	8004102 <_vfprintf_r+0x542>
 80049a6:	2010      	movs	r0, #16
 80049a8:	4403      	add	r3, r0
 80049aa:	2a07      	cmp	r2, #7
 80049ac:	6060      	str	r0, [r4, #4]
 80049ae:	e9cd 2327 	strd	r2, r3, [sp, #156]	; 0x9c
 80049b2:	dd08      	ble.n	80049c6 <_vfprintf_r+0xe06>
 80049b4:	aa26      	add	r2, sp, #152	; 0x98
 80049b6:	4641      	mov	r1, r8
 80049b8:	4658      	mov	r0, fp
 80049ba:	f002 fbe3 	bl	8007184 <__sprint_r>
 80049be:	2800      	cmp	r0, #0
 80049c0:	f040 833a 	bne.w	8005038 <_vfprintf_r+0x1478>
 80049c4:	a929      	add	r1, sp, #164	; 0xa4
 80049c6:	9b13      	ldr	r3, [sp, #76]	; 0x4c
 80049c8:	3b10      	subs	r3, #16
 80049ca:	9313      	str	r3, [sp, #76]	; 0x4c
 80049cc:	460c      	mov	r4, r1
 80049ce:	e650      	b.n	8004672 <_vfprintf_r+0xab2>
 80049d0:	460c      	mov	r4, r1
 80049d2:	e66b      	b.n	80046ac <_vfprintf_r+0xaec>
 80049d4:	aa26      	add	r2, sp, #152	; 0x98
 80049d6:	4641      	mov	r1, r8
 80049d8:	4658      	mov	r0, fp
 80049da:	f002 fbd3 	bl	8007184 <__sprint_r>
 80049de:	2800      	cmp	r0, #0
 80049e0:	f040 832a 	bne.w	8005038 <_vfprintf_r+0x1478>
 80049e4:	ac29      	add	r4, sp, #164	; 0xa4
 80049e6:	e673      	b.n	80046d0 <_vfprintf_r+0xb10>
 80049e8:	aa26      	add	r2, sp, #152	; 0x98
 80049ea:	4641      	mov	r1, r8
 80049ec:	4658      	mov	r0, fp
 80049ee:	f002 fbc9 	bl	8007184 <__sprint_r>
 80049f2:	2800      	cmp	r0, #0
 80049f4:	f040 8320 	bne.w	8005038 <_vfprintf_r+0x1478>
 80049f8:	ac29      	add	r4, sp, #164	; 0xa4
 80049fa:	e679      	b.n	80046f0 <_vfprintf_r+0xb30>
 80049fc:	2010      	movs	r0, #16
 80049fe:	4403      	add	r3, r0
 8004a00:	2a07      	cmp	r2, #7
 8004a02:	6060      	str	r0, [r4, #4]
 8004a04:	e9cd 2327 	strd	r2, r3, [sp, #156]	; 0x9c
 8004a08:	dd08      	ble.n	8004a1c <_vfprintf_r+0xe5c>
 8004a0a:	aa26      	add	r2, sp, #152	; 0x98
 8004a0c:	4641      	mov	r1, r8
 8004a0e:	4658      	mov	r0, fp
 8004a10:	f002 fbb8 	bl	8007184 <__sprint_r>
 8004a14:	2800      	cmp	r0, #0
 8004a16:	f040 830f 	bne.w	8005038 <_vfprintf_r+0x1478>
 8004a1a:	a929      	add	r1, sp, #164	; 0xa4
 8004a1c:	9b13      	ldr	r3, [sp, #76]	; 0x4c
 8004a1e:	3b10      	subs	r3, #16
 8004a20:	9313      	str	r3, [sp, #76]	; 0x4c
 8004a22:	460c      	mov	r4, r1
 8004a24:	e66d      	b.n	8004702 <_vfprintf_r+0xb42>
 8004a26:	460c      	mov	r4, r1
 8004a28:	e688      	b.n	800473c <_vfprintf_r+0xb7c>
 8004a2a:	2010      	movs	r0, #16
 8004a2c:	4403      	add	r3, r0
 8004a2e:	2a07      	cmp	r2, #7
 8004a30:	6060      	str	r0, [r4, #4]
 8004a32:	e9cd 2327 	strd	r2, r3, [sp, #156]	; 0x9c
 8004a36:	dd08      	ble.n	8004a4a <_vfprintf_r+0xe8a>
 8004a38:	aa26      	add	r2, sp, #152	; 0x98
 8004a3a:	4641      	mov	r1, r8
 8004a3c:	4658      	mov	r0, fp
 8004a3e:	f002 fba1 	bl	8007184 <__sprint_r>
 8004a42:	2800      	cmp	r0, #0
 8004a44:	f040 82f8 	bne.w	8005038 <_vfprintf_r+0x1478>
 8004a48:	a929      	add	r1, sp, #164	; 0xa4
 8004a4a:	9b10      	ldr	r3, [sp, #64]	; 0x40
 8004a4c:	3b10      	subs	r3, #16
 8004a4e:	9310      	str	r3, [sp, #64]	; 0x40
 8004a50:	460c      	mov	r4, r1
 8004a52:	e678      	b.n	8004746 <_vfprintf_r+0xb86>
 8004a54:	460c      	mov	r4, r1
 8004a56:	e693      	b.n	8004780 <_vfprintf_r+0xbc0>
 8004a58:	9b06      	ldr	r3, [sp, #24]
 8004a5a:	2b65      	cmp	r3, #101	; 0x65
 8004a5c:	f340 8234 	ble.w	8004ec8 <_vfprintf_r+0x1308>
 8004a60:	2200      	movs	r2, #0
 8004a62:	2300      	movs	r3, #0
 8004a64:	e9dd 010a 	ldrd	r0, r1, [sp, #40]	; 0x28
 8004a68:	f7fc f84e 	bl	8000b08 <__aeabi_dcmpeq>
 8004a6c:	2800      	cmp	r0, #0
 8004a6e:	d069      	beq.n	8004b44 <_vfprintf_r+0xf84>
 8004a70:	4b6e      	ldr	r3, [pc, #440]	; (8004c2c <_vfprintf_r+0x106c>)
 8004a72:	9d10      	ldr	r5, [sp, #64]	; 0x40
 8004a74:	6023      	str	r3, [r4, #0]
 8004a76:	2301      	movs	r3, #1
 8004a78:	441d      	add	r5, r3
 8004a7a:	6063      	str	r3, [r4, #4]
 8004a7c:	9b27      	ldr	r3, [sp, #156]	; 0x9c
 8004a7e:	9528      	str	r5, [sp, #160]	; 0xa0
 8004a80:	3301      	adds	r3, #1
 8004a82:	2b07      	cmp	r3, #7
 8004a84:	9327      	str	r3, [sp, #156]	; 0x9c
 8004a86:	dc37      	bgt.n	8004af8 <_vfprintf_r+0xf38>
 8004a88:	3408      	adds	r4, #8
 8004a8a:	9b20      	ldr	r3, [sp, #128]	; 0x80
 8004a8c:	9a04      	ldr	r2, [sp, #16]
 8004a8e:	4293      	cmp	r3, r2
 8004a90:	db03      	blt.n	8004a9a <_vfprintf_r+0xeda>
 8004a92:	f01a 0f01 	tst.w	sl, #1
 8004a96:	f43f ae84 	beq.w	80047a2 <_vfprintf_r+0xbe2>
 8004a9a:	9b16      	ldr	r3, [sp, #88]	; 0x58
 8004a9c:	6023      	str	r3, [r4, #0]
 8004a9e:	9b0d      	ldr	r3, [sp, #52]	; 0x34
 8004aa0:	6063      	str	r3, [r4, #4]
 8004aa2:	9a0d      	ldr	r2, [sp, #52]	; 0x34
 8004aa4:	9b28      	ldr	r3, [sp, #160]	; 0xa0
 8004aa6:	4413      	add	r3, r2
 8004aa8:	9328      	str	r3, [sp, #160]	; 0xa0
 8004aaa:	9b27      	ldr	r3, [sp, #156]	; 0x9c
 8004aac:	3301      	adds	r3, #1
 8004aae:	2b07      	cmp	r3, #7
 8004ab0:	9327      	str	r3, [sp, #156]	; 0x9c
 8004ab2:	dc2b      	bgt.n	8004b0c <_vfprintf_r+0xf4c>
 8004ab4:	3408      	adds	r4, #8
 8004ab6:	9b04      	ldr	r3, [sp, #16]
 8004ab8:	1e5d      	subs	r5, r3, #1
 8004aba:	2d00      	cmp	r5, #0
 8004abc:	f77f ae71 	ble.w	80047a2 <_vfprintf_r+0xbe2>
 8004ac0:	4e5b      	ldr	r6, [pc, #364]	; (8004c30 <_vfprintf_r+0x1070>)
 8004ac2:	2710      	movs	r7, #16
 8004ac4:	e9dd 3227 	ldrd	r3, r2, [sp, #156]	; 0x9c
 8004ac8:	2d10      	cmp	r5, #16
 8004aca:	f103 0301 	add.w	r3, r3, #1
 8004ace:	f104 0108 	add.w	r1, r4, #8
 8004ad2:	6026      	str	r6, [r4, #0]
 8004ad4:	dc24      	bgt.n	8004b20 <_vfprintf_r+0xf60>
 8004ad6:	6065      	str	r5, [r4, #4]
 8004ad8:	2b07      	cmp	r3, #7
 8004ada:	4415      	add	r5, r2
 8004adc:	e9cd 3527 	strd	r3, r5, [sp, #156]	; 0x9c
 8004ae0:	f340 8289 	ble.w	8004ff6 <_vfprintf_r+0x1436>
 8004ae4:	aa26      	add	r2, sp, #152	; 0x98
 8004ae6:	4641      	mov	r1, r8
 8004ae8:	4658      	mov	r0, fp
 8004aea:	f002 fb4b 	bl	8007184 <__sprint_r>
 8004aee:	2800      	cmp	r0, #0
 8004af0:	f040 82a2 	bne.w	8005038 <_vfprintf_r+0x1478>
 8004af4:	ac29      	add	r4, sp, #164	; 0xa4
 8004af6:	e654      	b.n	80047a2 <_vfprintf_r+0xbe2>
 8004af8:	aa26      	add	r2, sp, #152	; 0x98
 8004afa:	4641      	mov	r1, r8
 8004afc:	4658      	mov	r0, fp
 8004afe:	f002 fb41 	bl	8007184 <__sprint_r>
 8004b02:	2800      	cmp	r0, #0
 8004b04:	f040 8298 	bne.w	8005038 <_vfprintf_r+0x1478>
 8004b08:	ac29      	add	r4, sp, #164	; 0xa4
 8004b0a:	e7be      	b.n	8004a8a <_vfprintf_r+0xeca>
 8004b0c:	aa26      	add	r2, sp, #152	; 0x98
 8004b0e:	4641      	mov	r1, r8
 8004b10:	4658      	mov	r0, fp
 8004b12:	f002 fb37 	bl	8007184 <__sprint_r>
 8004b16:	2800      	cmp	r0, #0
 8004b18:	f040 828e 	bne.w	8005038 <_vfprintf_r+0x1478>
 8004b1c:	ac29      	add	r4, sp, #164	; 0xa4
 8004b1e:	e7ca      	b.n	8004ab6 <_vfprintf_r+0xef6>
 8004b20:	3210      	adds	r2, #16
 8004b22:	2b07      	cmp	r3, #7
 8004b24:	6067      	str	r7, [r4, #4]
 8004b26:	e9cd 3227 	strd	r3, r2, [sp, #156]	; 0x9c
 8004b2a:	dd08      	ble.n	8004b3e <_vfprintf_r+0xf7e>
 8004b2c:	aa26      	add	r2, sp, #152	; 0x98
 8004b2e:	4641      	mov	r1, r8
 8004b30:	4658      	mov	r0, fp
 8004b32:	f002 fb27 	bl	8007184 <__sprint_r>
 8004b36:	2800      	cmp	r0, #0
 8004b38:	f040 827e 	bne.w	8005038 <_vfprintf_r+0x1478>
 8004b3c:	a929      	add	r1, sp, #164	; 0xa4
 8004b3e:	3d10      	subs	r5, #16
 8004b40:	460c      	mov	r4, r1
 8004b42:	e7bf      	b.n	8004ac4 <_vfprintf_r+0xf04>
 8004b44:	9b20      	ldr	r3, [sp, #128]	; 0x80
 8004b46:	2b00      	cmp	r3, #0
 8004b48:	dc74      	bgt.n	8004c34 <_vfprintf_r+0x1074>
 8004b4a:	4b38      	ldr	r3, [pc, #224]	; (8004c2c <_vfprintf_r+0x106c>)
 8004b4c:	9d10      	ldr	r5, [sp, #64]	; 0x40
 8004b4e:	6023      	str	r3, [r4, #0]
 8004b50:	2301      	movs	r3, #1
 8004b52:	441d      	add	r5, r3
 8004b54:	6063      	str	r3, [r4, #4]
 8004b56:	9b27      	ldr	r3, [sp, #156]	; 0x9c
 8004b58:	9528      	str	r5, [sp, #160]	; 0xa0
 8004b5a:	3301      	adds	r3, #1
 8004b5c:	2b07      	cmp	r3, #7
 8004b5e:	9327      	str	r3, [sp, #156]	; 0x9c
 8004b60:	dc3e      	bgt.n	8004be0 <_vfprintf_r+0x1020>
 8004b62:	3408      	adds	r4, #8
 8004b64:	9b20      	ldr	r3, [sp, #128]	; 0x80
 8004b66:	b92b      	cbnz	r3, 8004b74 <_vfprintf_r+0xfb4>
 8004b68:	9b04      	ldr	r3, [sp, #16]
 8004b6a:	b91b      	cbnz	r3, 8004b74 <_vfprintf_r+0xfb4>
 8004b6c:	f01a 0f01 	tst.w	sl, #1
 8004b70:	f43f ae17 	beq.w	80047a2 <_vfprintf_r+0xbe2>
 8004b74:	9b16      	ldr	r3, [sp, #88]	; 0x58
 8004b76:	6023      	str	r3, [r4, #0]
 8004b78:	9b0d      	ldr	r3, [sp, #52]	; 0x34
 8004b7a:	6063      	str	r3, [r4, #4]
 8004b7c:	9a0d      	ldr	r2, [sp, #52]	; 0x34
 8004b7e:	9b28      	ldr	r3, [sp, #160]	; 0xa0
 8004b80:	4413      	add	r3, r2
 8004b82:	9328      	str	r3, [sp, #160]	; 0xa0
 8004b84:	9b27      	ldr	r3, [sp, #156]	; 0x9c
 8004b86:	3301      	adds	r3, #1
 8004b88:	2b07      	cmp	r3, #7
 8004b8a:	9327      	str	r3, [sp, #156]	; 0x9c
 8004b8c:	dc32      	bgt.n	8004bf4 <_vfprintf_r+0x1034>
 8004b8e:	3408      	adds	r4, #8
 8004b90:	9d20      	ldr	r5, [sp, #128]	; 0x80
 8004b92:	2d00      	cmp	r5, #0
 8004b94:	da1b      	bge.n	8004bce <_vfprintf_r+0x100e>
 8004b96:	4e26      	ldr	r6, [pc, #152]	; (8004c30 <_vfprintf_r+0x1070>)
 8004b98:	426d      	negs	r5, r5
 8004b9a:	4623      	mov	r3, r4
 8004b9c:	2710      	movs	r7, #16
 8004b9e:	e9dd 2127 	ldrd	r2, r1, [sp, #156]	; 0x9c
 8004ba2:	2d10      	cmp	r5, #16
 8004ba4:	f102 0201 	add.w	r2, r2, #1
 8004ba8:	f104 0408 	add.w	r4, r4, #8
 8004bac:	601e      	str	r6, [r3, #0]
 8004bae:	dc2b      	bgt.n	8004c08 <_vfprintf_r+0x1048>
 8004bb0:	605d      	str	r5, [r3, #4]
 8004bb2:	2a07      	cmp	r2, #7
 8004bb4:	440d      	add	r5, r1
 8004bb6:	e9cd 2527 	strd	r2, r5, [sp, #156]	; 0x9c
 8004bba:	dd08      	ble.n	8004bce <_vfprintf_r+0x100e>
 8004bbc:	aa26      	add	r2, sp, #152	; 0x98
 8004bbe:	4641      	mov	r1, r8
 8004bc0:	4658      	mov	r0, fp
 8004bc2:	f002 fadf 	bl	8007184 <__sprint_r>
 8004bc6:	2800      	cmp	r0, #0
 8004bc8:	f040 8236 	bne.w	8005038 <_vfprintf_r+0x1478>
 8004bcc:	ac29      	add	r4, sp, #164	; 0xa4
 8004bce:	9b04      	ldr	r3, [sp, #16]
 8004bd0:	6063      	str	r3, [r4, #4]
 8004bd2:	9a04      	ldr	r2, [sp, #16]
 8004bd4:	9b28      	ldr	r3, [sp, #160]	; 0xa0
 8004bd6:	f8c4 9000 	str.w	r9, [r4]
 8004bda:	4413      	add	r3, r2
 8004bdc:	9328      	str	r3, [sp, #160]	; 0xa0
 8004bde:	e5d9      	b.n	8004794 <_vfprintf_r+0xbd4>
 8004be0:	aa26      	add	r2, sp, #152	; 0x98
 8004be2:	4641      	mov	r1, r8
 8004be4:	4658      	mov	r0, fp
 8004be6:	f002 facd 	bl	8007184 <__sprint_r>
 8004bea:	2800      	cmp	r0, #0
 8004bec:	f040 8224 	bne.w	8005038 <_vfprintf_r+0x1478>
 8004bf0:	ac29      	add	r4, sp, #164	; 0xa4
 8004bf2:	e7b7      	b.n	8004b64 <_vfprintf_r+0xfa4>
 8004bf4:	aa26      	add	r2, sp, #152	; 0x98
 8004bf6:	4641      	mov	r1, r8
 8004bf8:	4658      	mov	r0, fp
 8004bfa:	f002 fac3 	bl	8007184 <__sprint_r>
 8004bfe:	2800      	cmp	r0, #0
 8004c00:	f040 821a 	bne.w	8005038 <_vfprintf_r+0x1478>
 8004c04:	ac29      	add	r4, sp, #164	; 0xa4
 8004c06:	e7c3      	b.n	8004b90 <_vfprintf_r+0xfd0>
 8004c08:	3110      	adds	r1, #16
 8004c0a:	2a07      	cmp	r2, #7
 8004c0c:	605f      	str	r7, [r3, #4]
 8004c0e:	e9cd 2127 	strd	r2, r1, [sp, #156]	; 0x9c
 8004c12:	dd08      	ble.n	8004c26 <_vfprintf_r+0x1066>
 8004c14:	aa26      	add	r2, sp, #152	; 0x98
 8004c16:	4641      	mov	r1, r8
 8004c18:	4658      	mov	r0, fp
 8004c1a:	f002 fab3 	bl	8007184 <__sprint_r>
 8004c1e:	2800      	cmp	r0, #0
 8004c20:	f040 820a 	bne.w	8005038 <_vfprintf_r+0x1478>
 8004c24:	ac29      	add	r4, sp, #164	; 0xa4
 8004c26:	3d10      	subs	r5, #16
 8004c28:	4623      	mov	r3, r4
 8004c2a:	e7b8      	b.n	8004b9e <_vfprintf_r+0xfde>
 8004c2c:	080077e0 	.word	0x080077e0
 8004c30:	080077f2 	.word	0x080077f2
 8004c34:	9b04      	ldr	r3, [sp, #16]
 8004c36:	42b3      	cmp	r3, r6
 8004c38:	bfa8      	it	ge
 8004c3a:	4633      	movge	r3, r6
 8004c3c:	2b00      	cmp	r3, #0
 8004c3e:	461d      	mov	r5, r3
 8004c40:	dd0b      	ble.n	8004c5a <_vfprintf_r+0x109a>
 8004c42:	e9c4 9300 	strd	r9, r3, [r4]
 8004c46:	9b10      	ldr	r3, [sp, #64]	; 0x40
 8004c48:	442b      	add	r3, r5
 8004c4a:	9328      	str	r3, [sp, #160]	; 0xa0
 8004c4c:	9b27      	ldr	r3, [sp, #156]	; 0x9c
 8004c4e:	3301      	adds	r3, #1
 8004c50:	2b07      	cmp	r3, #7
 8004c52:	9327      	str	r3, [sp, #156]	; 0x9c
 8004c54:	f300 8086 	bgt.w	8004d64 <_vfprintf_r+0x11a4>
 8004c58:	3408      	adds	r4, #8
 8004c5a:	2d00      	cmp	r5, #0
 8004c5c:	bfac      	ite	ge
 8004c5e:	1b75      	subge	r5, r6, r5
 8004c60:	4635      	movlt	r5, r6
 8004c62:	2d00      	cmp	r5, #0
 8004c64:	dd19      	ble.n	8004c9a <_vfprintf_r+0x10da>
 8004c66:	e9dd 3227 	ldrd	r3, r2, [sp, #156]	; 0x9c
 8004c6a:	4896      	ldr	r0, [pc, #600]	; (8004ec4 <_vfprintf_r+0x1304>)
 8004c6c:	6020      	str	r0, [r4, #0]
 8004c6e:	2d10      	cmp	r5, #16
 8004c70:	f103 0301 	add.w	r3, r3, #1
 8004c74:	f104 0108 	add.w	r1, r4, #8
 8004c78:	dc7e      	bgt.n	8004d78 <_vfprintf_r+0x11b8>
 8004c7a:	6065      	str	r5, [r4, #4]
 8004c7c:	2b07      	cmp	r3, #7
 8004c7e:	4415      	add	r5, r2
 8004c80:	e9cd 3527 	strd	r3, r5, [sp, #156]	; 0x9c
 8004c84:	f340 808b 	ble.w	8004d9e <_vfprintf_r+0x11de>
 8004c88:	aa26      	add	r2, sp, #152	; 0x98
 8004c8a:	4641      	mov	r1, r8
 8004c8c:	4658      	mov	r0, fp
 8004c8e:	f002 fa79 	bl	8007184 <__sprint_r>
 8004c92:	2800      	cmp	r0, #0
 8004c94:	f040 81d0 	bne.w	8005038 <_vfprintf_r+0x1478>
 8004c98:	ac29      	add	r4, sp, #164	; 0xa4
 8004c9a:	f41a 6f80 	tst.w	sl, #1024	; 0x400
 8004c9e:	444e      	add	r6, r9
 8004ca0:	d009      	beq.n	8004cb6 <_vfprintf_r+0x10f6>
 8004ca2:	9b07      	ldr	r3, [sp, #28]
 8004ca4:	2b00      	cmp	r3, #0
 8004ca6:	d17c      	bne.n	8004da2 <_vfprintf_r+0x11e2>
 8004ca8:	2f00      	cmp	r7, #0
 8004caa:	d17c      	bne.n	8004da6 <_vfprintf_r+0x11e6>
 8004cac:	9b04      	ldr	r3, [sp, #16]
 8004cae:	444b      	add	r3, r9
 8004cb0:	429e      	cmp	r6, r3
 8004cb2:	bf28      	it	cs
 8004cb4:	461e      	movcs	r6, r3
 8004cb6:	9b20      	ldr	r3, [sp, #128]	; 0x80
 8004cb8:	9a04      	ldr	r2, [sp, #16]
 8004cba:	4293      	cmp	r3, r2
 8004cbc:	db02      	blt.n	8004cc4 <_vfprintf_r+0x1104>
 8004cbe:	f01a 0f01 	tst.w	sl, #1
 8004cc2:	d00e      	beq.n	8004ce2 <_vfprintf_r+0x1122>
 8004cc4:	9b16      	ldr	r3, [sp, #88]	; 0x58
 8004cc6:	6023      	str	r3, [r4, #0]
 8004cc8:	9b0d      	ldr	r3, [sp, #52]	; 0x34
 8004cca:	6063      	str	r3, [r4, #4]
 8004ccc:	9a0d      	ldr	r2, [sp, #52]	; 0x34
 8004cce:	9b28      	ldr	r3, [sp, #160]	; 0xa0
 8004cd0:	4413      	add	r3, r2
 8004cd2:	9328      	str	r3, [sp, #160]	; 0xa0
 8004cd4:	9b27      	ldr	r3, [sp, #156]	; 0x9c
 8004cd6:	3301      	adds	r3, #1
 8004cd8:	2b07      	cmp	r3, #7
 8004cda:	9327      	str	r3, [sp, #156]	; 0x9c
 8004cdc:	f300 80dd 	bgt.w	8004e9a <_vfprintf_r+0x12da>
 8004ce0:	3408      	adds	r4, #8
 8004ce2:	9b04      	ldr	r3, [sp, #16]
 8004ce4:	9a04      	ldr	r2, [sp, #16]
 8004ce6:	eb09 0503 	add.w	r5, r9, r3
 8004cea:	1bab      	subs	r3, r5, r6
 8004cec:	9d20      	ldr	r5, [sp, #128]	; 0x80
 8004cee:	1b55      	subs	r5, r2, r5
 8004cf0:	429d      	cmp	r5, r3
 8004cf2:	bfa8      	it	ge
 8004cf4:	461d      	movge	r5, r3
 8004cf6:	2d00      	cmp	r5, #0
 8004cf8:	dd0b      	ble.n	8004d12 <_vfprintf_r+0x1152>
 8004cfa:	9b28      	ldr	r3, [sp, #160]	; 0xa0
 8004cfc:	442b      	add	r3, r5
 8004cfe:	9328      	str	r3, [sp, #160]	; 0xa0
 8004d00:	9b27      	ldr	r3, [sp, #156]	; 0x9c
 8004d02:	3301      	adds	r3, #1
 8004d04:	2b07      	cmp	r3, #7
 8004d06:	e9c4 6500 	strd	r6, r5, [r4]
 8004d0a:	9327      	str	r3, [sp, #156]	; 0x9c
 8004d0c:	f300 80cf 	bgt.w	8004eae <_vfprintf_r+0x12ee>
 8004d10:	3408      	adds	r4, #8
 8004d12:	9b20      	ldr	r3, [sp, #128]	; 0x80
 8004d14:	9a04      	ldr	r2, [sp, #16]
 8004d16:	2d00      	cmp	r5, #0
 8004d18:	eba2 0303 	sub.w	r3, r2, r3
 8004d1c:	bfac      	ite	ge
 8004d1e:	1b5d      	subge	r5, r3, r5
 8004d20:	461d      	movlt	r5, r3
 8004d22:	2d00      	cmp	r5, #0
 8004d24:	f77f ad3d 	ble.w	80047a2 <_vfprintf_r+0xbe2>
 8004d28:	4e66      	ldr	r6, [pc, #408]	; (8004ec4 <_vfprintf_r+0x1304>)
 8004d2a:	2710      	movs	r7, #16
 8004d2c:	e9dd 3227 	ldrd	r3, r2, [sp, #156]	; 0x9c
 8004d30:	2d10      	cmp	r5, #16
 8004d32:	f103 0301 	add.w	r3, r3, #1
 8004d36:	f104 0108 	add.w	r1, r4, #8
 8004d3a:	6026      	str	r6, [r4, #0]
 8004d3c:	f77f aecb 	ble.w	8004ad6 <_vfprintf_r+0xf16>
 8004d40:	3210      	adds	r2, #16
 8004d42:	2b07      	cmp	r3, #7
 8004d44:	6067      	str	r7, [r4, #4]
 8004d46:	e9cd 3227 	strd	r3, r2, [sp, #156]	; 0x9c
 8004d4a:	dd08      	ble.n	8004d5e <_vfprintf_r+0x119e>
 8004d4c:	aa26      	add	r2, sp, #152	; 0x98
 8004d4e:	4641      	mov	r1, r8
 8004d50:	4658      	mov	r0, fp
 8004d52:	f002 fa17 	bl	8007184 <__sprint_r>
 8004d56:	2800      	cmp	r0, #0
 8004d58:	f040 816e 	bne.w	8005038 <_vfprintf_r+0x1478>
 8004d5c:	a929      	add	r1, sp, #164	; 0xa4
 8004d5e:	3d10      	subs	r5, #16
 8004d60:	460c      	mov	r4, r1
 8004d62:	e7e3      	b.n	8004d2c <_vfprintf_r+0x116c>
 8004d64:	aa26      	add	r2, sp, #152	; 0x98
 8004d66:	4641      	mov	r1, r8
 8004d68:	4658      	mov	r0, fp
 8004d6a:	f002 fa0b 	bl	8007184 <__sprint_r>
 8004d6e:	2800      	cmp	r0, #0
 8004d70:	f040 8162 	bne.w	8005038 <_vfprintf_r+0x1478>
 8004d74:	ac29      	add	r4, sp, #164	; 0xa4
 8004d76:	e770      	b.n	8004c5a <_vfprintf_r+0x109a>
 8004d78:	2010      	movs	r0, #16
 8004d7a:	4402      	add	r2, r0
 8004d7c:	2b07      	cmp	r3, #7
 8004d7e:	6060      	str	r0, [r4, #4]
 8004d80:	e9cd 3227 	strd	r3, r2, [sp, #156]	; 0x9c
 8004d84:	dd08      	ble.n	8004d98 <_vfprintf_r+0x11d8>
 8004d86:	aa26      	add	r2, sp, #152	; 0x98
 8004d88:	4641      	mov	r1, r8
 8004d8a:	4658      	mov	r0, fp
 8004d8c:	f002 f9fa 	bl	8007184 <__sprint_r>
 8004d90:	2800      	cmp	r0, #0
 8004d92:	f040 8151 	bne.w	8005038 <_vfprintf_r+0x1478>
 8004d96:	a929      	add	r1, sp, #164	; 0xa4
 8004d98:	3d10      	subs	r5, #16
 8004d9a:	460c      	mov	r4, r1
 8004d9c:	e763      	b.n	8004c66 <_vfprintf_r+0x10a6>
 8004d9e:	460c      	mov	r4, r1
 8004da0:	e77b      	b.n	8004c9a <_vfprintf_r+0x10da>
 8004da2:	2f00      	cmp	r7, #0
 8004da4:	d049      	beq.n	8004e3a <_vfprintf_r+0x127a>
 8004da6:	3f01      	subs	r7, #1
 8004da8:	9b19      	ldr	r3, [sp, #100]	; 0x64
 8004daa:	6023      	str	r3, [r4, #0]
 8004dac:	9b12      	ldr	r3, [sp, #72]	; 0x48
 8004dae:	6063      	str	r3, [r4, #4]
 8004db0:	9a12      	ldr	r2, [sp, #72]	; 0x48
 8004db2:	9b28      	ldr	r3, [sp, #160]	; 0xa0
 8004db4:	4413      	add	r3, r2
 8004db6:	9328      	str	r3, [sp, #160]	; 0xa0
 8004db8:	9b27      	ldr	r3, [sp, #156]	; 0x9c
 8004dba:	3301      	adds	r3, #1
 8004dbc:	2b07      	cmp	r3, #7
 8004dbe:	9327      	str	r3, [sp, #156]	; 0x9c
 8004dc0:	dc42      	bgt.n	8004e48 <_vfprintf_r+0x1288>
 8004dc2:	3408      	adds	r4, #8
 8004dc4:	9b04      	ldr	r3, [sp, #16]
 8004dc6:	444b      	add	r3, r9
 8004dc8:	1b9a      	subs	r2, r3, r6
 8004dca:	9b08      	ldr	r3, [sp, #32]
 8004dcc:	781b      	ldrb	r3, [r3, #0]
 8004dce:	4293      	cmp	r3, r2
 8004dd0:	bfa8      	it	ge
 8004dd2:	4613      	movge	r3, r2
 8004dd4:	2b00      	cmp	r3, #0
 8004dd6:	461d      	mov	r5, r3
 8004dd8:	dd0a      	ble.n	8004df0 <_vfprintf_r+0x1230>
 8004dda:	e9c4 6300 	strd	r6, r3, [r4]
 8004dde:	9b28      	ldr	r3, [sp, #160]	; 0xa0
 8004de0:	442b      	add	r3, r5
 8004de2:	9328      	str	r3, [sp, #160]	; 0xa0
 8004de4:	9b27      	ldr	r3, [sp, #156]	; 0x9c
 8004de6:	3301      	adds	r3, #1
 8004de8:	2b07      	cmp	r3, #7
 8004dea:	9327      	str	r3, [sp, #156]	; 0x9c
 8004dec:	dc36      	bgt.n	8004e5c <_vfprintf_r+0x129c>
 8004dee:	3408      	adds	r4, #8
 8004df0:	9b08      	ldr	r3, [sp, #32]
 8004df2:	781b      	ldrb	r3, [r3, #0]
 8004df4:	2d00      	cmp	r5, #0
 8004df6:	bfac      	ite	ge
 8004df8:	1b5d      	subge	r5, r3, r5
 8004dfa:	461d      	movlt	r5, r3
 8004dfc:	2d00      	cmp	r5, #0
 8004dfe:	dd18      	ble.n	8004e32 <_vfprintf_r+0x1272>
 8004e00:	e9dd 2327 	ldrd	r2, r3, [sp, #156]	; 0x9c
 8004e04:	482f      	ldr	r0, [pc, #188]	; (8004ec4 <_vfprintf_r+0x1304>)
 8004e06:	6020      	str	r0, [r4, #0]
 8004e08:	2d10      	cmp	r5, #16
 8004e0a:	f102 0201 	add.w	r2, r2, #1
 8004e0e:	f104 0108 	add.w	r1, r4, #8
 8004e12:	dc2d      	bgt.n	8004e70 <_vfprintf_r+0x12b0>
 8004e14:	442b      	add	r3, r5
 8004e16:	2a07      	cmp	r2, #7
 8004e18:	6065      	str	r5, [r4, #4]
 8004e1a:	e9cd 2327 	strd	r2, r3, [sp, #156]	; 0x9c
 8004e1e:	dd3a      	ble.n	8004e96 <_vfprintf_r+0x12d6>
 8004e20:	aa26      	add	r2, sp, #152	; 0x98
 8004e22:	4641      	mov	r1, r8
 8004e24:	4658      	mov	r0, fp
 8004e26:	f002 f9ad 	bl	8007184 <__sprint_r>
 8004e2a:	2800      	cmp	r0, #0
 8004e2c:	f040 8104 	bne.w	8005038 <_vfprintf_r+0x1478>
 8004e30:	ac29      	add	r4, sp, #164	; 0xa4
 8004e32:	9b08      	ldr	r3, [sp, #32]
 8004e34:	781b      	ldrb	r3, [r3, #0]
 8004e36:	441e      	add	r6, r3
 8004e38:	e733      	b.n	8004ca2 <_vfprintf_r+0x10e2>
 8004e3a:	9b08      	ldr	r3, [sp, #32]
 8004e3c:	3b01      	subs	r3, #1
 8004e3e:	9308      	str	r3, [sp, #32]
 8004e40:	9b07      	ldr	r3, [sp, #28]
 8004e42:	3b01      	subs	r3, #1
 8004e44:	9307      	str	r3, [sp, #28]
 8004e46:	e7af      	b.n	8004da8 <_vfprintf_r+0x11e8>
 8004e48:	aa26      	add	r2, sp, #152	; 0x98
 8004e4a:	4641      	mov	r1, r8
 8004e4c:	4658      	mov	r0, fp
 8004e4e:	f002 f999 	bl	8007184 <__sprint_r>
 8004e52:	2800      	cmp	r0, #0
 8004e54:	f040 80f0 	bne.w	8005038 <_vfprintf_r+0x1478>
 8004e58:	ac29      	add	r4, sp, #164	; 0xa4
 8004e5a:	e7b3      	b.n	8004dc4 <_vfprintf_r+0x1204>
 8004e5c:	aa26      	add	r2, sp, #152	; 0x98
 8004e5e:	4641      	mov	r1, r8
 8004e60:	4658      	mov	r0, fp
 8004e62:	f002 f98f 	bl	8007184 <__sprint_r>
 8004e66:	2800      	cmp	r0, #0
 8004e68:	f040 80e6 	bne.w	8005038 <_vfprintf_r+0x1478>
 8004e6c:	ac29      	add	r4, sp, #164	; 0xa4
 8004e6e:	e7bf      	b.n	8004df0 <_vfprintf_r+0x1230>
 8004e70:	2010      	movs	r0, #16
 8004e72:	4403      	add	r3, r0
 8004e74:	2a07      	cmp	r2, #7
 8004e76:	6060      	str	r0, [r4, #4]
 8004e78:	e9cd 2327 	strd	r2, r3, [sp, #156]	; 0x9c
 8004e7c:	dd08      	ble.n	8004e90 <_vfprintf_r+0x12d0>
 8004e7e:	aa26      	add	r2, sp, #152	; 0x98
 8004e80:	4641      	mov	r1, r8
 8004e82:	4658      	mov	r0, fp
 8004e84:	f002 f97e 	bl	8007184 <__sprint_r>
 8004e88:	2800      	cmp	r0, #0
 8004e8a:	f040 80d5 	bne.w	8005038 <_vfprintf_r+0x1478>
 8004e8e:	a929      	add	r1, sp, #164	; 0xa4
 8004e90:	3d10      	subs	r5, #16
 8004e92:	460c      	mov	r4, r1
 8004e94:	e7b4      	b.n	8004e00 <_vfprintf_r+0x1240>
 8004e96:	460c      	mov	r4, r1
 8004e98:	e7cb      	b.n	8004e32 <_vfprintf_r+0x1272>
 8004e9a:	aa26      	add	r2, sp, #152	; 0x98
 8004e9c:	4641      	mov	r1, r8
 8004e9e:	4658      	mov	r0, fp
 8004ea0:	f002 f970 	bl	8007184 <__sprint_r>
 8004ea4:	2800      	cmp	r0, #0
 8004ea6:	f040 80c7 	bne.w	8005038 <_vfprintf_r+0x1478>
 8004eaa:	ac29      	add	r4, sp, #164	; 0xa4
 8004eac:	e719      	b.n	8004ce2 <_vfprintf_r+0x1122>
 8004eae:	aa26      	add	r2, sp, #152	; 0x98
 8004eb0:	4641      	mov	r1, r8
 8004eb2:	4658      	mov	r0, fp
 8004eb4:	f002 f966 	bl	8007184 <__sprint_r>
 8004eb8:	2800      	cmp	r0, #0
 8004eba:	f040 80bd 	bne.w	8005038 <_vfprintf_r+0x1478>
 8004ebe:	ac29      	add	r4, sp, #164	; 0xa4
 8004ec0:	e727      	b.n	8004d12 <_vfprintf_r+0x1152>
 8004ec2:	bf00      	nop
 8004ec4:	080077f2 	.word	0x080077f2
 8004ec8:	9a04      	ldr	r2, [sp, #16]
 8004eca:	9d10      	ldr	r5, [sp, #64]	; 0x40
 8004ecc:	9b27      	ldr	r3, [sp, #156]	; 0x9c
 8004ece:	2a01      	cmp	r2, #1
 8004ed0:	f105 0501 	add.w	r5, r5, #1
 8004ed4:	f103 0301 	add.w	r3, r3, #1
 8004ed8:	f104 0608 	add.w	r6, r4, #8
 8004edc:	dc02      	bgt.n	8004ee4 <_vfprintf_r+0x1324>
 8004ede:	f01a 0f01 	tst.w	sl, #1
 8004ee2:	d07d      	beq.n	8004fe0 <_vfprintf_r+0x1420>
 8004ee4:	2201      	movs	r2, #1
 8004ee6:	2b07      	cmp	r3, #7
 8004ee8:	f8c4 9000 	str.w	r9, [r4]
 8004eec:	6062      	str	r2, [r4, #4]
 8004eee:	e9cd 3527 	strd	r3, r5, [sp, #156]	; 0x9c
 8004ef2:	dd08      	ble.n	8004f06 <_vfprintf_r+0x1346>
 8004ef4:	aa26      	add	r2, sp, #152	; 0x98
 8004ef6:	4641      	mov	r1, r8
 8004ef8:	4658      	mov	r0, fp
 8004efa:	f002 f943 	bl	8007184 <__sprint_r>
 8004efe:	2800      	cmp	r0, #0
 8004f00:	f040 809a 	bne.w	8005038 <_vfprintf_r+0x1478>
 8004f04:	ae29      	add	r6, sp, #164	; 0xa4
 8004f06:	9b16      	ldr	r3, [sp, #88]	; 0x58
 8004f08:	6033      	str	r3, [r6, #0]
 8004f0a:	9b0d      	ldr	r3, [sp, #52]	; 0x34
 8004f0c:	6073      	str	r3, [r6, #4]
 8004f0e:	9a0d      	ldr	r2, [sp, #52]	; 0x34
 8004f10:	9b28      	ldr	r3, [sp, #160]	; 0xa0
 8004f12:	4413      	add	r3, r2
 8004f14:	9328      	str	r3, [sp, #160]	; 0xa0
 8004f16:	9b27      	ldr	r3, [sp, #156]	; 0x9c
 8004f18:	3301      	adds	r3, #1
 8004f1a:	2b07      	cmp	r3, #7
 8004f1c:	9327      	str	r3, [sp, #156]	; 0x9c
 8004f1e:	dc31      	bgt.n	8004f84 <_vfprintf_r+0x13c4>
 8004f20:	3608      	adds	r6, #8
 8004f22:	9b04      	ldr	r3, [sp, #16]
 8004f24:	2200      	movs	r2, #0
 8004f26:	1e5c      	subs	r4, r3, #1
 8004f28:	e9dd 010a 	ldrd	r0, r1, [sp, #40]	; 0x28
 8004f2c:	2300      	movs	r3, #0
 8004f2e:	f7fb fdeb 	bl	8000b08 <__aeabi_dcmpeq>
 8004f32:	2800      	cmp	r0, #0
 8004f34:	d12f      	bne.n	8004f96 <_vfprintf_r+0x13d6>
 8004f36:	f109 0301 	add.w	r3, r9, #1
 8004f3a:	9a27      	ldr	r2, [sp, #156]	; 0x9c
 8004f3c:	9904      	ldr	r1, [sp, #16]
 8004f3e:	e9c6 3400 	strd	r3, r4, [r6]
 8004f42:	9b28      	ldr	r3, [sp, #160]	; 0xa0
 8004f44:	3201      	adds	r2, #1
 8004f46:	3b01      	subs	r3, #1
 8004f48:	440b      	add	r3, r1
 8004f4a:	2a07      	cmp	r2, #7
 8004f4c:	e9cd 2327 	strd	r2, r3, [sp, #156]	; 0x9c
 8004f50:	dd4f      	ble.n	8004ff2 <_vfprintf_r+0x1432>
 8004f52:	aa26      	add	r2, sp, #152	; 0x98
 8004f54:	4641      	mov	r1, r8
 8004f56:	4658      	mov	r0, fp
 8004f58:	f002 f914 	bl	8007184 <__sprint_r>
 8004f5c:	2800      	cmp	r0, #0
 8004f5e:	d16b      	bne.n	8005038 <_vfprintf_r+0x1478>
 8004f60:	ae29      	add	r6, sp, #164	; 0xa4
 8004f62:	ab22      	add	r3, sp, #136	; 0x88
 8004f64:	6033      	str	r3, [r6, #0]
 8004f66:	9b17      	ldr	r3, [sp, #92]	; 0x5c
 8004f68:	6073      	str	r3, [r6, #4]
 8004f6a:	9a17      	ldr	r2, [sp, #92]	; 0x5c
 8004f6c:	9b28      	ldr	r3, [sp, #160]	; 0xa0
 8004f6e:	4413      	add	r3, r2
 8004f70:	9328      	str	r3, [sp, #160]	; 0xa0
 8004f72:	9b27      	ldr	r3, [sp, #156]	; 0x9c
 8004f74:	3301      	adds	r3, #1
 8004f76:	2b07      	cmp	r3, #7
 8004f78:	9327      	str	r3, [sp, #156]	; 0x9c
 8004f7a:	f73f adb3 	bgt.w	8004ae4 <_vfprintf_r+0xf24>
 8004f7e:	f106 0408 	add.w	r4, r6, #8
 8004f82:	e40e      	b.n	80047a2 <_vfprintf_r+0xbe2>
 8004f84:	aa26      	add	r2, sp, #152	; 0x98
 8004f86:	4641      	mov	r1, r8
 8004f88:	4658      	mov	r0, fp
 8004f8a:	f002 f8fb 	bl	8007184 <__sprint_r>
 8004f8e:	2800      	cmp	r0, #0
 8004f90:	d152      	bne.n	8005038 <_vfprintf_r+0x1478>
 8004f92:	ae29      	add	r6, sp, #164	; 0xa4
 8004f94:	e7c5      	b.n	8004f22 <_vfprintf_r+0x1362>
 8004f96:	2c00      	cmp	r4, #0
 8004f98:	dde3      	ble.n	8004f62 <_vfprintf_r+0x13a2>
 8004f9a:	4d40      	ldr	r5, [pc, #256]	; (800509c <_vfprintf_r+0x14dc>)
 8004f9c:	2710      	movs	r7, #16
 8004f9e:	e9dd 3227 	ldrd	r3, r2, [sp, #156]	; 0x9c
 8004fa2:	2c10      	cmp	r4, #16
 8004fa4:	f103 0301 	add.w	r3, r3, #1
 8004fa8:	f106 0108 	add.w	r1, r6, #8
 8004fac:	6035      	str	r5, [r6, #0]
 8004fae:	dc07      	bgt.n	8004fc0 <_vfprintf_r+0x1400>
 8004fb0:	6074      	str	r4, [r6, #4]
 8004fb2:	2b07      	cmp	r3, #7
 8004fb4:	4414      	add	r4, r2
 8004fb6:	e9cd 3427 	strd	r3, r4, [sp, #156]	; 0x9c
 8004fba:	dcca      	bgt.n	8004f52 <_vfprintf_r+0x1392>
 8004fbc:	460e      	mov	r6, r1
 8004fbe:	e7d0      	b.n	8004f62 <_vfprintf_r+0x13a2>
 8004fc0:	3210      	adds	r2, #16
 8004fc2:	2b07      	cmp	r3, #7
 8004fc4:	6077      	str	r7, [r6, #4]
 8004fc6:	e9cd 3227 	strd	r3, r2, [sp, #156]	; 0x9c
 8004fca:	dd06      	ble.n	8004fda <_vfprintf_r+0x141a>
 8004fcc:	aa26      	add	r2, sp, #152	; 0x98
 8004fce:	4641      	mov	r1, r8
 8004fd0:	4658      	mov	r0, fp
 8004fd2:	f002 f8d7 	bl	8007184 <__sprint_r>
 8004fd6:	bb78      	cbnz	r0, 8005038 <_vfprintf_r+0x1478>
 8004fd8:	a929      	add	r1, sp, #164	; 0xa4
 8004fda:	3c10      	subs	r4, #16
 8004fdc:	460e      	mov	r6, r1
 8004fde:	e7de      	b.n	8004f9e <_vfprintf_r+0x13de>
 8004fe0:	2201      	movs	r2, #1
 8004fe2:	2b07      	cmp	r3, #7
 8004fe4:	f8c4 9000 	str.w	r9, [r4]
 8004fe8:	6062      	str	r2, [r4, #4]
 8004fea:	e9cd 3527 	strd	r3, r5, [sp, #156]	; 0x9c
 8004fee:	ddb8      	ble.n	8004f62 <_vfprintf_r+0x13a2>
 8004ff0:	e7af      	b.n	8004f52 <_vfprintf_r+0x1392>
 8004ff2:	3608      	adds	r6, #8
 8004ff4:	e7b5      	b.n	8004f62 <_vfprintf_r+0x13a2>
 8004ff6:	460c      	mov	r4, r1
 8004ff8:	f7ff bbd3 	b.w	80047a2 <_vfprintf_r+0xbe2>
 8004ffc:	9b0f      	ldr	r3, [sp, #60]	; 0x3c
 8004ffe:	9a11      	ldr	r2, [sp, #68]	; 0x44
 8005000:	1a9d      	subs	r5, r3, r2
 8005002:	2d00      	cmp	r5, #0
 8005004:	f77f abd1 	ble.w	80047aa <_vfprintf_r+0xbea>
 8005008:	4e25      	ldr	r6, [pc, #148]	; (80050a0 <_vfprintf_r+0x14e0>)
 800500a:	2710      	movs	r7, #16
 800500c:	e9dd 3227 	ldrd	r3, r2, [sp, #156]	; 0x9c
 8005010:	2d10      	cmp	r5, #16
 8005012:	f103 0301 	add.w	r3, r3, #1
 8005016:	6026      	str	r6, [r4, #0]
 8005018:	dc18      	bgt.n	800504c <_vfprintf_r+0x148c>
 800501a:	6065      	str	r5, [r4, #4]
 800501c:	2b07      	cmp	r3, #7
 800501e:	4415      	add	r5, r2
 8005020:	e9cd 3527 	strd	r3, r5, [sp, #156]	; 0x9c
 8005024:	f77f abc1 	ble.w	80047aa <_vfprintf_r+0xbea>
 8005028:	aa26      	add	r2, sp, #152	; 0x98
 800502a:	4641      	mov	r1, r8
 800502c:	4658      	mov	r0, fp
 800502e:	f002 f8a9 	bl	8007184 <__sprint_r>
 8005032:	2800      	cmp	r0, #0
 8005034:	f43f abb9 	beq.w	80047aa <_vfprintf_r+0xbea>
 8005038:	9b03      	ldr	r3, [sp, #12]
 800503a:	2b00      	cmp	r3, #0
 800503c:	f43f a895 	beq.w	800416a <_vfprintf_r+0x5aa>
 8005040:	4619      	mov	r1, r3
 8005042:	4658      	mov	r0, fp
 8005044:	f001 f896 	bl	8006174 <_free_r>
 8005048:	f7ff b88f 	b.w	800416a <_vfprintf_r+0x5aa>
 800504c:	3210      	adds	r2, #16
 800504e:	2b07      	cmp	r3, #7
 8005050:	6067      	str	r7, [r4, #4]
 8005052:	e9cd 3227 	strd	r3, r2, [sp, #156]	; 0x9c
 8005056:	dc02      	bgt.n	800505e <_vfprintf_r+0x149e>
 8005058:	3408      	adds	r4, #8
 800505a:	3d10      	subs	r5, #16
 800505c:	e7d6      	b.n	800500c <_vfprintf_r+0x144c>
 800505e:	aa26      	add	r2, sp, #152	; 0x98
 8005060:	4641      	mov	r1, r8
 8005062:	4658      	mov	r0, fp
 8005064:	f002 f88e 	bl	8007184 <__sprint_r>
 8005068:	2800      	cmp	r0, #0
 800506a:	d1e5      	bne.n	8005038 <_vfprintf_r+0x1478>
 800506c:	ac29      	add	r4, sp, #164	; 0xa4
 800506e:	e7f4      	b.n	800505a <_vfprintf_r+0x149a>
 8005070:	9903      	ldr	r1, [sp, #12]
 8005072:	4658      	mov	r0, fp
 8005074:	f001 f87e 	bl	8006174 <_free_r>
 8005078:	f7ff bbaf 	b.w	80047da <_vfprintf_r+0xc1a>
 800507c:	9b28      	ldr	r3, [sp, #160]	; 0xa0
 800507e:	b91b      	cbnz	r3, 8005088 <_vfprintf_r+0x14c8>
 8005080:	2300      	movs	r3, #0
 8005082:	9327      	str	r3, [sp, #156]	; 0x9c
 8005084:	f7ff b871 	b.w	800416a <_vfprintf_r+0x5aa>
 8005088:	aa26      	add	r2, sp, #152	; 0x98
 800508a:	4641      	mov	r1, r8
 800508c:	4658      	mov	r0, fp
 800508e:	f002 f879 	bl	8007184 <__sprint_r>
 8005092:	2800      	cmp	r0, #0
 8005094:	f47f a869 	bne.w	800416a <_vfprintf_r+0x5aa>
 8005098:	e7f2      	b.n	8005080 <_vfprintf_r+0x14c0>
 800509a:	bf00      	nop
 800509c:	080077f2 	.word	0x080077f2
 80050a0:	080077e2 	.word	0x080077e2

080050a4 <__sbprintf>:
 80050a4:	b5f0      	push	{r4, r5, r6, r7, lr}
 80050a6:	460c      	mov	r4, r1
 80050a8:	f2ad 4d6c 	subw	sp, sp, #1132	; 0x46c
 80050ac:	461f      	mov	r7, r3
 80050ae:	8989      	ldrh	r1, [r1, #12]
 80050b0:	6e63      	ldr	r3, [r4, #100]	; 0x64
 80050b2:	9319      	str	r3, [sp, #100]	; 0x64
 80050b4:	89e3      	ldrh	r3, [r4, #14]
 80050b6:	f8ad 300e 	strh.w	r3, [sp, #14]
 80050ba:	f021 0102 	bic.w	r1, r1, #2
 80050be:	69e3      	ldr	r3, [r4, #28]
 80050c0:	f8ad 100c 	strh.w	r1, [sp, #12]
 80050c4:	9307      	str	r3, [sp, #28]
 80050c6:	a91a      	add	r1, sp, #104	; 0x68
 80050c8:	6a63      	ldr	r3, [r4, #36]	; 0x24
 80050ca:	9309      	str	r3, [sp, #36]	; 0x24
 80050cc:	4615      	mov	r5, r2
 80050ce:	2300      	movs	r3, #0
 80050d0:	4606      	mov	r6, r0
 80050d2:	9100      	str	r1, [sp, #0]
 80050d4:	9104      	str	r1, [sp, #16]
 80050d6:	a816      	add	r0, sp, #88	; 0x58
 80050d8:	f44f 6180 	mov.w	r1, #1024	; 0x400
 80050dc:	9102      	str	r1, [sp, #8]
 80050de:	9105      	str	r1, [sp, #20]
 80050e0:	9306      	str	r3, [sp, #24]
 80050e2:	f001 fa8f 	bl	8006604 <__retarget_lock_init_recursive>
 80050e6:	462a      	mov	r2, r5
 80050e8:	463b      	mov	r3, r7
 80050ea:	4669      	mov	r1, sp
 80050ec:	4630      	mov	r0, r6
 80050ee:	f7fe fd67 	bl	8003bc0 <_vfprintf_r>
 80050f2:	1e05      	subs	r5, r0, #0
 80050f4:	db07      	blt.n	8005106 <__sbprintf+0x62>
 80050f6:	4669      	mov	r1, sp
 80050f8:	4630      	mov	r0, r6
 80050fa:	f000 ff3f 	bl	8005f7c <_fflush_r>
 80050fe:	2800      	cmp	r0, #0
 8005100:	bf18      	it	ne
 8005102:	f04f 35ff 	movne.w	r5, #4294967295	; 0xffffffff
 8005106:	f8bd 300c 	ldrh.w	r3, [sp, #12]
 800510a:	9816      	ldr	r0, [sp, #88]	; 0x58
 800510c:	065b      	lsls	r3, r3, #25
 800510e:	bf42      	ittt	mi
 8005110:	89a3      	ldrhmi	r3, [r4, #12]
 8005112:	f043 0340 	orrmi.w	r3, r3, #64	; 0x40
 8005116:	81a3      	strhmi	r3, [r4, #12]
 8005118:	f001 fa75 	bl	8006606 <__retarget_lock_close_recursive>
 800511c:	4628      	mov	r0, r5
 800511e:	f20d 4d6c 	addw	sp, sp, #1132	; 0x46c
 8005122:	bdf0      	pop	{r4, r5, r6, r7, pc}

08005124 <__swsetup_r>:
 8005124:	b538      	push	{r3, r4, r5, lr}
 8005126:	4b2a      	ldr	r3, [pc, #168]	; (80051d0 <__swsetup_r+0xac>)
 8005128:	4605      	mov	r5, r0
 800512a:	6818      	ldr	r0, [r3, #0]
 800512c:	460c      	mov	r4, r1
 800512e:	b118      	cbz	r0, 8005138 <__swsetup_r+0x14>
 8005130:	6b83      	ldr	r3, [r0, #56]	; 0x38
 8005132:	b90b      	cbnz	r3, 8005138 <__swsetup_r+0x14>
 8005134:	f000 ff8e 	bl	8006054 <__sinit>
 8005138:	f9b4 300c 	ldrsh.w	r3, [r4, #12]
 800513c:	b29a      	uxth	r2, r3
 800513e:	0711      	lsls	r1, r2, #28
 8005140:	d422      	bmi.n	8005188 <__swsetup_r+0x64>
 8005142:	06d0      	lsls	r0, r2, #27
 8005144:	d407      	bmi.n	8005156 <__swsetup_r+0x32>
 8005146:	2209      	movs	r2, #9
 8005148:	602a      	str	r2, [r5, #0]
 800514a:	f043 0340 	orr.w	r3, r3, #64	; 0x40
 800514e:	81a3      	strh	r3, [r4, #12]
 8005150:	f04f 30ff 	mov.w	r0, #4294967295	; 0xffffffff
 8005154:	e034      	b.n	80051c0 <__swsetup_r+0x9c>
 8005156:	0751      	lsls	r1, r2, #29
 8005158:	d512      	bpl.n	8005180 <__swsetup_r+0x5c>
 800515a:	6b21      	ldr	r1, [r4, #48]	; 0x30
 800515c:	b141      	cbz	r1, 8005170 <__swsetup_r+0x4c>
 800515e:	f104 0340 	add.w	r3, r4, #64	; 0x40
 8005162:	4299      	cmp	r1, r3
 8005164:	d002      	beq.n	800516c <__swsetup_r+0x48>
 8005166:	4628      	mov	r0, r5
 8005168:	f001 f804 	bl	8006174 <_free_r>
 800516c:	2300      	movs	r3, #0
 800516e:	6323      	str	r3, [r4, #48]	; 0x30
 8005170:	89a3      	ldrh	r3, [r4, #12]
 8005172:	f023 0324 	bic.w	r3, r3, #36	; 0x24
 8005176:	81a3      	strh	r3, [r4, #12]
 8005178:	2300      	movs	r3, #0
 800517a:	6063      	str	r3, [r4, #4]
 800517c:	6923      	ldr	r3, [r4, #16]
 800517e:	6023      	str	r3, [r4, #0]
 8005180:	89a3      	ldrh	r3, [r4, #12]
 8005182:	f043 0308 	orr.w	r3, r3, #8
 8005186:	81a3      	strh	r3, [r4, #12]
 8005188:	6923      	ldr	r3, [r4, #16]
 800518a:	b94b      	cbnz	r3, 80051a0 <__swsetup_r+0x7c>
 800518c:	89a3      	ldrh	r3, [r4, #12]
 800518e:	f403 7320 	and.w	r3, r3, #640	; 0x280
 8005192:	f5b3 7f00 	cmp.w	r3, #512	; 0x200
 8005196:	d003      	beq.n	80051a0 <__swsetup_r+0x7c>
 8005198:	4621      	mov	r1, r4
 800519a:	4628      	mov	r0, r5
 800519c:	f001 fa62 	bl	8006664 <__smakebuf_r>
 80051a0:	89a2      	ldrh	r2, [r4, #12]
 80051a2:	f012 0301 	ands.w	r3, r2, #1
 80051a6:	d00c      	beq.n	80051c2 <__swsetup_r+0x9e>
 80051a8:	2300      	movs	r3, #0
 80051aa:	60a3      	str	r3, [r4, #8]
 80051ac:	6963      	ldr	r3, [r4, #20]
 80051ae:	425b      	negs	r3, r3
 80051b0:	61a3      	str	r3, [r4, #24]
 80051b2:	6923      	ldr	r3, [r4, #16]
 80051b4:	b953      	cbnz	r3, 80051cc <__swsetup_r+0xa8>
 80051b6:	f9b4 300c 	ldrsh.w	r3, [r4, #12]
 80051ba:	f013 0080 	ands.w	r0, r3, #128	; 0x80
 80051be:	d1c4      	bne.n	800514a <__swsetup_r+0x26>
 80051c0:	bd38      	pop	{r3, r4, r5, pc}
 80051c2:	0792      	lsls	r2, r2, #30
 80051c4:	bf58      	it	pl
 80051c6:	6963      	ldrpl	r3, [r4, #20]
 80051c8:	60a3      	str	r3, [r4, #8]
 80051ca:	e7f2      	b.n	80051b2 <__swsetup_r+0x8e>
 80051cc:	2000      	movs	r0, #0
 80051ce:	e7f7      	b.n	80051c0 <__swsetup_r+0x9c>
 80051d0:	20000518 	.word	0x20000518

080051d4 <register_fini>:
 80051d4:	4b02      	ldr	r3, [pc, #8]	; (80051e0 <register_fini+0xc>)
 80051d6:	b113      	cbz	r3, 80051de <register_fini+0xa>
 80051d8:	4802      	ldr	r0, [pc, #8]	; (80051e4 <register_fini+0x10>)
 80051da:	f000 b805 	b.w	80051e8 <atexit>
 80051de:	4770      	bx	lr
 80051e0:	00000000 	.word	0x00000000
 80051e4:	080060a5 	.word	0x080060a5

080051e8 <atexit>:
 80051e8:	2300      	movs	r3, #0
 80051ea:	4601      	mov	r1, r0
 80051ec:	461a      	mov	r2, r3
 80051ee:	4618      	mov	r0, r3
 80051f0:	f002 b862 	b.w	80072b8 <__register_exitproc>

080051f4 <quorem>:
 80051f4:	e92d 4ff7 	stmdb	sp!, {r0, r1, r2, r4, r5, r6, r7, r8, r9, sl, fp, lr}
 80051f8:	6903      	ldr	r3, [r0, #16]
 80051fa:	690c      	ldr	r4, [r1, #16]
 80051fc:	42a3      	cmp	r3, r4
 80051fe:	4680      	mov	r8, r0
 8005200:	f2c0 8082 	blt.w	8005308 <quorem+0x114>
 8005204:	3c01      	subs	r4, #1
 8005206:	f101 0714 	add.w	r7, r1, #20
 800520a:	ea4f 0c84 	mov.w	ip, r4, lsl #2
 800520e:	f100 0614 	add.w	r6, r0, #20
 8005212:	f857 5024 	ldr.w	r5, [r7, r4, lsl #2]
 8005216:	f856 0024 	ldr.w	r0, [r6, r4, lsl #2]
 800521a:	eb06 030c 	add.w	r3, r6, ip
 800521e:	3501      	adds	r5, #1
 8005220:	eb07 090c 	add.w	r9, r7, ip
 8005224:	9301      	str	r3, [sp, #4]
 8005226:	fbb0 f5f5 	udiv	r5, r0, r5
 800522a:	b395      	cbz	r5, 8005292 <quorem+0x9e>
 800522c:	f04f 0a00 	mov.w	sl, #0
 8005230:	4638      	mov	r0, r7
 8005232:	46b6      	mov	lr, r6
 8005234:	46d3      	mov	fp, sl
 8005236:	f850 2b04 	ldr.w	r2, [r0], #4
 800523a:	b293      	uxth	r3, r2
 800523c:	fb05 a303 	mla	r3, r5, r3, sl
 8005240:	ea4f 4a13 	mov.w	sl, r3, lsr #16
 8005244:	b29b      	uxth	r3, r3
 8005246:	ebab 0303 	sub.w	r3, fp, r3
 800524a:	0c12      	lsrs	r2, r2, #16
 800524c:	f8de b000 	ldr.w	fp, [lr]
 8005250:	fb05 a202 	mla	r2, r5, r2, sl
 8005254:	fa13 f38b 	uxtah	r3, r3, fp
 8005258:	ea4f 4a12 	mov.w	sl, r2, lsr #16
 800525c:	fa1f fb82 	uxth.w	fp, r2
 8005260:	f8de 2000 	ldr.w	r2, [lr]
 8005264:	ebcb 4212 	rsb	r2, fp, r2, lsr #16
 8005268:	eb02 4223 	add.w	r2, r2, r3, asr #16
 800526c:	b29b      	uxth	r3, r3
 800526e:	ea43 4302 	orr.w	r3, r3, r2, lsl #16
 8005272:	4581      	cmp	r9, r0
 8005274:	ea4f 4b22 	mov.w	fp, r2, asr #16
 8005278:	f84e 3b04 	str.w	r3, [lr], #4
 800527c:	d2db      	bcs.n	8005236 <quorem+0x42>
 800527e:	f856 300c 	ldr.w	r3, [r6, ip]
 8005282:	b933      	cbnz	r3, 8005292 <quorem+0x9e>
 8005284:	9b01      	ldr	r3, [sp, #4]
 8005286:	3b04      	subs	r3, #4
 8005288:	429e      	cmp	r6, r3
 800528a:	461a      	mov	r2, r3
 800528c:	d330      	bcc.n	80052f0 <quorem+0xfc>
 800528e:	f8c8 4010 	str.w	r4, [r8, #16]
 8005292:	4640      	mov	r0, r8
 8005294:	f001 fc46 	bl	8006b24 <__mcmp>
 8005298:	2800      	cmp	r0, #0
 800529a:	db25      	blt.n	80052e8 <quorem+0xf4>
 800529c:	3501      	adds	r5, #1
 800529e:	4630      	mov	r0, r6
 80052a0:	f04f 0c00 	mov.w	ip, #0
 80052a4:	f857 2b04 	ldr.w	r2, [r7], #4
 80052a8:	f8d0 e000 	ldr.w	lr, [r0]
 80052ac:	b293      	uxth	r3, r2
 80052ae:	ebac 0303 	sub.w	r3, ip, r3
 80052b2:	0c12      	lsrs	r2, r2, #16
 80052b4:	fa13 f38e 	uxtah	r3, r3, lr
 80052b8:	ebc2 421e 	rsb	r2, r2, lr, lsr #16
 80052bc:	eb02 4223 	add.w	r2, r2, r3, asr #16
 80052c0:	b29b      	uxth	r3, r3
 80052c2:	ea43 4302 	orr.w	r3, r3, r2, lsl #16
 80052c6:	45b9      	cmp	r9, r7
 80052c8:	ea4f 4c22 	mov.w	ip, r2, asr #16
 80052cc:	f840 3b04 	str.w	r3, [r0], #4
 80052d0:	d2e8      	bcs.n	80052a4 <quorem+0xb0>
 80052d2:	f856 2024 	ldr.w	r2, [r6, r4, lsl #2]
 80052d6:	eb06 0384 	add.w	r3, r6, r4, lsl #2
 80052da:	b92a      	cbnz	r2, 80052e8 <quorem+0xf4>
 80052dc:	3b04      	subs	r3, #4
 80052de:	429e      	cmp	r6, r3
 80052e0:	461a      	mov	r2, r3
 80052e2:	d30b      	bcc.n	80052fc <quorem+0x108>
 80052e4:	f8c8 4010 	str.w	r4, [r8, #16]
 80052e8:	4628      	mov	r0, r5
 80052ea:	b003      	add	sp, #12
 80052ec:	e8bd 8ff0 	ldmia.w	sp!, {r4, r5, r6, r7, r8, r9, sl, fp, pc}
 80052f0:	6812      	ldr	r2, [r2, #0]
 80052f2:	3b04      	subs	r3, #4
 80052f4:	2a00      	cmp	r2, #0
 80052f6:	d1ca      	bne.n	800528e <quorem+0x9a>
 80052f8:	3c01      	subs	r4, #1
 80052fa:	e7c5      	b.n	8005288 <quorem+0x94>
 80052fc:	6812      	ldr	r2, [r2, #0]
 80052fe:	3b04      	subs	r3, #4
 8005300:	2a00      	cmp	r2, #0
 8005302:	d1ef      	bne.n	80052e4 <quorem+0xf0>
 8005304:	3c01      	subs	r4, #1
 8005306:	e7ea      	b.n	80052de <quorem+0xea>
 8005308:	2000      	movs	r0, #0
 800530a:	e7ee      	b.n	80052ea <quorem+0xf6>
 800530c:	0000      	movs	r0, r0
	...

08005310 <_dtoa_r>:
 8005310:	e92d 4ff0 	stmdb	sp!, {r4, r5, r6, r7, r8, r9, sl, fp, lr}
 8005314:	b097      	sub	sp, #92	; 0x5c
 8005316:	ec57 6b10 	vmov	r6, r7, d0
 800531a:	9106      	str	r1, [sp, #24]
 800531c:	6c01      	ldr	r1, [r0, #64]	; 0x40
 800531e:	920b      	str	r2, [sp, #44]	; 0x2c
 8005320:	4604      	mov	r4, r0
 8005322:	9312      	str	r3, [sp, #72]	; 0x48
 8005324:	9d20      	ldr	r5, [sp, #128]	; 0x80
 8005326:	e9cd 6700 	strd	r6, r7, [sp]
 800532a:	b141      	cbz	r1, 800533e <_dtoa_r+0x2e>
 800532c:	6c42      	ldr	r2, [r0, #68]	; 0x44
 800532e:	604a      	str	r2, [r1, #4]
 8005330:	2301      	movs	r3, #1
 8005332:	4093      	lsls	r3, r2
 8005334:	608b      	str	r3, [r1, #8]
 8005336:	f001 fa30 	bl	800679a <_Bfree>
 800533a:	2300      	movs	r3, #0
 800533c:	6423      	str	r3, [r4, #64]	; 0x40
 800533e:	1e3b      	subs	r3, r7, #0
 8005340:	bfb9      	ittee	lt
 8005342:	f023 4300 	biclt.w	r3, r3, #2147483648	; 0x80000000
 8005346:	9301      	strlt	r3, [sp, #4]
 8005348:	2300      	movge	r3, #0
 800534a:	602b      	strge	r3, [r5, #0]
 800534c:	f8dd 8004 	ldr.w	r8, [sp, #4]
 8005350:	4baf      	ldr	r3, [pc, #700]	; (8005610 <_dtoa_r+0x300>)
 8005352:	bfbc      	itt	lt
 8005354:	2201      	movlt	r2, #1
 8005356:	602a      	strlt	r2, [r5, #0]
 8005358:	ea33 0308 	bics.w	r3, r3, r8
 800535c:	d116      	bne.n	800538c <_dtoa_r+0x7c>
 800535e:	9a12      	ldr	r2, [sp, #72]	; 0x48
 8005360:	f242 730f 	movw	r3, #9999	; 0x270f
 8005364:	6013      	str	r3, [r2, #0]
 8005366:	9b00      	ldr	r3, [sp, #0]
 8005368:	b923      	cbnz	r3, 8005374 <_dtoa_r+0x64>
 800536a:	f3c8 0013 	ubfx	r0, r8, #0, #20
 800536e:	2800      	cmp	r0, #0
 8005370:	f000 8543 	beq.w	8005dfa <_dtoa_r+0xaea>
 8005374:	9b21      	ldr	r3, [sp, #132]	; 0x84
 8005376:	f8df b2ac 	ldr.w	fp, [pc, #684]	; 8005624 <_dtoa_r+0x314>
 800537a:	b11b      	cbz	r3, 8005384 <_dtoa_r+0x74>
 800537c:	f10b 0303 	add.w	r3, fp, #3
 8005380:	9a21      	ldr	r2, [sp, #132]	; 0x84
 8005382:	6013      	str	r3, [r2, #0]
 8005384:	4658      	mov	r0, fp
 8005386:	b017      	add	sp, #92	; 0x5c
 8005388:	e8bd 8ff0 	ldmia.w	sp!, {r4, r5, r6, r7, r8, r9, sl, fp, pc}
 800538c:	e9dd 6700 	ldrd	r6, r7, [sp]
 8005390:	2200      	movs	r2, #0
 8005392:	2300      	movs	r3, #0
 8005394:	4630      	mov	r0, r6
 8005396:	4639      	mov	r1, r7
 8005398:	f7fb fbb6 	bl	8000b08 <__aeabi_dcmpeq>
 800539c:	4681      	mov	r9, r0
 800539e:	b160      	cbz	r0, 80053ba <_dtoa_r+0xaa>
 80053a0:	9a12      	ldr	r2, [sp, #72]	; 0x48
 80053a2:	2301      	movs	r3, #1
 80053a4:	6013      	str	r3, [r2, #0]
 80053a6:	9b21      	ldr	r3, [sp, #132]	; 0x84
 80053a8:	2b00      	cmp	r3, #0
 80053aa:	f000 8522 	beq.w	8005df2 <_dtoa_r+0xae2>
 80053ae:	4b99      	ldr	r3, [pc, #612]	; (8005614 <_dtoa_r+0x304>)
 80053b0:	9a21      	ldr	r2, [sp, #132]	; 0x84
 80053b2:	f103 3bff 	add.w	fp, r3, #4294967295	; 0xffffffff
 80053b6:	6013      	str	r3, [r2, #0]
 80053b8:	e7e4      	b.n	8005384 <_dtoa_r+0x74>
 80053ba:	aa14      	add	r2, sp, #80	; 0x50
 80053bc:	a915      	add	r1, sp, #84	; 0x54
 80053be:	ec47 6b10 	vmov	d0, r6, r7
 80053c2:	4620      	mov	r0, r4
 80053c4:	f001 fc25 	bl	8006c12 <__d2b>
 80053c8:	f3c8 550a 	ubfx	r5, r8, #20, #11
 80053cc:	9004      	str	r0, [sp, #16]
 80053ce:	2d00      	cmp	r5, #0
 80053d0:	d07c      	beq.n	80054cc <_dtoa_r+0x1bc>
 80053d2:	f3c7 0313 	ubfx	r3, r7, #0, #20
 80053d6:	f043 5b7f 	orr.w	fp, r3, #1069547520	; 0x3fc00000
 80053da:	46b2      	mov	sl, r6
 80053dc:	f44b 1b40 	orr.w	fp, fp, #3145728	; 0x300000
 80053e0:	f2a5 35ff 	subw	r5, r5, #1023	; 0x3ff
 80053e4:	f8cd 904c 	str.w	r9, [sp, #76]	; 0x4c
 80053e8:	2200      	movs	r2, #0
 80053ea:	4b8b      	ldr	r3, [pc, #556]	; (8005618 <_dtoa_r+0x308>)
 80053ec:	4650      	mov	r0, sl
 80053ee:	4659      	mov	r1, fp
 80053f0:	f7fa ff6a 	bl	80002c8 <__aeabi_dsub>
 80053f4:	a380      	add	r3, pc, #512	; (adr r3, 80055f8 <_dtoa_r+0x2e8>)
 80053f6:	e9d3 2300 	ldrd	r2, r3, [r3]
 80053fa:	f7fb f91d 	bl	8000638 <__aeabi_dmul>
 80053fe:	a380      	add	r3, pc, #512	; (adr r3, 8005600 <_dtoa_r+0x2f0>)
 8005400:	e9d3 2300 	ldrd	r2, r3, [r3]
 8005404:	f7fa ff62 	bl	80002cc <__adddf3>
 8005408:	4606      	mov	r6, r0
 800540a:	4628      	mov	r0, r5
 800540c:	460f      	mov	r7, r1
 800540e:	f7fb f8a9 	bl	8000564 <__aeabi_i2d>
 8005412:	a37d      	add	r3, pc, #500	; (adr r3, 8005608 <_dtoa_r+0x2f8>)
 8005414:	e9d3 2300 	ldrd	r2, r3, [r3]
 8005418:	f7fb f90e 	bl	8000638 <__aeabi_dmul>
 800541c:	4602      	mov	r2, r0
 800541e:	460b      	mov	r3, r1
 8005420:	4630      	mov	r0, r6
 8005422:	4639      	mov	r1, r7
 8005424:	f7fa ff52 	bl	80002cc <__adddf3>
 8005428:	4606      	mov	r6, r0
 800542a:	460f      	mov	r7, r1
 800542c:	f7fb fbb4 	bl	8000b98 <__aeabi_d2iz>
 8005430:	2200      	movs	r2, #0
 8005432:	4682      	mov	sl, r0
 8005434:	2300      	movs	r3, #0
 8005436:	4630      	mov	r0, r6
 8005438:	4639      	mov	r1, r7
 800543a:	f7fb fb6f 	bl	8000b1c <__aeabi_dcmplt>
 800543e:	b148      	cbz	r0, 8005454 <_dtoa_r+0x144>
 8005440:	4650      	mov	r0, sl
 8005442:	f7fb f88f 	bl	8000564 <__aeabi_i2d>
 8005446:	4632      	mov	r2, r6
 8005448:	463b      	mov	r3, r7
 800544a:	f7fb fb5d 	bl	8000b08 <__aeabi_dcmpeq>
 800544e:	b908      	cbnz	r0, 8005454 <_dtoa_r+0x144>
 8005450:	f10a 3aff 	add.w	sl, sl, #4294967295	; 0xffffffff
 8005454:	f1ba 0f16 	cmp.w	sl, #22
 8005458:	d859      	bhi.n	800550e <_dtoa_r+0x1fe>
 800545a:	4970      	ldr	r1, [pc, #448]	; (800561c <_dtoa_r+0x30c>)
 800545c:	eb01 01ca 	add.w	r1, r1, sl, lsl #3
 8005460:	e9dd 2300 	ldrd	r2, r3, [sp]
 8005464:	e9d1 0100 	ldrd	r0, r1, [r1]
 8005468:	f7fb fb76 	bl	8000b58 <__aeabi_dcmpgt>
 800546c:	2800      	cmp	r0, #0
 800546e:	d050      	beq.n	8005512 <_dtoa_r+0x202>
 8005470:	f10a 3aff 	add.w	sl, sl, #4294967295	; 0xffffffff
 8005474:	2300      	movs	r3, #0
 8005476:	930f      	str	r3, [sp, #60]	; 0x3c
 8005478:	9b14      	ldr	r3, [sp, #80]	; 0x50
 800547a:	1b5d      	subs	r5, r3, r5
 800547c:	f1b5 0801 	subs.w	r8, r5, #1
 8005480:	bf49      	itett	mi
 8005482:	f1c5 0301 	rsbmi	r3, r5, #1
 8005486:	2300      	movpl	r3, #0
 8005488:	9305      	strmi	r3, [sp, #20]
 800548a:	f04f 0800 	movmi.w	r8, #0
 800548e:	bf58      	it	pl
 8005490:	9305      	strpl	r3, [sp, #20]
 8005492:	f1ba 0f00 	cmp.w	sl, #0
 8005496:	db3e      	blt.n	8005516 <_dtoa_r+0x206>
 8005498:	2300      	movs	r3, #0
 800549a:	44d0      	add	r8, sl
 800549c:	f8cd a038 	str.w	sl, [sp, #56]	; 0x38
 80054a0:	9307      	str	r3, [sp, #28]
 80054a2:	9b06      	ldr	r3, [sp, #24]
 80054a4:	2b09      	cmp	r3, #9
 80054a6:	f200 808d 	bhi.w	80055c4 <_dtoa_r+0x2b4>
 80054aa:	2b05      	cmp	r3, #5
 80054ac:	bfc4      	itt	gt
 80054ae:	3b04      	subgt	r3, #4
 80054b0:	9306      	strgt	r3, [sp, #24]
 80054b2:	9b06      	ldr	r3, [sp, #24]
 80054b4:	f1a3 0302 	sub.w	r3, r3, #2
 80054b8:	bfcc      	ite	gt
 80054ba:	2500      	movgt	r5, #0
 80054bc:	2501      	movle	r5, #1
 80054be:	2b03      	cmp	r3, #3
 80054c0:	f200 808c 	bhi.w	80055dc <_dtoa_r+0x2cc>
 80054c4:	e8df f003 	tbb	[pc, r3]
 80054c8:	6e317c7a 	.word	0x6e317c7a
 80054cc:	e9dd 5314 	ldrd	r5, r3, [sp, #80]	; 0x50
 80054d0:	441d      	add	r5, r3
 80054d2:	f205 4032 	addw	r0, r5, #1074	; 0x432
 80054d6:	2820      	cmp	r0, #32
 80054d8:	dd13      	ble.n	8005502 <_dtoa_r+0x1f2>
 80054da:	f1c0 0040 	rsb	r0, r0, #64	; 0x40
 80054de:	9b00      	ldr	r3, [sp, #0]
 80054e0:	fa08 f800 	lsl.w	r8, r8, r0
 80054e4:	f205 4012 	addw	r0, r5, #1042	; 0x412
 80054e8:	fa23 f000 	lsr.w	r0, r3, r0
 80054ec:	ea48 0000 	orr.w	r0, r8, r0
 80054f0:	f7fb f828 	bl	8000544 <__aeabi_ui2d>
 80054f4:	2301      	movs	r3, #1
 80054f6:	4682      	mov	sl, r0
 80054f8:	f1a1 7bf8 	sub.w	fp, r1, #32505856	; 0x1f00000
 80054fc:	3d01      	subs	r5, #1
 80054fe:	9313      	str	r3, [sp, #76]	; 0x4c
 8005500:	e772      	b.n	80053e8 <_dtoa_r+0xd8>
 8005502:	9b00      	ldr	r3, [sp, #0]
 8005504:	f1c0 0020 	rsb	r0, r0, #32
 8005508:	fa03 f000 	lsl.w	r0, r3, r0
 800550c:	e7f0      	b.n	80054f0 <_dtoa_r+0x1e0>
 800550e:	2301      	movs	r3, #1
 8005510:	e7b1      	b.n	8005476 <_dtoa_r+0x166>
 8005512:	900f      	str	r0, [sp, #60]	; 0x3c
 8005514:	e7b0      	b.n	8005478 <_dtoa_r+0x168>
 8005516:	9b05      	ldr	r3, [sp, #20]
 8005518:	eba3 030a 	sub.w	r3, r3, sl
 800551c:	9305      	str	r3, [sp, #20]
 800551e:	f1ca 0300 	rsb	r3, sl, #0
 8005522:	9307      	str	r3, [sp, #28]
 8005524:	2300      	movs	r3, #0
 8005526:	930e      	str	r3, [sp, #56]	; 0x38
 8005528:	e7bb      	b.n	80054a2 <_dtoa_r+0x192>
 800552a:	2301      	movs	r3, #1
 800552c:	930a      	str	r3, [sp, #40]	; 0x28
 800552e:	9b0b      	ldr	r3, [sp, #44]	; 0x2c
 8005530:	2b00      	cmp	r3, #0
 8005532:	dd56      	ble.n	80055e2 <_dtoa_r+0x2d2>
 8005534:	9302      	str	r3, [sp, #8]
 8005536:	4699      	mov	r9, r3
 8005538:	2200      	movs	r2, #0
 800553a:	6462      	str	r2, [r4, #68]	; 0x44
 800553c:	2204      	movs	r2, #4
 800553e:	f102 0014 	add.w	r0, r2, #20
 8005542:	4298      	cmp	r0, r3
 8005544:	6c61      	ldr	r1, [r4, #68]	; 0x44
 8005546:	d951      	bls.n	80055ec <_dtoa_r+0x2dc>
 8005548:	4620      	mov	r0, r4
 800554a:	f001 f901 	bl	8006750 <_Balloc>
 800554e:	f1b9 0f0e 	cmp.w	r9, #14
 8005552:	4683      	mov	fp, r0
 8005554:	6420      	str	r0, [r4, #64]	; 0x40
 8005556:	f200 80e8 	bhi.w	800572a <_dtoa_r+0x41a>
 800555a:	2d00      	cmp	r5, #0
 800555c:	f000 80e5 	beq.w	800572a <_dtoa_r+0x41a>
 8005560:	ed9d 7b00 	vldr	d7, [sp]
 8005564:	f1ba 0f00 	cmp.w	sl, #0
 8005568:	ed8d 7b10 	vstr	d7, [sp, #64]	; 0x40
 800556c:	dd76      	ble.n	800565c <_dtoa_r+0x34c>
 800556e:	4a2b      	ldr	r2, [pc, #172]	; (800561c <_dtoa_r+0x30c>)
 8005570:	f00a 030f 	and.w	r3, sl, #15
 8005574:	eb02 03c3 	add.w	r3, r2, r3, lsl #3
 8005578:	ed93 7b00 	vldr	d7, [r3]
 800557c:	ea4f 162a 	mov.w	r6, sl, asr #4
 8005580:	06f0      	lsls	r0, r6, #27
 8005582:	ed8d 7b08 	vstr	d7, [sp, #32]
 8005586:	d567      	bpl.n	8005658 <_dtoa_r+0x348>
 8005588:	4b25      	ldr	r3, [pc, #148]	; (8005620 <_dtoa_r+0x310>)
 800558a:	e9dd 0110 	ldrd	r0, r1, [sp, #64]	; 0x40
 800558e:	e9d3 2308 	ldrd	r2, r3, [r3, #32]
 8005592:	f7fb f97b 	bl	800088c <__aeabi_ddiv>
 8005596:	e9cd 0100 	strd	r0, r1, [sp]
 800559a:	f006 060f 	and.w	r6, r6, #15
 800559e:	2503      	movs	r5, #3
 80055a0:	4f1f      	ldr	r7, [pc, #124]	; (8005620 <_dtoa_r+0x310>)
 80055a2:	e04e      	b.n	8005642 <_dtoa_r+0x332>
 80055a4:	2301      	movs	r3, #1
 80055a6:	930a      	str	r3, [sp, #40]	; 0x28
 80055a8:	9b0b      	ldr	r3, [sp, #44]	; 0x2c
 80055aa:	4453      	add	r3, sl
 80055ac:	f103 0901 	add.w	r9, r3, #1
 80055b0:	9302      	str	r3, [sp, #8]
 80055b2:	464b      	mov	r3, r9
 80055b4:	2b01      	cmp	r3, #1
 80055b6:	bfb8      	it	lt
 80055b8:	2301      	movlt	r3, #1
 80055ba:	e7bd      	b.n	8005538 <_dtoa_r+0x228>
 80055bc:	2300      	movs	r3, #0
 80055be:	e7b5      	b.n	800552c <_dtoa_r+0x21c>
 80055c0:	2300      	movs	r3, #0
 80055c2:	e7f0      	b.n	80055a6 <_dtoa_r+0x296>
 80055c4:	2501      	movs	r5, #1
 80055c6:	2300      	movs	r3, #0
 80055c8:	9306      	str	r3, [sp, #24]
 80055ca:	950a      	str	r5, [sp, #40]	; 0x28
 80055cc:	f04f 33ff 	mov.w	r3, #4294967295	; 0xffffffff
 80055d0:	9302      	str	r3, [sp, #8]
 80055d2:	4699      	mov	r9, r3
 80055d4:	2200      	movs	r2, #0
 80055d6:	2312      	movs	r3, #18
 80055d8:	920b      	str	r2, [sp, #44]	; 0x2c
 80055da:	e7ad      	b.n	8005538 <_dtoa_r+0x228>
 80055dc:	2301      	movs	r3, #1
 80055de:	930a      	str	r3, [sp, #40]	; 0x28
 80055e0:	e7f4      	b.n	80055cc <_dtoa_r+0x2bc>
 80055e2:	2301      	movs	r3, #1
 80055e4:	9302      	str	r3, [sp, #8]
 80055e6:	4699      	mov	r9, r3
 80055e8:	461a      	mov	r2, r3
 80055ea:	e7f5      	b.n	80055d8 <_dtoa_r+0x2c8>
 80055ec:	3101      	adds	r1, #1
 80055ee:	6461      	str	r1, [r4, #68]	; 0x44
 80055f0:	0052      	lsls	r2, r2, #1
 80055f2:	e7a4      	b.n	800553e <_dtoa_r+0x22e>
 80055f4:	f3af 8000 	nop.w
 80055f8:	636f4361 	.word	0x636f4361
 80055fc:	3fd287a7 	.word	0x3fd287a7
 8005600:	8b60c8b3 	.word	0x8b60c8b3
 8005604:	3fc68a28 	.word	0x3fc68a28
 8005608:	509f79fb 	.word	0x509f79fb
 800560c:	3fd34413 	.word	0x3fd34413
 8005610:	7ff00000 	.word	0x7ff00000
 8005614:	080077e1 	.word	0x080077e1
 8005618:	3ff80000 	.word	0x3ff80000
 800561c:	08007848 	.word	0x08007848
 8005620:	08007820 	.word	0x08007820
 8005624:	0800780b 	.word	0x0800780b
 8005628:	07f1      	lsls	r1, r6, #31
 800562a:	d508      	bpl.n	800563e <_dtoa_r+0x32e>
 800562c:	e9dd 0108 	ldrd	r0, r1, [sp, #32]
 8005630:	e9d7 2300 	ldrd	r2, r3, [r7]
 8005634:	f7fb f800 	bl	8000638 <__aeabi_dmul>
 8005638:	e9cd 0108 	strd	r0, r1, [sp, #32]
 800563c:	3501      	adds	r5, #1
 800563e:	1076      	asrs	r6, r6, #1
 8005640:	3708      	adds	r7, #8
 8005642:	2e00      	cmp	r6, #0
 8005644:	d1f0      	bne.n	8005628 <_dtoa_r+0x318>
 8005646:	e9dd 2308 	ldrd	r2, r3, [sp, #32]
 800564a:	e9dd 0100 	ldrd	r0, r1, [sp]
 800564e:	f7fb f91d 	bl	800088c <__aeabi_ddiv>
 8005652:	e9cd 0100 	strd	r0, r1, [sp]
 8005656:	e01a      	b.n	800568e <_dtoa_r+0x37e>
 8005658:	2502      	movs	r5, #2
 800565a:	e7a1      	b.n	80055a0 <_dtoa_r+0x290>
 800565c:	f000 80a0 	beq.w	80057a0 <_dtoa_r+0x490>
 8005660:	f1ca 0600 	rsb	r6, sl, #0
 8005664:	4b9f      	ldr	r3, [pc, #636]	; (80058e4 <_dtoa_r+0x5d4>)
 8005666:	4fa0      	ldr	r7, [pc, #640]	; (80058e8 <_dtoa_r+0x5d8>)
 8005668:	f006 020f 	and.w	r2, r6, #15
 800566c:	eb03 03c2 	add.w	r3, r3, r2, lsl #3
 8005670:	e9d3 2300 	ldrd	r2, r3, [r3]
 8005674:	e9dd 0110 	ldrd	r0, r1, [sp, #64]	; 0x40
 8005678:	f7fa ffde 	bl	8000638 <__aeabi_dmul>
 800567c:	e9cd 0100 	strd	r0, r1, [sp]
 8005680:	1136      	asrs	r6, r6, #4
 8005682:	2300      	movs	r3, #0
 8005684:	2502      	movs	r5, #2
 8005686:	2e00      	cmp	r6, #0
 8005688:	d17f      	bne.n	800578a <_dtoa_r+0x47a>
 800568a:	2b00      	cmp	r3, #0
 800568c:	d1e1      	bne.n	8005652 <_dtoa_r+0x342>
 800568e:	9b0f      	ldr	r3, [sp, #60]	; 0x3c
 8005690:	2b00      	cmp	r3, #0
 8005692:	f000 8087 	beq.w	80057a4 <_dtoa_r+0x494>
 8005696:	e9dd 6700 	ldrd	r6, r7, [sp]
 800569a:	2200      	movs	r2, #0
 800569c:	4b93      	ldr	r3, [pc, #588]	; (80058ec <_dtoa_r+0x5dc>)
 800569e:	4630      	mov	r0, r6
 80056a0:	4639      	mov	r1, r7
 80056a2:	f7fb fa3b 	bl	8000b1c <__aeabi_dcmplt>
 80056a6:	2800      	cmp	r0, #0
 80056a8:	d07c      	beq.n	80057a4 <_dtoa_r+0x494>
 80056aa:	f1b9 0f00 	cmp.w	r9, #0
 80056ae:	d079      	beq.n	80057a4 <_dtoa_r+0x494>
 80056b0:	9b02      	ldr	r3, [sp, #8]
 80056b2:	2b00      	cmp	r3, #0
 80056b4:	dd35      	ble.n	8005722 <_dtoa_r+0x412>
 80056b6:	f10a 33ff 	add.w	r3, sl, #4294967295	; 0xffffffff
 80056ba:	9308      	str	r3, [sp, #32]
 80056bc:	4639      	mov	r1, r7
 80056be:	2200      	movs	r2, #0
 80056c0:	4b8b      	ldr	r3, [pc, #556]	; (80058f0 <_dtoa_r+0x5e0>)
 80056c2:	4630      	mov	r0, r6
 80056c4:	f7fa ffb8 	bl	8000638 <__aeabi_dmul>
 80056c8:	e9cd 0100 	strd	r0, r1, [sp]
 80056cc:	9f02      	ldr	r7, [sp, #8]
 80056ce:	3501      	adds	r5, #1
 80056d0:	4628      	mov	r0, r5
 80056d2:	f7fa ff47 	bl	8000564 <__aeabi_i2d>
 80056d6:	e9dd 2300 	ldrd	r2, r3, [sp]
 80056da:	f7fa ffad 	bl	8000638 <__aeabi_dmul>
 80056de:	2200      	movs	r2, #0
 80056e0:	4b84      	ldr	r3, [pc, #528]	; (80058f4 <_dtoa_r+0x5e4>)
 80056e2:	f7fa fdf3 	bl	80002cc <__adddf3>
 80056e6:	4605      	mov	r5, r0
 80056e8:	f1a1 7650 	sub.w	r6, r1, #54525952	; 0x3400000
 80056ec:	2f00      	cmp	r7, #0
 80056ee:	d15d      	bne.n	80057ac <_dtoa_r+0x49c>
 80056f0:	2200      	movs	r2, #0
 80056f2:	4b81      	ldr	r3, [pc, #516]	; (80058f8 <_dtoa_r+0x5e8>)
 80056f4:	e9dd 0100 	ldrd	r0, r1, [sp]
 80056f8:	f7fa fde6 	bl	80002c8 <__aeabi_dsub>
 80056fc:	462a      	mov	r2, r5
 80056fe:	4633      	mov	r3, r6
 8005700:	e9cd 0100 	strd	r0, r1, [sp]
 8005704:	f7fb fa28 	bl	8000b58 <__aeabi_dcmpgt>
 8005708:	2800      	cmp	r0, #0
 800570a:	f040 8288 	bne.w	8005c1e <_dtoa_r+0x90e>
 800570e:	462a      	mov	r2, r5
 8005710:	f106 4300 	add.w	r3, r6, #2147483648	; 0x80000000
 8005714:	e9dd 0100 	ldrd	r0, r1, [sp]
 8005718:	f7fb fa00 	bl	8000b1c <__aeabi_dcmplt>
 800571c:	2800      	cmp	r0, #0
 800571e:	f040 827c 	bne.w	8005c1a <_dtoa_r+0x90a>
 8005722:	e9dd 2310 	ldrd	r2, r3, [sp, #64]	; 0x40
 8005726:	e9cd 2300 	strd	r2, r3, [sp]
 800572a:	9b15      	ldr	r3, [sp, #84]	; 0x54
 800572c:	2b00      	cmp	r3, #0
 800572e:	f2c0 8150 	blt.w	80059d2 <_dtoa_r+0x6c2>
 8005732:	f1ba 0f0e 	cmp.w	sl, #14
 8005736:	f300 814c 	bgt.w	80059d2 <_dtoa_r+0x6c2>
 800573a:	4b6a      	ldr	r3, [pc, #424]	; (80058e4 <_dtoa_r+0x5d4>)
 800573c:	eb03 03ca 	add.w	r3, r3, sl, lsl #3
 8005740:	ed93 7b00 	vldr	d7, [r3]
 8005744:	9b0b      	ldr	r3, [sp, #44]	; 0x2c
 8005746:	2b00      	cmp	r3, #0
 8005748:	ed8d 7b02 	vstr	d7, [sp, #8]
 800574c:	f280 80d8 	bge.w	8005900 <_dtoa_r+0x5f0>
 8005750:	f1b9 0f00 	cmp.w	r9, #0
 8005754:	f300 80d4 	bgt.w	8005900 <_dtoa_r+0x5f0>
 8005758:	f040 825e 	bne.w	8005c18 <_dtoa_r+0x908>
 800575c:	2200      	movs	r2, #0
 800575e:	4b66      	ldr	r3, [pc, #408]	; (80058f8 <_dtoa_r+0x5e8>)
 8005760:	ec51 0b17 	vmov	r0, r1, d7
 8005764:	f7fa ff68 	bl	8000638 <__aeabi_dmul>
 8005768:	e9dd 2300 	ldrd	r2, r3, [sp]
 800576c:	f7fb f9ea 	bl	8000b44 <__aeabi_dcmpge>
 8005770:	464f      	mov	r7, r9
 8005772:	464e      	mov	r6, r9
 8005774:	2800      	cmp	r0, #0
 8005776:	f040 8234 	bne.w	8005be2 <_dtoa_r+0x8d2>
 800577a:	2331      	movs	r3, #49	; 0x31
 800577c:	f10b 0501 	add.w	r5, fp, #1
 8005780:	f88b 3000 	strb.w	r3, [fp]
 8005784:	f10a 0a01 	add.w	sl, sl, #1
 8005788:	e22f      	b.n	8005bea <_dtoa_r+0x8da>
 800578a:	07f2      	lsls	r2, r6, #31
 800578c:	d505      	bpl.n	800579a <_dtoa_r+0x48a>
 800578e:	e9d7 2300 	ldrd	r2, r3, [r7]
 8005792:	f7fa ff51 	bl	8000638 <__aeabi_dmul>
 8005796:	3501      	adds	r5, #1
 8005798:	2301      	movs	r3, #1
 800579a:	1076      	asrs	r6, r6, #1
 800579c:	3708      	adds	r7, #8
 800579e:	e772      	b.n	8005686 <_dtoa_r+0x376>
 80057a0:	2502      	movs	r5, #2
 80057a2:	e774      	b.n	800568e <_dtoa_r+0x37e>
 80057a4:	f8cd a020 	str.w	sl, [sp, #32]
 80057a8:	464f      	mov	r7, r9
 80057aa:	e791      	b.n	80056d0 <_dtoa_r+0x3c0>
 80057ac:	4b4d      	ldr	r3, [pc, #308]	; (80058e4 <_dtoa_r+0x5d4>)
 80057ae:	eb03 03c7 	add.w	r3, r3, r7, lsl #3
 80057b2:	e953 0102 	ldrd	r0, r1, [r3, #-8]
 80057b6:	9b0a      	ldr	r3, [sp, #40]	; 0x28
 80057b8:	2b00      	cmp	r3, #0
 80057ba:	d047      	beq.n	800584c <_dtoa_r+0x53c>
 80057bc:	4602      	mov	r2, r0
 80057be:	460b      	mov	r3, r1
 80057c0:	2000      	movs	r0, #0
 80057c2:	494e      	ldr	r1, [pc, #312]	; (80058fc <_dtoa_r+0x5ec>)
 80057c4:	f7fb f862 	bl	800088c <__aeabi_ddiv>
 80057c8:	462a      	mov	r2, r5
 80057ca:	4633      	mov	r3, r6
 80057cc:	f7fa fd7c 	bl	80002c8 <__aeabi_dsub>
 80057d0:	e9cd 010c 	strd	r0, r1, [sp, #48]	; 0x30
 80057d4:	465d      	mov	r5, fp
 80057d6:	e9dd 0100 	ldrd	r0, r1, [sp]
 80057da:	f7fb f9dd 	bl	8000b98 <__aeabi_d2iz>
 80057de:	4606      	mov	r6, r0
 80057e0:	f7fa fec0 	bl	8000564 <__aeabi_i2d>
 80057e4:	4602      	mov	r2, r0
 80057e6:	460b      	mov	r3, r1
 80057e8:	e9dd 0100 	ldrd	r0, r1, [sp]
 80057ec:	f7fa fd6c 	bl	80002c8 <__aeabi_dsub>
 80057f0:	3630      	adds	r6, #48	; 0x30
 80057f2:	f805 6b01 	strb.w	r6, [r5], #1
 80057f6:	e9dd 230c 	ldrd	r2, r3, [sp, #48]	; 0x30
 80057fa:	e9cd 0100 	strd	r0, r1, [sp]
 80057fe:	f7fb f98d 	bl	8000b1c <__aeabi_dcmplt>
 8005802:	2800      	cmp	r0, #0
 8005804:	d163      	bne.n	80058ce <_dtoa_r+0x5be>
 8005806:	e9dd 2300 	ldrd	r2, r3, [sp]
 800580a:	2000      	movs	r0, #0
 800580c:	4937      	ldr	r1, [pc, #220]	; (80058ec <_dtoa_r+0x5dc>)
 800580e:	f7fa fd5b 	bl	80002c8 <__aeabi_dsub>
 8005812:	e9dd 230c 	ldrd	r2, r3, [sp, #48]	; 0x30
 8005816:	f7fb f981 	bl	8000b1c <__aeabi_dcmplt>
 800581a:	2800      	cmp	r0, #0
 800581c:	f040 80b7 	bne.w	800598e <_dtoa_r+0x67e>
 8005820:	eba5 030b 	sub.w	r3, r5, fp
 8005824:	429f      	cmp	r7, r3
 8005826:	f77f af7c 	ble.w	8005722 <_dtoa_r+0x412>
 800582a:	2200      	movs	r2, #0
 800582c:	4b30      	ldr	r3, [pc, #192]	; (80058f0 <_dtoa_r+0x5e0>)
 800582e:	e9dd 010c 	ldrd	r0, r1, [sp, #48]	; 0x30
 8005832:	f7fa ff01 	bl	8000638 <__aeabi_dmul>
 8005836:	2200      	movs	r2, #0
 8005838:	e9cd 010c 	strd	r0, r1, [sp, #48]	; 0x30
 800583c:	4b2c      	ldr	r3, [pc, #176]	; (80058f0 <_dtoa_r+0x5e0>)
 800583e:	e9dd 0100 	ldrd	r0, r1, [sp]
 8005842:	f7fa fef9 	bl	8000638 <__aeabi_dmul>
 8005846:	e9cd 0100 	strd	r0, r1, [sp]
 800584a:	e7c4      	b.n	80057d6 <_dtoa_r+0x4c6>
 800584c:	462a      	mov	r2, r5
 800584e:	4633      	mov	r3, r6
 8005850:	f7fa fef2 	bl	8000638 <__aeabi_dmul>
 8005854:	e9cd 010c 	strd	r0, r1, [sp, #48]	; 0x30
 8005858:	eb0b 0507 	add.w	r5, fp, r7
 800585c:	465e      	mov	r6, fp
 800585e:	e9dd 0100 	ldrd	r0, r1, [sp]
 8005862:	f7fb f999 	bl	8000b98 <__aeabi_d2iz>
 8005866:	4607      	mov	r7, r0
 8005868:	f7fa fe7c 	bl	8000564 <__aeabi_i2d>
 800586c:	3730      	adds	r7, #48	; 0x30
 800586e:	4602      	mov	r2, r0
 8005870:	460b      	mov	r3, r1
 8005872:	e9dd 0100 	ldrd	r0, r1, [sp]
 8005876:	f7fa fd27 	bl	80002c8 <__aeabi_dsub>
 800587a:	f806 7b01 	strb.w	r7, [r6], #1
 800587e:	42ae      	cmp	r6, r5
 8005880:	e9cd 0100 	strd	r0, r1, [sp]
 8005884:	f04f 0200 	mov.w	r2, #0
 8005888:	d126      	bne.n	80058d8 <_dtoa_r+0x5c8>
 800588a:	4b1c      	ldr	r3, [pc, #112]	; (80058fc <_dtoa_r+0x5ec>)
 800588c:	e9dd 010c 	ldrd	r0, r1, [sp, #48]	; 0x30
 8005890:	f7fa fd1c 	bl	80002cc <__adddf3>
 8005894:	4602      	mov	r2, r0
 8005896:	460b      	mov	r3, r1
 8005898:	e9dd 0100 	ldrd	r0, r1, [sp]
 800589c:	f7fb f95c 	bl	8000b58 <__aeabi_dcmpgt>
 80058a0:	2800      	cmp	r0, #0
 80058a2:	d174      	bne.n	800598e <_dtoa_r+0x67e>
 80058a4:	e9dd 230c 	ldrd	r2, r3, [sp, #48]	; 0x30
 80058a8:	2000      	movs	r0, #0
 80058aa:	4914      	ldr	r1, [pc, #80]	; (80058fc <_dtoa_r+0x5ec>)
 80058ac:	f7fa fd0c 	bl	80002c8 <__aeabi_dsub>
 80058b0:	4602      	mov	r2, r0
 80058b2:	460b      	mov	r3, r1
 80058b4:	e9dd 0100 	ldrd	r0, r1, [sp]
 80058b8:	f7fb f930 	bl	8000b1c <__aeabi_dcmplt>
 80058bc:	2800      	cmp	r0, #0
 80058be:	f43f af30 	beq.w	8005722 <_dtoa_r+0x412>
 80058c2:	f815 3c01 	ldrb.w	r3, [r5, #-1]
 80058c6:	2b30      	cmp	r3, #48	; 0x30
 80058c8:	f105 32ff 	add.w	r2, r5, #4294967295	; 0xffffffff
 80058cc:	d002      	beq.n	80058d4 <_dtoa_r+0x5c4>
 80058ce:	f8dd a020 	ldr.w	sl, [sp, #32]
 80058d2:	e04a      	b.n	800596a <_dtoa_r+0x65a>
 80058d4:	4615      	mov	r5, r2
 80058d6:	e7f4      	b.n	80058c2 <_dtoa_r+0x5b2>
 80058d8:	4b05      	ldr	r3, [pc, #20]	; (80058f0 <_dtoa_r+0x5e0>)
 80058da:	f7fa fead 	bl	8000638 <__aeabi_dmul>
 80058de:	e9cd 0100 	strd	r0, r1, [sp]
 80058e2:	e7bc      	b.n	800585e <_dtoa_r+0x54e>
 80058e4:	08007848 	.word	0x08007848
 80058e8:	08007820 	.word	0x08007820
 80058ec:	3ff00000 	.word	0x3ff00000
 80058f0:	40240000 	.word	0x40240000
 80058f4:	401c0000 	.word	0x401c0000
 80058f8:	40140000 	.word	0x40140000
 80058fc:	3fe00000 	.word	0x3fe00000
 8005900:	e9dd 6700 	ldrd	r6, r7, [sp]
 8005904:	465d      	mov	r5, fp
 8005906:	e9dd 2302 	ldrd	r2, r3, [sp, #8]
 800590a:	4630      	mov	r0, r6
 800590c:	4639      	mov	r1, r7
 800590e:	f7fa ffbd 	bl	800088c <__aeabi_ddiv>
 8005912:	f7fb f941 	bl	8000b98 <__aeabi_d2iz>
 8005916:	4680      	mov	r8, r0
 8005918:	f7fa fe24 	bl	8000564 <__aeabi_i2d>
 800591c:	e9dd 2302 	ldrd	r2, r3, [sp, #8]
 8005920:	f7fa fe8a 	bl	8000638 <__aeabi_dmul>
 8005924:	4602      	mov	r2, r0
 8005926:	460b      	mov	r3, r1
 8005928:	4630      	mov	r0, r6
 800592a:	4639      	mov	r1, r7
 800592c:	f108 0630 	add.w	r6, r8, #48	; 0x30
 8005930:	f7fa fcca 	bl	80002c8 <__aeabi_dsub>
 8005934:	f805 6b01 	strb.w	r6, [r5], #1
 8005938:	eba5 060b 	sub.w	r6, r5, fp
 800593c:	45b1      	cmp	r9, r6
 800593e:	4602      	mov	r2, r0
 8005940:	460b      	mov	r3, r1
 8005942:	d139      	bne.n	80059b8 <_dtoa_r+0x6a8>
 8005944:	f7fa fcc2 	bl	80002cc <__adddf3>
 8005948:	e9dd 2302 	ldrd	r2, r3, [sp, #8]
 800594c:	4606      	mov	r6, r0
 800594e:	460f      	mov	r7, r1
 8005950:	f7fb f902 	bl	8000b58 <__aeabi_dcmpgt>
 8005954:	b9c8      	cbnz	r0, 800598a <_dtoa_r+0x67a>
 8005956:	e9dd 2302 	ldrd	r2, r3, [sp, #8]
 800595a:	4630      	mov	r0, r6
 800595c:	4639      	mov	r1, r7
 800595e:	f7fb f8d3 	bl	8000b08 <__aeabi_dcmpeq>
 8005962:	b110      	cbz	r0, 800596a <_dtoa_r+0x65a>
 8005964:	f018 0f01 	tst.w	r8, #1
 8005968:	d10f      	bne.n	800598a <_dtoa_r+0x67a>
 800596a:	9904      	ldr	r1, [sp, #16]
 800596c:	4620      	mov	r0, r4
 800596e:	f000 ff14 	bl	800679a <_Bfree>
 8005972:	2300      	movs	r3, #0
 8005974:	9a12      	ldr	r2, [sp, #72]	; 0x48
 8005976:	702b      	strb	r3, [r5, #0]
 8005978:	f10a 0301 	add.w	r3, sl, #1
 800597c:	6013      	str	r3, [r2, #0]
 800597e:	9b21      	ldr	r3, [sp, #132]	; 0x84
 8005980:	2b00      	cmp	r3, #0
 8005982:	f43f acff 	beq.w	8005384 <_dtoa_r+0x74>
 8005986:	601d      	str	r5, [r3, #0]
 8005988:	e4fc      	b.n	8005384 <_dtoa_r+0x74>
 800598a:	f8cd a020 	str.w	sl, [sp, #32]
 800598e:	f815 2c01 	ldrb.w	r2, [r5, #-1]
 8005992:	2a39      	cmp	r2, #57	; 0x39
 8005994:	f105 33ff 	add.w	r3, r5, #4294967295	; 0xffffffff
 8005998:	d108      	bne.n	80059ac <_dtoa_r+0x69c>
 800599a:	459b      	cmp	fp, r3
 800599c:	d10a      	bne.n	80059b4 <_dtoa_r+0x6a4>
 800599e:	9b08      	ldr	r3, [sp, #32]
 80059a0:	3301      	adds	r3, #1
 80059a2:	9308      	str	r3, [sp, #32]
 80059a4:	2330      	movs	r3, #48	; 0x30
 80059a6:	f88b 3000 	strb.w	r3, [fp]
 80059aa:	465b      	mov	r3, fp
 80059ac:	781a      	ldrb	r2, [r3, #0]
 80059ae:	3201      	adds	r2, #1
 80059b0:	701a      	strb	r2, [r3, #0]
 80059b2:	e78c      	b.n	80058ce <_dtoa_r+0x5be>
 80059b4:	461d      	mov	r5, r3
 80059b6:	e7ea      	b.n	800598e <_dtoa_r+0x67e>
 80059b8:	2200      	movs	r2, #0
 80059ba:	4b9b      	ldr	r3, [pc, #620]	; (8005c28 <_dtoa_r+0x918>)
 80059bc:	f7fa fe3c 	bl	8000638 <__aeabi_dmul>
 80059c0:	2200      	movs	r2, #0
 80059c2:	2300      	movs	r3, #0
 80059c4:	4606      	mov	r6, r0
 80059c6:	460f      	mov	r7, r1
 80059c8:	f7fb f89e 	bl	8000b08 <__aeabi_dcmpeq>
 80059cc:	2800      	cmp	r0, #0
 80059ce:	d09a      	beq.n	8005906 <_dtoa_r+0x5f6>
 80059d0:	e7cb      	b.n	800596a <_dtoa_r+0x65a>
 80059d2:	9a0a      	ldr	r2, [sp, #40]	; 0x28
 80059d4:	2a00      	cmp	r2, #0
 80059d6:	f000 808b 	beq.w	8005af0 <_dtoa_r+0x7e0>
 80059da:	9a06      	ldr	r2, [sp, #24]
 80059dc:	2a01      	cmp	r2, #1
 80059de:	dc6e      	bgt.n	8005abe <_dtoa_r+0x7ae>
 80059e0:	9a13      	ldr	r2, [sp, #76]	; 0x4c
 80059e2:	2a00      	cmp	r2, #0
 80059e4:	d067      	beq.n	8005ab6 <_dtoa_r+0x7a6>
 80059e6:	f203 4333 	addw	r3, r3, #1075	; 0x433
 80059ea:	9f07      	ldr	r7, [sp, #28]
 80059ec:	9d05      	ldr	r5, [sp, #20]
 80059ee:	9a05      	ldr	r2, [sp, #20]
 80059f0:	2101      	movs	r1, #1
 80059f2:	441a      	add	r2, r3
 80059f4:	4620      	mov	r0, r4
 80059f6:	9205      	str	r2, [sp, #20]
 80059f8:	4498      	add	r8, r3
 80059fa:	f000 ff60 	bl	80068be <__i2b>
 80059fe:	4606      	mov	r6, r0
 8005a00:	2d00      	cmp	r5, #0
 8005a02:	dd0c      	ble.n	8005a1e <_dtoa_r+0x70e>
 8005a04:	f1b8 0f00 	cmp.w	r8, #0
 8005a08:	dd09      	ble.n	8005a1e <_dtoa_r+0x70e>
 8005a0a:	4545      	cmp	r5, r8
 8005a0c:	9a05      	ldr	r2, [sp, #20]
 8005a0e:	462b      	mov	r3, r5
 8005a10:	bfa8      	it	ge
 8005a12:	4643      	movge	r3, r8
 8005a14:	1ad2      	subs	r2, r2, r3
 8005a16:	9205      	str	r2, [sp, #20]
 8005a18:	1aed      	subs	r5, r5, r3
 8005a1a:	eba8 0803 	sub.w	r8, r8, r3
 8005a1e:	9b07      	ldr	r3, [sp, #28]
 8005a20:	b1eb      	cbz	r3, 8005a5e <_dtoa_r+0x74e>
 8005a22:	9b0a      	ldr	r3, [sp, #40]	; 0x28
 8005a24:	2b00      	cmp	r3, #0
 8005a26:	d067      	beq.n	8005af8 <_dtoa_r+0x7e8>
 8005a28:	b18f      	cbz	r7, 8005a4e <_dtoa_r+0x73e>
 8005a2a:	4631      	mov	r1, r6
 8005a2c:	463a      	mov	r2, r7
 8005a2e:	4620      	mov	r0, r4
 8005a30:	f000 ffe4 	bl	80069fc <__pow5mult>
 8005a34:	9a04      	ldr	r2, [sp, #16]
 8005a36:	4601      	mov	r1, r0
 8005a38:	4606      	mov	r6, r0
 8005a3a:	4620      	mov	r0, r4
 8005a3c:	f000 ff48 	bl	80068d0 <__multiply>
 8005a40:	9904      	ldr	r1, [sp, #16]
 8005a42:	9008      	str	r0, [sp, #32]
 8005a44:	4620      	mov	r0, r4
 8005a46:	f000 fea8 	bl	800679a <_Bfree>
 8005a4a:	9b08      	ldr	r3, [sp, #32]
 8005a4c:	9304      	str	r3, [sp, #16]
 8005a4e:	9b07      	ldr	r3, [sp, #28]
 8005a50:	1bda      	subs	r2, r3, r7
 8005a52:	d004      	beq.n	8005a5e <_dtoa_r+0x74e>
 8005a54:	9904      	ldr	r1, [sp, #16]
 8005a56:	4620      	mov	r0, r4
 8005a58:	f000 ffd0 	bl	80069fc <__pow5mult>
 8005a5c:	9004      	str	r0, [sp, #16]
 8005a5e:	2101      	movs	r1, #1
 8005a60:	4620      	mov	r0, r4
 8005a62:	f000 ff2c 	bl	80068be <__i2b>
 8005a66:	9b0e      	ldr	r3, [sp, #56]	; 0x38
 8005a68:	4607      	mov	r7, r0
 8005a6a:	2b00      	cmp	r3, #0
 8005a6c:	f000 81cf 	beq.w	8005e0e <_dtoa_r+0xafe>
 8005a70:	461a      	mov	r2, r3
 8005a72:	4601      	mov	r1, r0
 8005a74:	4620      	mov	r0, r4
 8005a76:	f000 ffc1 	bl	80069fc <__pow5mult>
 8005a7a:	9b06      	ldr	r3, [sp, #24]
 8005a7c:	2b01      	cmp	r3, #1
 8005a7e:	4607      	mov	r7, r0
 8005a80:	dc40      	bgt.n	8005b04 <_dtoa_r+0x7f4>
 8005a82:	9b00      	ldr	r3, [sp, #0]
 8005a84:	2b00      	cmp	r3, #0
 8005a86:	d139      	bne.n	8005afc <_dtoa_r+0x7ec>
 8005a88:	9b01      	ldr	r3, [sp, #4]
 8005a8a:	f3c3 0313 	ubfx	r3, r3, #0, #20
 8005a8e:	2b00      	cmp	r3, #0
 8005a90:	d136      	bne.n	8005b00 <_dtoa_r+0x7f0>
 8005a92:	9b01      	ldr	r3, [sp, #4]
 8005a94:	f023 4300 	bic.w	r3, r3, #2147483648	; 0x80000000
 8005a98:	0d1b      	lsrs	r3, r3, #20
 8005a9a:	051b      	lsls	r3, r3, #20
 8005a9c:	b12b      	cbz	r3, 8005aaa <_dtoa_r+0x79a>
 8005a9e:	9b05      	ldr	r3, [sp, #20]
 8005aa0:	3301      	adds	r3, #1
 8005aa2:	9305      	str	r3, [sp, #20]
 8005aa4:	f108 0801 	add.w	r8, r8, #1
 8005aa8:	2301      	movs	r3, #1
 8005aaa:	9307      	str	r3, [sp, #28]
 8005aac:	9b0e      	ldr	r3, [sp, #56]	; 0x38
 8005aae:	2b00      	cmp	r3, #0
 8005ab0:	d12a      	bne.n	8005b08 <_dtoa_r+0x7f8>
 8005ab2:	2001      	movs	r0, #1
 8005ab4:	e030      	b.n	8005b18 <_dtoa_r+0x808>
 8005ab6:	9b14      	ldr	r3, [sp, #80]	; 0x50
 8005ab8:	f1c3 0336 	rsb	r3, r3, #54	; 0x36
 8005abc:	e795      	b.n	80059ea <_dtoa_r+0x6da>
 8005abe:	9b07      	ldr	r3, [sp, #28]
 8005ac0:	f109 37ff 	add.w	r7, r9, #4294967295	; 0xffffffff
 8005ac4:	42bb      	cmp	r3, r7
 8005ac6:	bfbf      	itttt	lt
 8005ac8:	9b07      	ldrlt	r3, [sp, #28]
 8005aca:	9707      	strlt	r7, [sp, #28]
 8005acc:	1afa      	sublt	r2, r7, r3
 8005ace:	9b0e      	ldrlt	r3, [sp, #56]	; 0x38
 8005ad0:	bfbb      	ittet	lt
 8005ad2:	189b      	addlt	r3, r3, r2
 8005ad4:	930e      	strlt	r3, [sp, #56]	; 0x38
 8005ad6:	1bdf      	subge	r7, r3, r7
 8005ad8:	2700      	movlt	r7, #0
 8005ada:	f1b9 0f00 	cmp.w	r9, #0
 8005ade:	bfb5      	itete	lt
 8005ae0:	9b05      	ldrlt	r3, [sp, #20]
 8005ae2:	9d05      	ldrge	r5, [sp, #20]
 8005ae4:	eba3 0509 	sublt.w	r5, r3, r9
 8005ae8:	464b      	movge	r3, r9
 8005aea:	bfb8      	it	lt
 8005aec:	2300      	movlt	r3, #0
 8005aee:	e77e      	b.n	80059ee <_dtoa_r+0x6de>
 8005af0:	9f07      	ldr	r7, [sp, #28]
 8005af2:	9d05      	ldr	r5, [sp, #20]
 8005af4:	9e0a      	ldr	r6, [sp, #40]	; 0x28
 8005af6:	e783      	b.n	8005a00 <_dtoa_r+0x6f0>
 8005af8:	9a07      	ldr	r2, [sp, #28]
 8005afa:	e7ab      	b.n	8005a54 <_dtoa_r+0x744>
 8005afc:	2300      	movs	r3, #0
 8005afe:	e7d4      	b.n	8005aaa <_dtoa_r+0x79a>
 8005b00:	9b00      	ldr	r3, [sp, #0]
 8005b02:	e7d2      	b.n	8005aaa <_dtoa_r+0x79a>
 8005b04:	2300      	movs	r3, #0
 8005b06:	9307      	str	r3, [sp, #28]
 8005b08:	693b      	ldr	r3, [r7, #16]
 8005b0a:	eb07 0383 	add.w	r3, r7, r3, lsl #2
 8005b0e:	6918      	ldr	r0, [r3, #16]
 8005b10:	f000 fe87 	bl	8006822 <__hi0bits>
 8005b14:	f1c0 0020 	rsb	r0, r0, #32
 8005b18:	4440      	add	r0, r8
 8005b1a:	f010 001f 	ands.w	r0, r0, #31
 8005b1e:	d047      	beq.n	8005bb0 <_dtoa_r+0x8a0>
 8005b20:	f1c0 0320 	rsb	r3, r0, #32
 8005b24:	2b04      	cmp	r3, #4
 8005b26:	dd3b      	ble.n	8005ba0 <_dtoa_r+0x890>
 8005b28:	9b05      	ldr	r3, [sp, #20]
 8005b2a:	f1c0 001c 	rsb	r0, r0, #28
 8005b2e:	4403      	add	r3, r0
 8005b30:	9305      	str	r3, [sp, #20]
 8005b32:	4405      	add	r5, r0
 8005b34:	4480      	add	r8, r0
 8005b36:	9b05      	ldr	r3, [sp, #20]
 8005b38:	2b00      	cmp	r3, #0
 8005b3a:	dd05      	ble.n	8005b48 <_dtoa_r+0x838>
 8005b3c:	461a      	mov	r2, r3
 8005b3e:	9904      	ldr	r1, [sp, #16]
 8005b40:	4620      	mov	r0, r4
 8005b42:	f000 ff9b 	bl	8006a7c <__lshift>
 8005b46:	9004      	str	r0, [sp, #16]
 8005b48:	f1b8 0f00 	cmp.w	r8, #0
 8005b4c:	dd05      	ble.n	8005b5a <_dtoa_r+0x84a>
 8005b4e:	4639      	mov	r1, r7
 8005b50:	4642      	mov	r2, r8
 8005b52:	4620      	mov	r0, r4
 8005b54:	f000 ff92 	bl	8006a7c <__lshift>
 8005b58:	4607      	mov	r7, r0
 8005b5a:	9b0f      	ldr	r3, [sp, #60]	; 0x3c
 8005b5c:	b353      	cbz	r3, 8005bb4 <_dtoa_r+0x8a4>
 8005b5e:	4639      	mov	r1, r7
 8005b60:	9804      	ldr	r0, [sp, #16]
 8005b62:	f000 ffdf 	bl	8006b24 <__mcmp>
 8005b66:	2800      	cmp	r0, #0
 8005b68:	da24      	bge.n	8005bb4 <_dtoa_r+0x8a4>
 8005b6a:	2300      	movs	r3, #0
 8005b6c:	220a      	movs	r2, #10
 8005b6e:	9904      	ldr	r1, [sp, #16]
 8005b70:	4620      	mov	r0, r4
 8005b72:	f000 fe1b 	bl	80067ac <__multadd>
 8005b76:	9b0a      	ldr	r3, [sp, #40]	; 0x28
 8005b78:	9004      	str	r0, [sp, #16]
 8005b7a:	f10a 3aff 	add.w	sl, sl, #4294967295	; 0xffffffff
 8005b7e:	2b00      	cmp	r3, #0
 8005b80:	f000 814c 	beq.w	8005e1c <_dtoa_r+0xb0c>
 8005b84:	2300      	movs	r3, #0
 8005b86:	4631      	mov	r1, r6
 8005b88:	220a      	movs	r2, #10
 8005b8a:	4620      	mov	r0, r4
 8005b8c:	f000 fe0e 	bl	80067ac <__multadd>
 8005b90:	9b02      	ldr	r3, [sp, #8]
 8005b92:	2b00      	cmp	r3, #0
 8005b94:	4606      	mov	r6, r0
 8005b96:	dc4f      	bgt.n	8005c38 <_dtoa_r+0x928>
 8005b98:	9b06      	ldr	r3, [sp, #24]
 8005b9a:	2b02      	cmp	r3, #2
 8005b9c:	dd4c      	ble.n	8005c38 <_dtoa_r+0x928>
 8005b9e:	e011      	b.n	8005bc4 <_dtoa_r+0x8b4>
 8005ba0:	d0c9      	beq.n	8005b36 <_dtoa_r+0x826>
 8005ba2:	9a05      	ldr	r2, [sp, #20]
 8005ba4:	331c      	adds	r3, #28
 8005ba6:	441a      	add	r2, r3
 8005ba8:	9205      	str	r2, [sp, #20]
 8005baa:	441d      	add	r5, r3
 8005bac:	4498      	add	r8, r3
 8005bae:	e7c2      	b.n	8005b36 <_dtoa_r+0x826>
 8005bb0:	4603      	mov	r3, r0
 8005bb2:	e7f6      	b.n	8005ba2 <_dtoa_r+0x892>
 8005bb4:	f1b9 0f00 	cmp.w	r9, #0
 8005bb8:	dc38      	bgt.n	8005c2c <_dtoa_r+0x91c>
 8005bba:	9b06      	ldr	r3, [sp, #24]
 8005bbc:	2b02      	cmp	r3, #2
 8005bbe:	dd35      	ble.n	8005c2c <_dtoa_r+0x91c>
 8005bc0:	f8cd 9008 	str.w	r9, [sp, #8]
 8005bc4:	9b02      	ldr	r3, [sp, #8]
 8005bc6:	b963      	cbnz	r3, 8005be2 <_dtoa_r+0x8d2>
 8005bc8:	4639      	mov	r1, r7
 8005bca:	2205      	movs	r2, #5
 8005bcc:	4620      	mov	r0, r4
 8005bce:	f000 fded 	bl	80067ac <__multadd>
 8005bd2:	4601      	mov	r1, r0
 8005bd4:	4607      	mov	r7, r0
 8005bd6:	9804      	ldr	r0, [sp, #16]
 8005bd8:	f000 ffa4 	bl	8006b24 <__mcmp>
 8005bdc:	2800      	cmp	r0, #0
 8005bde:	f73f adcc 	bgt.w	800577a <_dtoa_r+0x46a>
 8005be2:	9b0b      	ldr	r3, [sp, #44]	; 0x2c
 8005be4:	465d      	mov	r5, fp
 8005be6:	ea6f 0a03 	mvn.w	sl, r3
 8005bea:	f04f 0900 	mov.w	r9, #0
 8005bee:	4639      	mov	r1, r7
 8005bf0:	4620      	mov	r0, r4
 8005bf2:	f000 fdd2 	bl	800679a <_Bfree>
 8005bf6:	2e00      	cmp	r6, #0
 8005bf8:	f43f aeb7 	beq.w	800596a <_dtoa_r+0x65a>
 8005bfc:	f1b9 0f00 	cmp.w	r9, #0
 8005c00:	d005      	beq.n	8005c0e <_dtoa_r+0x8fe>
 8005c02:	45b1      	cmp	r9, r6
 8005c04:	d003      	beq.n	8005c0e <_dtoa_r+0x8fe>
 8005c06:	4649      	mov	r1, r9
 8005c08:	4620      	mov	r0, r4
 8005c0a:	f000 fdc6 	bl	800679a <_Bfree>
 8005c0e:	4631      	mov	r1, r6
 8005c10:	4620      	mov	r0, r4
 8005c12:	f000 fdc2 	bl	800679a <_Bfree>
 8005c16:	e6a8      	b.n	800596a <_dtoa_r+0x65a>
 8005c18:	2700      	movs	r7, #0
 8005c1a:	463e      	mov	r6, r7
 8005c1c:	e7e1      	b.n	8005be2 <_dtoa_r+0x8d2>
 8005c1e:	f8dd a020 	ldr.w	sl, [sp, #32]
 8005c22:	463e      	mov	r6, r7
 8005c24:	e5a9      	b.n	800577a <_dtoa_r+0x46a>
 8005c26:	bf00      	nop
 8005c28:	40240000 	.word	0x40240000
 8005c2c:	9b0a      	ldr	r3, [sp, #40]	; 0x28
 8005c2e:	f8cd 9008 	str.w	r9, [sp, #8]
 8005c32:	2b00      	cmp	r3, #0
 8005c34:	f000 80f9 	beq.w	8005e2a <_dtoa_r+0xb1a>
 8005c38:	2d00      	cmp	r5, #0
 8005c3a:	dd05      	ble.n	8005c48 <_dtoa_r+0x938>
 8005c3c:	4631      	mov	r1, r6
 8005c3e:	462a      	mov	r2, r5
 8005c40:	4620      	mov	r0, r4
 8005c42:	f000 ff1b 	bl	8006a7c <__lshift>
 8005c46:	4606      	mov	r6, r0
 8005c48:	9b07      	ldr	r3, [sp, #28]
 8005c4a:	2b00      	cmp	r3, #0
 8005c4c:	d04c      	beq.n	8005ce8 <_dtoa_r+0x9d8>
 8005c4e:	6871      	ldr	r1, [r6, #4]
 8005c50:	4620      	mov	r0, r4
 8005c52:	f000 fd7d 	bl	8006750 <_Balloc>
 8005c56:	6932      	ldr	r2, [r6, #16]
 8005c58:	3202      	adds	r2, #2
 8005c5a:	4605      	mov	r5, r0
 8005c5c:	0092      	lsls	r2, r2, #2
 8005c5e:	f106 010c 	add.w	r1, r6, #12
 8005c62:	300c      	adds	r0, #12
 8005c64:	f000 fd50 	bl	8006708 <memcpy>
 8005c68:	2201      	movs	r2, #1
 8005c6a:	4629      	mov	r1, r5
 8005c6c:	4620      	mov	r0, r4
 8005c6e:	f000 ff05 	bl	8006a7c <__lshift>
 8005c72:	9b00      	ldr	r3, [sp, #0]
 8005c74:	f8cd b014 	str.w	fp, [sp, #20]
 8005c78:	f003 0301 	and.w	r3, r3, #1
 8005c7c:	46b1      	mov	r9, r6
 8005c7e:	9307      	str	r3, [sp, #28]
 8005c80:	4606      	mov	r6, r0
 8005c82:	4639      	mov	r1, r7
 8005c84:	9804      	ldr	r0, [sp, #16]
 8005c86:	f7ff fab5 	bl	80051f4 <quorem>
 8005c8a:	4649      	mov	r1, r9
 8005c8c:	4605      	mov	r5, r0
 8005c8e:	f100 0830 	add.w	r8, r0, #48	; 0x30
 8005c92:	9804      	ldr	r0, [sp, #16]
 8005c94:	f000 ff46 	bl	8006b24 <__mcmp>
 8005c98:	4632      	mov	r2, r6
 8005c9a:	9000      	str	r0, [sp, #0]
 8005c9c:	4639      	mov	r1, r7
 8005c9e:	4620      	mov	r0, r4
 8005ca0:	f000 ff5a 	bl	8006b58 <__mdiff>
 8005ca4:	68c3      	ldr	r3, [r0, #12]
 8005ca6:	4602      	mov	r2, r0
 8005ca8:	bb03      	cbnz	r3, 8005cec <_dtoa_r+0x9dc>
 8005caa:	4601      	mov	r1, r0
 8005cac:	9008      	str	r0, [sp, #32]
 8005cae:	9804      	ldr	r0, [sp, #16]
 8005cb0:	f000 ff38 	bl	8006b24 <__mcmp>
 8005cb4:	9a08      	ldr	r2, [sp, #32]
 8005cb6:	4603      	mov	r3, r0
 8005cb8:	4611      	mov	r1, r2
 8005cba:	4620      	mov	r0, r4
 8005cbc:	9308      	str	r3, [sp, #32]
 8005cbe:	f000 fd6c 	bl	800679a <_Bfree>
 8005cc2:	9b08      	ldr	r3, [sp, #32]
 8005cc4:	b9a3      	cbnz	r3, 8005cf0 <_dtoa_r+0x9e0>
 8005cc6:	9a06      	ldr	r2, [sp, #24]
 8005cc8:	b992      	cbnz	r2, 8005cf0 <_dtoa_r+0x9e0>
 8005cca:	9a07      	ldr	r2, [sp, #28]
 8005ccc:	b982      	cbnz	r2, 8005cf0 <_dtoa_r+0x9e0>
 8005cce:	f1b8 0f39 	cmp.w	r8, #57	; 0x39
 8005cd2:	d029      	beq.n	8005d28 <_dtoa_r+0xa18>
 8005cd4:	9b00      	ldr	r3, [sp, #0]
 8005cd6:	2b00      	cmp	r3, #0
 8005cd8:	dd01      	ble.n	8005cde <_dtoa_r+0x9ce>
 8005cda:	f105 0831 	add.w	r8, r5, #49	; 0x31
 8005cde:	9b05      	ldr	r3, [sp, #20]
 8005ce0:	1c5d      	adds	r5, r3, #1
 8005ce2:	f883 8000 	strb.w	r8, [r3]
 8005ce6:	e782      	b.n	8005bee <_dtoa_r+0x8de>
 8005ce8:	4630      	mov	r0, r6
 8005cea:	e7c2      	b.n	8005c72 <_dtoa_r+0x962>
 8005cec:	2301      	movs	r3, #1
 8005cee:	e7e3      	b.n	8005cb8 <_dtoa_r+0x9a8>
 8005cf0:	9a00      	ldr	r2, [sp, #0]
 8005cf2:	2a00      	cmp	r2, #0
 8005cf4:	db04      	blt.n	8005d00 <_dtoa_r+0x9f0>
 8005cf6:	d125      	bne.n	8005d44 <_dtoa_r+0xa34>
 8005cf8:	9a06      	ldr	r2, [sp, #24]
 8005cfa:	bb1a      	cbnz	r2, 8005d44 <_dtoa_r+0xa34>
 8005cfc:	9a07      	ldr	r2, [sp, #28]
 8005cfe:	bb0a      	cbnz	r2, 8005d44 <_dtoa_r+0xa34>
 8005d00:	2b00      	cmp	r3, #0
 8005d02:	ddec      	ble.n	8005cde <_dtoa_r+0x9ce>
 8005d04:	2201      	movs	r2, #1
 8005d06:	9904      	ldr	r1, [sp, #16]
 8005d08:	4620      	mov	r0, r4
 8005d0a:	f000 feb7 	bl	8006a7c <__lshift>
 8005d0e:	4639      	mov	r1, r7
 8005d10:	9004      	str	r0, [sp, #16]
 8005d12:	f000 ff07 	bl	8006b24 <__mcmp>
 8005d16:	2800      	cmp	r0, #0
 8005d18:	dc03      	bgt.n	8005d22 <_dtoa_r+0xa12>
 8005d1a:	d1e0      	bne.n	8005cde <_dtoa_r+0x9ce>
 8005d1c:	f018 0f01 	tst.w	r8, #1
 8005d20:	d0dd      	beq.n	8005cde <_dtoa_r+0x9ce>
 8005d22:	f1b8 0f39 	cmp.w	r8, #57	; 0x39
 8005d26:	d1d8      	bne.n	8005cda <_dtoa_r+0x9ca>
 8005d28:	9b05      	ldr	r3, [sp, #20]
 8005d2a:	9a05      	ldr	r2, [sp, #20]
 8005d2c:	1c5d      	adds	r5, r3, #1
 8005d2e:	2339      	movs	r3, #57	; 0x39
 8005d30:	7013      	strb	r3, [r2, #0]
 8005d32:	f815 3c01 	ldrb.w	r3, [r5, #-1]
 8005d36:	2b39      	cmp	r3, #57	; 0x39
 8005d38:	f105 32ff 	add.w	r2, r5, #4294967295	; 0xffffffff
 8005d3c:	d04f      	beq.n	8005dde <_dtoa_r+0xace>
 8005d3e:	3301      	adds	r3, #1
 8005d40:	7013      	strb	r3, [r2, #0]
 8005d42:	e754      	b.n	8005bee <_dtoa_r+0x8de>
 8005d44:	9a05      	ldr	r2, [sp, #20]
 8005d46:	2b00      	cmp	r3, #0
 8005d48:	f102 0501 	add.w	r5, r2, #1
 8005d4c:	dd06      	ble.n	8005d5c <_dtoa_r+0xa4c>
 8005d4e:	f1b8 0f39 	cmp.w	r8, #57	; 0x39
 8005d52:	d0e9      	beq.n	8005d28 <_dtoa_r+0xa18>
 8005d54:	f108 0801 	add.w	r8, r8, #1
 8005d58:	9b05      	ldr	r3, [sp, #20]
 8005d5a:	e7c2      	b.n	8005ce2 <_dtoa_r+0x9d2>
 8005d5c:	9a02      	ldr	r2, [sp, #8]
 8005d5e:	f805 8c01 	strb.w	r8, [r5, #-1]
 8005d62:	eba5 030b 	sub.w	r3, r5, fp
 8005d66:	4293      	cmp	r3, r2
 8005d68:	d021      	beq.n	8005dae <_dtoa_r+0xa9e>
 8005d6a:	2300      	movs	r3, #0
 8005d6c:	220a      	movs	r2, #10
 8005d6e:	9904      	ldr	r1, [sp, #16]
 8005d70:	4620      	mov	r0, r4
 8005d72:	f000 fd1b 	bl	80067ac <__multadd>
 8005d76:	45b1      	cmp	r9, r6
 8005d78:	9004      	str	r0, [sp, #16]
 8005d7a:	f04f 0300 	mov.w	r3, #0
 8005d7e:	f04f 020a 	mov.w	r2, #10
 8005d82:	4649      	mov	r1, r9
 8005d84:	4620      	mov	r0, r4
 8005d86:	d105      	bne.n	8005d94 <_dtoa_r+0xa84>
 8005d88:	f000 fd10 	bl	80067ac <__multadd>
 8005d8c:	4681      	mov	r9, r0
 8005d8e:	4606      	mov	r6, r0
 8005d90:	9505      	str	r5, [sp, #20]
 8005d92:	e776      	b.n	8005c82 <_dtoa_r+0x972>
 8005d94:	f000 fd0a 	bl	80067ac <__multadd>
 8005d98:	4631      	mov	r1, r6
 8005d9a:	4681      	mov	r9, r0
 8005d9c:	2300      	movs	r3, #0
 8005d9e:	220a      	movs	r2, #10
 8005da0:	4620      	mov	r0, r4
 8005da2:	f000 fd03 	bl	80067ac <__multadd>
 8005da6:	4606      	mov	r6, r0
 8005da8:	e7f2      	b.n	8005d90 <_dtoa_r+0xa80>
 8005daa:	f04f 0900 	mov.w	r9, #0
 8005dae:	2201      	movs	r2, #1
 8005db0:	9904      	ldr	r1, [sp, #16]
 8005db2:	4620      	mov	r0, r4
 8005db4:	f000 fe62 	bl	8006a7c <__lshift>
 8005db8:	4639      	mov	r1, r7
 8005dba:	9004      	str	r0, [sp, #16]
 8005dbc:	f000 feb2 	bl	8006b24 <__mcmp>
 8005dc0:	2800      	cmp	r0, #0
 8005dc2:	dcb6      	bgt.n	8005d32 <_dtoa_r+0xa22>
 8005dc4:	d102      	bne.n	8005dcc <_dtoa_r+0xabc>
 8005dc6:	f018 0f01 	tst.w	r8, #1
 8005dca:	d1b2      	bne.n	8005d32 <_dtoa_r+0xa22>
 8005dcc:	f815 3c01 	ldrb.w	r3, [r5, #-1]
 8005dd0:	2b30      	cmp	r3, #48	; 0x30
 8005dd2:	f105 32ff 	add.w	r2, r5, #4294967295	; 0xffffffff
 8005dd6:	f47f af0a 	bne.w	8005bee <_dtoa_r+0x8de>
 8005dda:	4615      	mov	r5, r2
 8005ddc:	e7f6      	b.n	8005dcc <_dtoa_r+0xabc>
 8005dde:	4593      	cmp	fp, r2
 8005de0:	d105      	bne.n	8005dee <_dtoa_r+0xade>
 8005de2:	2331      	movs	r3, #49	; 0x31
 8005de4:	f10a 0a01 	add.w	sl, sl, #1
 8005de8:	f88b 3000 	strb.w	r3, [fp]
 8005dec:	e6ff      	b.n	8005bee <_dtoa_r+0x8de>
 8005dee:	4615      	mov	r5, r2
 8005df0:	e79f      	b.n	8005d32 <_dtoa_r+0xa22>
 8005df2:	f8df b064 	ldr.w	fp, [pc, #100]	; 8005e58 <_dtoa_r+0xb48>
 8005df6:	f7ff bac5 	b.w	8005384 <_dtoa_r+0x74>
 8005dfa:	9b21      	ldr	r3, [sp, #132]	; 0x84
 8005dfc:	f8df b05c 	ldr.w	fp, [pc, #92]	; 8005e5c <_dtoa_r+0xb4c>
 8005e00:	2b00      	cmp	r3, #0
 8005e02:	f43f aabf 	beq.w	8005384 <_dtoa_r+0x74>
 8005e06:	f10b 0308 	add.w	r3, fp, #8
 8005e0a:	f7ff bab9 	b.w	8005380 <_dtoa_r+0x70>
 8005e0e:	9b06      	ldr	r3, [sp, #24]
 8005e10:	2b01      	cmp	r3, #1
 8005e12:	f77f ae36 	ble.w	8005a82 <_dtoa_r+0x772>
 8005e16:	9b0e      	ldr	r3, [sp, #56]	; 0x38
 8005e18:	9307      	str	r3, [sp, #28]
 8005e1a:	e64a      	b.n	8005ab2 <_dtoa_r+0x7a2>
 8005e1c:	9b02      	ldr	r3, [sp, #8]
 8005e1e:	2b00      	cmp	r3, #0
 8005e20:	dc03      	bgt.n	8005e2a <_dtoa_r+0xb1a>
 8005e22:	9b06      	ldr	r3, [sp, #24]
 8005e24:	2b02      	cmp	r3, #2
 8005e26:	f73f aecd 	bgt.w	8005bc4 <_dtoa_r+0x8b4>
 8005e2a:	465d      	mov	r5, fp
 8005e2c:	4639      	mov	r1, r7
 8005e2e:	9804      	ldr	r0, [sp, #16]
 8005e30:	f7ff f9e0 	bl	80051f4 <quorem>
 8005e34:	f100 0830 	add.w	r8, r0, #48	; 0x30
 8005e38:	f805 8b01 	strb.w	r8, [r5], #1
 8005e3c:	9a02      	ldr	r2, [sp, #8]
 8005e3e:	eba5 030b 	sub.w	r3, r5, fp
 8005e42:	429a      	cmp	r2, r3
 8005e44:	ddb1      	ble.n	8005daa <_dtoa_r+0xa9a>
 8005e46:	2300      	movs	r3, #0
 8005e48:	220a      	movs	r2, #10
 8005e4a:	9904      	ldr	r1, [sp, #16]
 8005e4c:	4620      	mov	r0, r4
 8005e4e:	f000 fcad 	bl	80067ac <__multadd>
 8005e52:	9004      	str	r0, [sp, #16]
 8005e54:	e7ea      	b.n	8005e2c <_dtoa_r+0xb1c>
 8005e56:	bf00      	nop
 8005e58:	080077e0 	.word	0x080077e0
 8005e5c:	08007802 	.word	0x08007802

08005e60 <__sflush_r>:
 8005e60:	f9b1 200c 	ldrsh.w	r2, [r1, #12]
 8005e64:	b293      	uxth	r3, r2
 8005e66:	e92d 41f0 	stmdb	sp!, {r4, r5, r6, r7, r8, lr}
 8005e6a:	4605      	mov	r5, r0
 8005e6c:	0718      	lsls	r0, r3, #28
 8005e6e:	460c      	mov	r4, r1
 8005e70:	d45f      	bmi.n	8005f32 <__sflush_r+0xd2>
 8005e72:	684b      	ldr	r3, [r1, #4]
 8005e74:	f442 6200 	orr.w	r2, r2, #2048	; 0x800
 8005e78:	2b00      	cmp	r3, #0
 8005e7a:	818a      	strh	r2, [r1, #12]
 8005e7c:	dc05      	bgt.n	8005e8a <__sflush_r+0x2a>
 8005e7e:	6bcb      	ldr	r3, [r1, #60]	; 0x3c
 8005e80:	2b00      	cmp	r3, #0
 8005e82:	dc02      	bgt.n	8005e8a <__sflush_r+0x2a>
 8005e84:	2000      	movs	r0, #0
 8005e86:	e8bd 81f0 	ldmia.w	sp!, {r4, r5, r6, r7, r8, pc}
 8005e8a:	6aa6      	ldr	r6, [r4, #40]	; 0x28
 8005e8c:	2e00      	cmp	r6, #0
 8005e8e:	d0f9      	beq.n	8005e84 <__sflush_r+0x24>
 8005e90:	2300      	movs	r3, #0
 8005e92:	f412 5280 	ands.w	r2, r2, #4096	; 0x1000
 8005e96:	682f      	ldr	r7, [r5, #0]
 8005e98:	69e1      	ldr	r1, [r4, #28]
 8005e9a:	602b      	str	r3, [r5, #0]
 8005e9c:	d036      	beq.n	8005f0c <__sflush_r+0xac>
 8005e9e:	6d20      	ldr	r0, [r4, #80]	; 0x50
 8005ea0:	89a3      	ldrh	r3, [r4, #12]
 8005ea2:	075a      	lsls	r2, r3, #29
 8005ea4:	d505      	bpl.n	8005eb2 <__sflush_r+0x52>
 8005ea6:	6863      	ldr	r3, [r4, #4]
 8005ea8:	1ac0      	subs	r0, r0, r3
 8005eaa:	6b23      	ldr	r3, [r4, #48]	; 0x30
 8005eac:	b10b      	cbz	r3, 8005eb2 <__sflush_r+0x52>
 8005eae:	6be3      	ldr	r3, [r4, #60]	; 0x3c
 8005eb0:	1ac0      	subs	r0, r0, r3
 8005eb2:	2300      	movs	r3, #0
 8005eb4:	4602      	mov	r2, r0
 8005eb6:	6aa6      	ldr	r6, [r4, #40]	; 0x28
 8005eb8:	69e1      	ldr	r1, [r4, #28]
 8005eba:	4628      	mov	r0, r5
 8005ebc:	47b0      	blx	r6
 8005ebe:	1c43      	adds	r3, r0, #1
 8005ec0:	89a3      	ldrh	r3, [r4, #12]
 8005ec2:	d106      	bne.n	8005ed2 <__sflush_r+0x72>
 8005ec4:	6829      	ldr	r1, [r5, #0]
 8005ec6:	291d      	cmp	r1, #29
 8005ec8:	d84c      	bhi.n	8005f64 <__sflush_r+0x104>
 8005eca:	4a2b      	ldr	r2, [pc, #172]	; (8005f78 <__sflush_r+0x118>)
 8005ecc:	40ca      	lsrs	r2, r1
 8005ece:	07d6      	lsls	r6, r2, #31
 8005ed0:	d548      	bpl.n	8005f64 <__sflush_r+0x104>
 8005ed2:	f423 6300 	bic.w	r3, r3, #2048	; 0x800
 8005ed6:	b21b      	sxth	r3, r3
 8005ed8:	2200      	movs	r2, #0
 8005eda:	6062      	str	r2, [r4, #4]
 8005edc:	04d9      	lsls	r1, r3, #19
 8005ede:	6922      	ldr	r2, [r4, #16]
 8005ee0:	81a3      	strh	r3, [r4, #12]
 8005ee2:	6022      	str	r2, [r4, #0]
 8005ee4:	d504      	bpl.n	8005ef0 <__sflush_r+0x90>
 8005ee6:	1c42      	adds	r2, r0, #1
 8005ee8:	d101      	bne.n	8005eee <__sflush_r+0x8e>
 8005eea:	682b      	ldr	r3, [r5, #0]
 8005eec:	b903      	cbnz	r3, 8005ef0 <__sflush_r+0x90>
 8005eee:	6520      	str	r0, [r4, #80]	; 0x50
 8005ef0:	6b21      	ldr	r1, [r4, #48]	; 0x30
 8005ef2:	602f      	str	r7, [r5, #0]
 8005ef4:	2900      	cmp	r1, #0
 8005ef6:	d0c5      	beq.n	8005e84 <__sflush_r+0x24>
 8005ef8:	f104 0340 	add.w	r3, r4, #64	; 0x40
 8005efc:	4299      	cmp	r1, r3
 8005efe:	d002      	beq.n	8005f06 <__sflush_r+0xa6>
 8005f00:	4628      	mov	r0, r5
 8005f02:	f000 f937 	bl	8006174 <_free_r>
 8005f06:	2000      	movs	r0, #0
 8005f08:	6320      	str	r0, [r4, #48]	; 0x30
 8005f0a:	e7bc      	b.n	8005e86 <__sflush_r+0x26>
 8005f0c:	2301      	movs	r3, #1
 8005f0e:	4628      	mov	r0, r5
 8005f10:	47b0      	blx	r6
 8005f12:	1c41      	adds	r1, r0, #1
 8005f14:	d1c4      	bne.n	8005ea0 <__sflush_r+0x40>
 8005f16:	682b      	ldr	r3, [r5, #0]
 8005f18:	2b00      	cmp	r3, #0
 8005f1a:	d0c1      	beq.n	8005ea0 <__sflush_r+0x40>
 8005f1c:	2b1d      	cmp	r3, #29
 8005f1e:	d001      	beq.n	8005f24 <__sflush_r+0xc4>
 8005f20:	2b16      	cmp	r3, #22
 8005f22:	d101      	bne.n	8005f28 <__sflush_r+0xc8>
 8005f24:	602f      	str	r7, [r5, #0]
 8005f26:	e7ad      	b.n	8005e84 <__sflush_r+0x24>
 8005f28:	89a3      	ldrh	r3, [r4, #12]
 8005f2a:	f043 0340 	orr.w	r3, r3, #64	; 0x40
 8005f2e:	81a3      	strh	r3, [r4, #12]
 8005f30:	e7a9      	b.n	8005e86 <__sflush_r+0x26>
 8005f32:	690f      	ldr	r7, [r1, #16]
 8005f34:	2f00      	cmp	r7, #0
 8005f36:	d0a5      	beq.n	8005e84 <__sflush_r+0x24>
 8005f38:	079b      	lsls	r3, r3, #30
 8005f3a:	680e      	ldr	r6, [r1, #0]
 8005f3c:	bf08      	it	eq
 8005f3e:	694b      	ldreq	r3, [r1, #20]
 8005f40:	600f      	str	r7, [r1, #0]
 8005f42:	bf18      	it	ne
 8005f44:	2300      	movne	r3, #0
 8005f46:	eba6 0807 	sub.w	r8, r6, r7
 8005f4a:	608b      	str	r3, [r1, #8]
 8005f4c:	f1b8 0f00 	cmp.w	r8, #0
 8005f50:	dd98      	ble.n	8005e84 <__sflush_r+0x24>
 8005f52:	4643      	mov	r3, r8
 8005f54:	463a      	mov	r2, r7
 8005f56:	69e1      	ldr	r1, [r4, #28]
 8005f58:	6a66      	ldr	r6, [r4, #36]	; 0x24
 8005f5a:	4628      	mov	r0, r5
 8005f5c:	47b0      	blx	r6
 8005f5e:	2800      	cmp	r0, #0
 8005f60:	dc06      	bgt.n	8005f70 <__sflush_r+0x110>
 8005f62:	89a3      	ldrh	r3, [r4, #12]
 8005f64:	f043 0340 	orr.w	r3, r3, #64	; 0x40
 8005f68:	81a3      	strh	r3, [r4, #12]
 8005f6a:	f04f 30ff 	mov.w	r0, #4294967295	; 0xffffffff
 8005f6e:	e78a      	b.n	8005e86 <__sflush_r+0x26>
 8005f70:	4407      	add	r7, r0
 8005f72:	eba8 0800 	sub.w	r8, r8, r0
 8005f76:	e7e9      	b.n	8005f4c <__sflush_r+0xec>
 8005f78:	20400001 	.word	0x20400001

08005f7c <_fflush_r>:
 8005f7c:	b538      	push	{r3, r4, r5, lr}
 8005f7e:	460c      	mov	r4, r1
 8005f80:	4605      	mov	r5, r0
 8005f82:	b118      	cbz	r0, 8005f8c <_fflush_r+0x10>
 8005f84:	6b83      	ldr	r3, [r0, #56]	; 0x38
 8005f86:	b90b      	cbnz	r3, 8005f8c <_fflush_r+0x10>
 8005f88:	f000 f864 	bl	8006054 <__sinit>
 8005f8c:	f9b4 000c 	ldrsh.w	r0, [r4, #12]
 8005f90:	b1b8      	cbz	r0, 8005fc2 <_fflush_r+0x46>
 8005f92:	6e63      	ldr	r3, [r4, #100]	; 0x64
 8005f94:	07db      	lsls	r3, r3, #31
 8005f96:	d404      	bmi.n	8005fa2 <_fflush_r+0x26>
 8005f98:	0581      	lsls	r1, r0, #22
 8005f9a:	d402      	bmi.n	8005fa2 <_fflush_r+0x26>
 8005f9c:	6da0      	ldr	r0, [r4, #88]	; 0x58
 8005f9e:	f000 fb33 	bl	8006608 <__retarget_lock_acquire_recursive>
 8005fa2:	4628      	mov	r0, r5
 8005fa4:	4621      	mov	r1, r4
 8005fa6:	f7ff ff5b 	bl	8005e60 <__sflush_r>
 8005faa:	6e63      	ldr	r3, [r4, #100]	; 0x64
 8005fac:	07da      	lsls	r2, r3, #31
 8005fae:	4605      	mov	r5, r0
 8005fb0:	d405      	bmi.n	8005fbe <_fflush_r+0x42>
 8005fb2:	89a3      	ldrh	r3, [r4, #12]
 8005fb4:	059b      	lsls	r3, r3, #22
 8005fb6:	d402      	bmi.n	8005fbe <_fflush_r+0x42>
 8005fb8:	6da0      	ldr	r0, [r4, #88]	; 0x58
 8005fba:	f000 fb26 	bl	800660a <__retarget_lock_release_recursive>
 8005fbe:	4628      	mov	r0, r5
 8005fc0:	bd38      	pop	{r3, r4, r5, pc}
 8005fc2:	4605      	mov	r5, r0
 8005fc4:	e7fb      	b.n	8005fbe <_fflush_r+0x42>
	...

08005fc8 <std>:
 8005fc8:	2300      	movs	r3, #0
 8005fca:	b510      	push	{r4, lr}
 8005fcc:	4604      	mov	r4, r0
 8005fce:	e9c0 3300 	strd	r3, r3, [r0]
 8005fd2:	6083      	str	r3, [r0, #8]
 8005fd4:	8181      	strh	r1, [r0, #12]
 8005fd6:	6643      	str	r3, [r0, #100]	; 0x64
 8005fd8:	81c2      	strh	r2, [r0, #14]
 8005fda:	e9c0 3304 	strd	r3, r3, [r0, #16]
 8005fde:	6183      	str	r3, [r0, #24]
 8005fe0:	4619      	mov	r1, r3
 8005fe2:	2208      	movs	r2, #8
 8005fe4:	305c      	adds	r0, #92	; 0x5c
 8005fe6:	f7fd fcab 	bl	8003940 <memset>
 8005fea:	4b07      	ldr	r3, [pc, #28]	; (8006008 <std+0x40>)
 8005fec:	6223      	str	r3, [r4, #32]
 8005fee:	4b07      	ldr	r3, [pc, #28]	; (800600c <std+0x44>)
 8005ff0:	6263      	str	r3, [r4, #36]	; 0x24
 8005ff2:	4b07      	ldr	r3, [pc, #28]	; (8006010 <std+0x48>)
 8005ff4:	62a3      	str	r3, [r4, #40]	; 0x28
 8005ff6:	4b07      	ldr	r3, [pc, #28]	; (8006014 <std+0x4c>)
 8005ff8:	61e4      	str	r4, [r4, #28]
 8005ffa:	62e3      	str	r3, [r4, #44]	; 0x2c
 8005ffc:	f104 0058 	add.w	r0, r4, #88	; 0x58
 8006000:	e8bd 4010 	ldmia.w	sp!, {r4, lr}
 8006004:	f000 bafe 	b.w	8006604 <__retarget_lock_init_recursive>
 8006008:	080070d5 	.word	0x080070d5
 800600c:	080070f7 	.word	0x080070f7
 8006010:	0800712f 	.word	0x0800712f
 8006014:	08007153 	.word	0x08007153

08006018 <_cleanup_r>:
 8006018:	4901      	ldr	r1, [pc, #4]	; (8006020 <_cleanup_r+0x8>)
 800601a:	f000 bab5 	b.w	8006588 <_fwalk_reent>
 800601e:	bf00      	nop
 8006020:	080073e1 	.word	0x080073e1

08006024 <__sfp_lock_acquire>:
 8006024:	4801      	ldr	r0, [pc, #4]	; (800602c <__sfp_lock_acquire+0x8>)
 8006026:	f000 baef 	b.w	8006608 <__retarget_lock_acquire_recursive>
 800602a:	bf00      	nop
 800602c:	200011bc 	.word	0x200011bc

08006030 <__sfp_lock_release>:
 8006030:	4801      	ldr	r0, [pc, #4]	; (8006038 <__sfp_lock_release+0x8>)
 8006032:	f000 baea 	b.w	800660a <__retarget_lock_release_recursive>
 8006036:	bf00      	nop
 8006038:	200011bc 	.word	0x200011bc

0800603c <__sinit_lock_acquire>:
 800603c:	4801      	ldr	r0, [pc, #4]	; (8006044 <__sinit_lock_acquire+0x8>)
 800603e:	f000 bae3 	b.w	8006608 <__retarget_lock_acquire_recursive>
 8006042:	bf00      	nop
 8006044:	200011b7 	.word	0x200011b7

08006048 <__sinit_lock_release>:
 8006048:	4801      	ldr	r0, [pc, #4]	; (8006050 <__sinit_lock_release+0x8>)
 800604a:	f000 bade 	b.w	800660a <__retarget_lock_release_recursive>
 800604e:	bf00      	nop
 8006050:	200011b7 	.word	0x200011b7

08006054 <__sinit>:
 8006054:	b510      	push	{r4, lr}
 8006056:	4604      	mov	r4, r0
 8006058:	f7ff fff0 	bl	800603c <__sinit_lock_acquire>
 800605c:	6ba2      	ldr	r2, [r4, #56]	; 0x38
 800605e:	b11a      	cbz	r2, 8006068 <__sinit+0x14>
 8006060:	e8bd 4010 	ldmia.w	sp!, {r4, lr}
 8006064:	f7ff bff0 	b.w	8006048 <__sinit_lock_release>
 8006068:	4b0d      	ldr	r3, [pc, #52]	; (80060a0 <__sinit+0x4c>)
 800606a:	63e3      	str	r3, [r4, #60]	; 0x3c
 800606c:	2303      	movs	r3, #3
 800606e:	f8c4 32e4 	str.w	r3, [r4, #740]	; 0x2e4
 8006072:	f504 733b 	add.w	r3, r4, #748	; 0x2ec
 8006076:	f8c4 32e8 	str.w	r3, [r4, #744]	; 0x2e8
 800607a:	f8c4 22e0 	str.w	r2, [r4, #736]	; 0x2e0
 800607e:	2104      	movs	r1, #4
 8006080:	6860      	ldr	r0, [r4, #4]
 8006082:	f7ff ffa1 	bl	8005fc8 <std>
 8006086:	2201      	movs	r2, #1
 8006088:	2109      	movs	r1, #9
 800608a:	68a0      	ldr	r0, [r4, #8]
 800608c:	f7ff ff9c 	bl	8005fc8 <std>
 8006090:	2202      	movs	r2, #2
 8006092:	2112      	movs	r1, #18
 8006094:	68e0      	ldr	r0, [r4, #12]
 8006096:	f7ff ff97 	bl	8005fc8 <std>
 800609a:	2301      	movs	r3, #1
 800609c:	63a3      	str	r3, [r4, #56]	; 0x38
 800609e:	e7df      	b.n	8006060 <__sinit+0xc>
 80060a0:	08006019 	.word	0x08006019

080060a4 <__libc_fini_array>:
 80060a4:	b538      	push	{r3, r4, r5, lr}
 80060a6:	4d07      	ldr	r5, [pc, #28]	; (80060c4 <__libc_fini_array+0x20>)
 80060a8:	4c07      	ldr	r4, [pc, #28]	; (80060c8 <__libc_fini_array+0x24>)
 80060aa:	1b64      	subs	r4, r4, r5
 80060ac:	10a4      	asrs	r4, r4, #2
 80060ae:	b91c      	cbnz	r4, 80060b8 <__libc_fini_array+0x14>
 80060b0:	e8bd 4038 	ldmia.w	sp!, {r3, r4, r5, lr}
 80060b4:	f001 bac6 	b.w	8007644 <_fini>
 80060b8:	3c01      	subs	r4, #1
 80060ba:	f855 3024 	ldr.w	r3, [r5, r4, lsl #2]
 80060be:	4798      	blx	r3
 80060c0:	e7f5      	b.n	80060ae <__libc_fini_array+0xa>
 80060c2:	bf00      	nop
 80060c4:	08007a30 	.word	0x08007a30
 80060c8:	08007a34 	.word	0x08007a34

080060cc <_malloc_trim_r>:
 80060cc:	e92d 41f0 	stmdb	sp!, {r4, r5, r6, r7, r8, lr}
 80060d0:	4605      	mov	r5, r0
 80060d2:	2008      	movs	r0, #8
 80060d4:	460c      	mov	r4, r1
 80060d6:	f7fd fd65 	bl	8003ba4 <sysconf>
 80060da:	4f23      	ldr	r7, [pc, #140]	; (8006168 <_malloc_trim_r+0x9c>)
 80060dc:	4680      	mov	r8, r0
 80060de:	4628      	mov	r0, r5
 80060e0:	f7fd fc36 	bl	8003950 <__malloc_lock>
 80060e4:	68bb      	ldr	r3, [r7, #8]
 80060e6:	685e      	ldr	r6, [r3, #4]
 80060e8:	f026 0603 	bic.w	r6, r6, #3
 80060ec:	1b34      	subs	r4, r6, r4
 80060ee:	3c11      	subs	r4, #17
 80060f0:	4444      	add	r4, r8
 80060f2:	fbb4 f4f8 	udiv	r4, r4, r8
 80060f6:	3c01      	subs	r4, #1
 80060f8:	fb08 f404 	mul.w	r4, r8, r4
 80060fc:	45a0      	cmp	r8, r4
 80060fe:	dd05      	ble.n	800610c <_malloc_trim_r+0x40>
 8006100:	4628      	mov	r0, r5
 8006102:	f7fd fc2b 	bl	800395c <__malloc_unlock>
 8006106:	2000      	movs	r0, #0
 8006108:	e8bd 81f0 	ldmia.w	sp!, {r4, r5, r6, r7, r8, pc}
 800610c:	2100      	movs	r1, #0
 800610e:	4628      	mov	r0, r5
 8006110:	f7fd fc94 	bl	8003a3c <_sbrk_r>
 8006114:	68bb      	ldr	r3, [r7, #8]
 8006116:	4433      	add	r3, r6
 8006118:	4298      	cmp	r0, r3
 800611a:	d1f1      	bne.n	8006100 <_malloc_trim_r+0x34>
 800611c:	4261      	negs	r1, r4
 800611e:	4628      	mov	r0, r5
 8006120:	f7fd fc8c 	bl	8003a3c <_sbrk_r>
 8006124:	3001      	adds	r0, #1
 8006126:	d110      	bne.n	800614a <_malloc_trim_r+0x7e>
 8006128:	2100      	movs	r1, #0
 800612a:	4628      	mov	r0, r5
 800612c:	f7fd fc86 	bl	8003a3c <_sbrk_r>
 8006130:	68ba      	ldr	r2, [r7, #8]
 8006132:	1a83      	subs	r3, r0, r2
 8006134:	2b0f      	cmp	r3, #15
 8006136:	dde3      	ble.n	8006100 <_malloc_trim_r+0x34>
 8006138:	490c      	ldr	r1, [pc, #48]	; (800616c <_malloc_trim_r+0xa0>)
 800613a:	6809      	ldr	r1, [r1, #0]
 800613c:	1a40      	subs	r0, r0, r1
 800613e:	490c      	ldr	r1, [pc, #48]	; (8006170 <_malloc_trim_r+0xa4>)
 8006140:	f043 0301 	orr.w	r3, r3, #1
 8006144:	6008      	str	r0, [r1, #0]
 8006146:	6053      	str	r3, [r2, #4]
 8006148:	e7da      	b.n	8006100 <_malloc_trim_r+0x34>
 800614a:	68bb      	ldr	r3, [r7, #8]
 800614c:	4a08      	ldr	r2, [pc, #32]	; (8006170 <_malloc_trim_r+0xa4>)
 800614e:	1b36      	subs	r6, r6, r4
 8006150:	f046 0601 	orr.w	r6, r6, #1
 8006154:	605e      	str	r6, [r3, #4]
 8006156:	6813      	ldr	r3, [r2, #0]
 8006158:	4628      	mov	r0, r5
 800615a:	1b1c      	subs	r4, r3, r4
 800615c:	6014      	str	r4, [r2, #0]
 800615e:	f7fd fbfd 	bl	800395c <__malloc_unlock>
 8006162:	2001      	movs	r0, #1
 8006164:	e7d0      	b.n	8006108 <_malloc_trim_r+0x3c>
 8006166:	bf00      	nop
 8006168:	20000948 	.word	0x20000948
 800616c:	20000d50 	.word	0x20000d50
 8006170:	20000ef4 	.word	0x20000ef4

08006174 <_free_r>:
 8006174:	e92d 41f0 	stmdb	sp!, {r4, r5, r6, r7, r8, lr}
 8006178:	4604      	mov	r4, r0
 800617a:	4688      	mov	r8, r1
 800617c:	2900      	cmp	r1, #0
 800617e:	f000 80ab 	beq.w	80062d8 <_free_r+0x164>
 8006182:	f7fd fbe5 	bl	8003950 <__malloc_lock>
 8006186:	f858 2c04 	ldr.w	r2, [r8, #-4]
 800618a:	4d54      	ldr	r5, [pc, #336]	; (80062dc <_free_r+0x168>)
 800618c:	f022 0001 	bic.w	r0, r2, #1
 8006190:	f1a8 0308 	sub.w	r3, r8, #8
 8006194:	181f      	adds	r7, r3, r0
 8006196:	68a9      	ldr	r1, [r5, #8]
 8006198:	687e      	ldr	r6, [r7, #4]
 800619a:	42b9      	cmp	r1, r7
 800619c:	f026 0603 	bic.w	r6, r6, #3
 80061a0:	f002 0201 	and.w	r2, r2, #1
 80061a4:	d11b      	bne.n	80061de <_free_r+0x6a>
 80061a6:	4430      	add	r0, r6
 80061a8:	b93a      	cbnz	r2, 80061ba <_free_r+0x46>
 80061aa:	f858 2c08 	ldr.w	r2, [r8, #-8]
 80061ae:	1a9b      	subs	r3, r3, r2
 80061b0:	4410      	add	r0, r2
 80061b2:	e9d3 1202 	ldrd	r1, r2, [r3, #8]
 80061b6:	60ca      	str	r2, [r1, #12]
 80061b8:	6091      	str	r1, [r2, #8]
 80061ba:	f040 0201 	orr.w	r2, r0, #1
 80061be:	605a      	str	r2, [r3, #4]
 80061c0:	60ab      	str	r3, [r5, #8]
 80061c2:	4b47      	ldr	r3, [pc, #284]	; (80062e0 <_free_r+0x16c>)
 80061c4:	681b      	ldr	r3, [r3, #0]
 80061c6:	4283      	cmp	r3, r0
 80061c8:	d804      	bhi.n	80061d4 <_free_r+0x60>
 80061ca:	4b46      	ldr	r3, [pc, #280]	; (80062e4 <_free_r+0x170>)
 80061cc:	4620      	mov	r0, r4
 80061ce:	6819      	ldr	r1, [r3, #0]
 80061d0:	f7ff ff7c 	bl	80060cc <_malloc_trim_r>
 80061d4:	4620      	mov	r0, r4
 80061d6:	e8bd 41f0 	ldmia.w	sp!, {r4, r5, r6, r7, r8, lr}
 80061da:	f7fd bbbf 	b.w	800395c <__malloc_unlock>
 80061de:	607e      	str	r6, [r7, #4]
 80061e0:	2a00      	cmp	r2, #0
 80061e2:	d139      	bne.n	8006258 <_free_r+0xe4>
 80061e4:	f858 1c08 	ldr.w	r1, [r8, #-8]
 80061e8:	1a5b      	subs	r3, r3, r1
 80061ea:	4408      	add	r0, r1
 80061ec:	6899      	ldr	r1, [r3, #8]
 80061ee:	f105 0c08 	add.w	ip, r5, #8
 80061f2:	4561      	cmp	r1, ip
 80061f4:	d032      	beq.n	800625c <_free_r+0xe8>
 80061f6:	f8d3 c00c 	ldr.w	ip, [r3, #12]
 80061fa:	f8c1 c00c 	str.w	ip, [r1, #12]
 80061fe:	f8cc 1008 	str.w	r1, [ip, #8]
 8006202:	19b9      	adds	r1, r7, r6
 8006204:	6849      	ldr	r1, [r1, #4]
 8006206:	07c9      	lsls	r1, r1, #31
 8006208:	d40a      	bmi.n	8006220 <_free_r+0xac>
 800620a:	4430      	add	r0, r6
 800620c:	68b9      	ldr	r1, [r7, #8]
 800620e:	bb3a      	cbnz	r2, 8006260 <_free_r+0xec>
 8006210:	4e35      	ldr	r6, [pc, #212]	; (80062e8 <_free_r+0x174>)
 8006212:	42b1      	cmp	r1, r6
 8006214:	d124      	bne.n	8006260 <_free_r+0xec>
 8006216:	e9c5 3304 	strd	r3, r3, [r5, #16]
 800621a:	e9c3 1102 	strd	r1, r1, [r3, #8]
 800621e:	2201      	movs	r2, #1
 8006220:	f040 0101 	orr.w	r1, r0, #1
 8006224:	6059      	str	r1, [r3, #4]
 8006226:	5018      	str	r0, [r3, r0]
 8006228:	2a00      	cmp	r2, #0
 800622a:	d1d3      	bne.n	80061d4 <_free_r+0x60>
 800622c:	f5b0 7f00 	cmp.w	r0, #512	; 0x200
 8006230:	d21a      	bcs.n	8006268 <_free_r+0xf4>
 8006232:	08c0      	lsrs	r0, r0, #3
 8006234:	1081      	asrs	r1, r0, #2
 8006236:	2201      	movs	r2, #1
 8006238:	408a      	lsls	r2, r1
 800623a:	6869      	ldr	r1, [r5, #4]
 800623c:	3001      	adds	r0, #1
 800623e:	430a      	orrs	r2, r1
 8006240:	606a      	str	r2, [r5, #4]
 8006242:	f855 1030 	ldr.w	r1, [r5, r0, lsl #3]
 8006246:	eb05 02c0 	add.w	r2, r5, r0, lsl #3
 800624a:	3a08      	subs	r2, #8
 800624c:	e9c3 1202 	strd	r1, r2, [r3, #8]
 8006250:	f845 3030 	str.w	r3, [r5, r0, lsl #3]
 8006254:	60cb      	str	r3, [r1, #12]
 8006256:	e7bd      	b.n	80061d4 <_free_r+0x60>
 8006258:	2200      	movs	r2, #0
 800625a:	e7d2      	b.n	8006202 <_free_r+0x8e>
 800625c:	2201      	movs	r2, #1
 800625e:	e7d0      	b.n	8006202 <_free_r+0x8e>
 8006260:	68fe      	ldr	r6, [r7, #12]
 8006262:	60ce      	str	r6, [r1, #12]
 8006264:	60b1      	str	r1, [r6, #8]
 8006266:	e7db      	b.n	8006220 <_free_r+0xac>
 8006268:	0a42      	lsrs	r2, r0, #9
 800626a:	2a04      	cmp	r2, #4
 800626c:	d813      	bhi.n	8006296 <_free_r+0x122>
 800626e:	0982      	lsrs	r2, r0, #6
 8006270:	3238      	adds	r2, #56	; 0x38
 8006272:	1c51      	adds	r1, r2, #1
 8006274:	eb05 06c2 	add.w	r6, r5, r2, lsl #3
 8006278:	f855 1031 	ldr.w	r1, [r5, r1, lsl #3]
 800627c:	428e      	cmp	r6, r1
 800627e:	d124      	bne.n	80062ca <_free_r+0x156>
 8006280:	2001      	movs	r0, #1
 8006282:	1092      	asrs	r2, r2, #2
 8006284:	fa00 f202 	lsl.w	r2, r0, r2
 8006288:	6868      	ldr	r0, [r5, #4]
 800628a:	4302      	orrs	r2, r0
 800628c:	606a      	str	r2, [r5, #4]
 800628e:	e9c3 1602 	strd	r1, r6, [r3, #8]
 8006292:	60b3      	str	r3, [r6, #8]
 8006294:	e7de      	b.n	8006254 <_free_r+0xe0>
 8006296:	2a14      	cmp	r2, #20
 8006298:	d801      	bhi.n	800629e <_free_r+0x12a>
 800629a:	325b      	adds	r2, #91	; 0x5b
 800629c:	e7e9      	b.n	8006272 <_free_r+0xfe>
 800629e:	2a54      	cmp	r2, #84	; 0x54
 80062a0:	d802      	bhi.n	80062a8 <_free_r+0x134>
 80062a2:	0b02      	lsrs	r2, r0, #12
 80062a4:	326e      	adds	r2, #110	; 0x6e
 80062a6:	e7e4      	b.n	8006272 <_free_r+0xfe>
 80062a8:	f5b2 7faa 	cmp.w	r2, #340	; 0x154
 80062ac:	d802      	bhi.n	80062b4 <_free_r+0x140>
 80062ae:	0bc2      	lsrs	r2, r0, #15
 80062b0:	3277      	adds	r2, #119	; 0x77
 80062b2:	e7de      	b.n	8006272 <_free_r+0xfe>
 80062b4:	f240 5154 	movw	r1, #1364	; 0x554
 80062b8:	428a      	cmp	r2, r1
 80062ba:	bf9a      	itte	ls
 80062bc:	0c82      	lsrls	r2, r0, #18
 80062be:	327c      	addls	r2, #124	; 0x7c
 80062c0:	227e      	movhi	r2, #126	; 0x7e
 80062c2:	e7d6      	b.n	8006272 <_free_r+0xfe>
 80062c4:	6889      	ldr	r1, [r1, #8]
 80062c6:	428e      	cmp	r6, r1
 80062c8:	d004      	beq.n	80062d4 <_free_r+0x160>
 80062ca:	684a      	ldr	r2, [r1, #4]
 80062cc:	f022 0203 	bic.w	r2, r2, #3
 80062d0:	4282      	cmp	r2, r0
 80062d2:	d8f7      	bhi.n	80062c4 <_free_r+0x150>
 80062d4:	68ce      	ldr	r6, [r1, #12]
 80062d6:	e7da      	b.n	800628e <_free_r+0x11a>
 80062d8:	e8bd 81f0 	ldmia.w	sp!, {r4, r5, r6, r7, r8, pc}
 80062dc:	20000948 	.word	0x20000948
 80062e0:	20000d54 	.word	0x20000d54
 80062e4:	20000f24 	.word	0x20000f24
 80062e8:	20000950 	.word	0x20000950

080062ec <__sfvwrite_r>:
 80062ec:	6893      	ldr	r3, [r2, #8]
 80062ee:	e92d 4ff7 	stmdb	sp!, {r0, r1, r2, r4, r5, r6, r7, r8, r9, sl, fp, lr}
 80062f2:	4680      	mov	r8, r0
 80062f4:	460c      	mov	r4, r1
 80062f6:	4691      	mov	r9, r2
 80062f8:	b91b      	cbnz	r3, 8006302 <__sfvwrite_r+0x16>
 80062fa:	2000      	movs	r0, #0
 80062fc:	b003      	add	sp, #12
 80062fe:	e8bd 8ff0 	ldmia.w	sp!, {r4, r5, r6, r7, r8, r9, sl, fp, pc}
 8006302:	898b      	ldrh	r3, [r1, #12]
 8006304:	0718      	lsls	r0, r3, #28
 8006306:	d54f      	bpl.n	80063a8 <__sfvwrite_r+0xbc>
 8006308:	690b      	ldr	r3, [r1, #16]
 800630a:	2b00      	cmp	r3, #0
 800630c:	d04c      	beq.n	80063a8 <__sfvwrite_r+0xbc>
 800630e:	89a5      	ldrh	r5, [r4, #12]
 8006310:	f8d9 6000 	ldr.w	r6, [r9]
 8006314:	f015 0702 	ands.w	r7, r5, #2
 8006318:	d169      	bne.n	80063ee <__sfvwrite_r+0x102>
 800631a:	f015 0501 	ands.w	r5, r5, #1
 800631e:	f000 809a 	beq.w	8006456 <__sfvwrite_r+0x16a>
 8006322:	4638      	mov	r0, r7
 8006324:	46ba      	mov	sl, r7
 8006326:	46bb      	mov	fp, r7
 8006328:	f1bb 0f00 	cmp.w	fp, #0
 800632c:	f000 8103 	beq.w	8006536 <__sfvwrite_r+0x24a>
 8006330:	b950      	cbnz	r0, 8006348 <__sfvwrite_r+0x5c>
 8006332:	465a      	mov	r2, fp
 8006334:	210a      	movs	r1, #10
 8006336:	4650      	mov	r0, sl
 8006338:	f7f9 ff72 	bl	8000220 <memchr>
 800633c:	2800      	cmp	r0, #0
 800633e:	f000 80ff 	beq.w	8006540 <__sfvwrite_r+0x254>
 8006342:	3001      	adds	r0, #1
 8006344:	eba0 070a 	sub.w	r7, r0, sl
 8006348:	6820      	ldr	r0, [r4, #0]
 800634a:	6921      	ldr	r1, [r4, #16]
 800634c:	6962      	ldr	r2, [r4, #20]
 800634e:	455f      	cmp	r7, fp
 8006350:	463b      	mov	r3, r7
 8006352:	bf28      	it	cs
 8006354:	465b      	movcs	r3, fp
 8006356:	4288      	cmp	r0, r1
 8006358:	f240 80f5 	bls.w	8006546 <__sfvwrite_r+0x25a>
 800635c:	68a5      	ldr	r5, [r4, #8]
 800635e:	4415      	add	r5, r2
 8006360:	42ab      	cmp	r3, r5
 8006362:	f340 80f0 	ble.w	8006546 <__sfvwrite_r+0x25a>
 8006366:	4651      	mov	r1, sl
 8006368:	462a      	mov	r2, r5
 800636a:	f000 f9d8 	bl	800671e <memmove>
 800636e:	6823      	ldr	r3, [r4, #0]
 8006370:	442b      	add	r3, r5
 8006372:	6023      	str	r3, [r4, #0]
 8006374:	4621      	mov	r1, r4
 8006376:	4640      	mov	r0, r8
 8006378:	f7ff fe00 	bl	8005f7c <_fflush_r>
 800637c:	2800      	cmp	r0, #0
 800637e:	d165      	bne.n	800644c <__sfvwrite_r+0x160>
 8006380:	1b7f      	subs	r7, r7, r5
 8006382:	f040 80fa 	bne.w	800657a <__sfvwrite_r+0x28e>
 8006386:	4621      	mov	r1, r4
 8006388:	4640      	mov	r0, r8
 800638a:	f7ff fdf7 	bl	8005f7c <_fflush_r>
 800638e:	2800      	cmp	r0, #0
 8006390:	d15c      	bne.n	800644c <__sfvwrite_r+0x160>
 8006392:	f8d9 3008 	ldr.w	r3, [r9, #8]
 8006396:	44aa      	add	sl, r5
 8006398:	ebab 0b05 	sub.w	fp, fp, r5
 800639c:	1b5d      	subs	r5, r3, r5
 800639e:	f8c9 5008 	str.w	r5, [r9, #8]
 80063a2:	2d00      	cmp	r5, #0
 80063a4:	d1c0      	bne.n	8006328 <__sfvwrite_r+0x3c>
 80063a6:	e7a8      	b.n	80062fa <__sfvwrite_r+0xe>
 80063a8:	4621      	mov	r1, r4
 80063aa:	4640      	mov	r0, r8
 80063ac:	f7fe feba 	bl	8005124 <__swsetup_r>
 80063b0:	2800      	cmp	r0, #0
 80063b2:	d0ac      	beq.n	800630e <__sfvwrite_r+0x22>
 80063b4:	f04f 30ff 	mov.w	r0, #4294967295	; 0xffffffff
 80063b8:	e7a0      	b.n	80062fc <__sfvwrite_r+0x10>
 80063ba:	e9d6 a700 	ldrd	sl, r7, [r6]
 80063be:	3608      	adds	r6, #8
 80063c0:	2f00      	cmp	r7, #0
 80063c2:	d0fa      	beq.n	80063ba <__sfvwrite_r+0xce>
 80063c4:	455f      	cmp	r7, fp
 80063c6:	463b      	mov	r3, r7
 80063c8:	4652      	mov	r2, sl
 80063ca:	bf28      	it	cs
 80063cc:	465b      	movcs	r3, fp
 80063ce:	69e1      	ldr	r1, [r4, #28]
 80063d0:	6a65      	ldr	r5, [r4, #36]	; 0x24
 80063d2:	4640      	mov	r0, r8
 80063d4:	47a8      	blx	r5
 80063d6:	2800      	cmp	r0, #0
 80063d8:	dd38      	ble.n	800644c <__sfvwrite_r+0x160>
 80063da:	f8d9 3008 	ldr.w	r3, [r9, #8]
 80063de:	4482      	add	sl, r0
 80063e0:	1a3f      	subs	r7, r7, r0
 80063e2:	1a18      	subs	r0, r3, r0
 80063e4:	f8c9 0008 	str.w	r0, [r9, #8]
 80063e8:	2800      	cmp	r0, #0
 80063ea:	d1e9      	bne.n	80063c0 <__sfvwrite_r+0xd4>
 80063ec:	e785      	b.n	80062fa <__sfvwrite_r+0xe>
 80063ee:	f04f 0a00 	mov.w	sl, #0
 80063f2:	4657      	mov	r7, sl
 80063f4:	f8df b18c 	ldr.w	fp, [pc, #396]	; 8006584 <__sfvwrite_r+0x298>
 80063f8:	e7e2      	b.n	80063c0 <__sfvwrite_r+0xd4>
 80063fa:	e9d6 5a00 	ldrd	r5, sl, [r6]
 80063fe:	3608      	adds	r6, #8
 8006400:	f1ba 0f00 	cmp.w	sl, #0
 8006404:	d0f9      	beq.n	80063fa <__sfvwrite_r+0x10e>
 8006406:	89a2      	ldrh	r2, [r4, #12]
 8006408:	68a3      	ldr	r3, [r4, #8]
 800640a:	6820      	ldr	r0, [r4, #0]
 800640c:	0591      	lsls	r1, r2, #22
 800640e:	d564      	bpl.n	80064da <__sfvwrite_r+0x1ee>
 8006410:	4553      	cmp	r3, sl
 8006412:	d836      	bhi.n	8006482 <__sfvwrite_r+0x196>
 8006414:	f412 6f90 	tst.w	r2, #1152	; 0x480
 8006418:	d033      	beq.n	8006482 <__sfvwrite_r+0x196>
 800641a:	6921      	ldr	r1, [r4, #16]
 800641c:	6967      	ldr	r7, [r4, #20]
 800641e:	eba0 0b01 	sub.w	fp, r0, r1
 8006422:	2302      	movs	r3, #2
 8006424:	eb07 0747 	add.w	r7, r7, r7, lsl #1
 8006428:	fb97 f7f3 	sdiv	r7, r7, r3
 800642c:	f10b 0301 	add.w	r3, fp, #1
 8006430:	4453      	add	r3, sl
 8006432:	429f      	cmp	r7, r3
 8006434:	bf38      	it	cc
 8006436:	461f      	movcc	r7, r3
 8006438:	0553      	lsls	r3, r2, #21
 800643a:	d53e      	bpl.n	80064ba <__sfvwrite_r+0x1ce>
 800643c:	4639      	mov	r1, r7
 800643e:	4640      	mov	r0, r8
 8006440:	f7fd f848 	bl	80034d4 <_malloc_r>
 8006444:	b948      	cbnz	r0, 800645a <__sfvwrite_r+0x16e>
 8006446:	230c      	movs	r3, #12
 8006448:	f8c8 3000 	str.w	r3, [r8]
 800644c:	89a3      	ldrh	r3, [r4, #12]
 800644e:	f043 0340 	orr.w	r3, r3, #64	; 0x40
 8006452:	81a3      	strh	r3, [r4, #12]
 8006454:	e7ae      	b.n	80063b4 <__sfvwrite_r+0xc8>
 8006456:	46aa      	mov	sl, r5
 8006458:	e7d2      	b.n	8006400 <__sfvwrite_r+0x114>
 800645a:	465a      	mov	r2, fp
 800645c:	6921      	ldr	r1, [r4, #16]
 800645e:	9001      	str	r0, [sp, #4]
 8006460:	f000 f952 	bl	8006708 <memcpy>
 8006464:	89a2      	ldrh	r2, [r4, #12]
 8006466:	9b01      	ldr	r3, [sp, #4]
 8006468:	f422 6290 	bic.w	r2, r2, #1152	; 0x480
 800646c:	f042 0280 	orr.w	r2, r2, #128	; 0x80
 8006470:	81a2      	strh	r2, [r4, #12]
 8006472:	6123      	str	r3, [r4, #16]
 8006474:	6167      	str	r7, [r4, #20]
 8006476:	445b      	add	r3, fp
 8006478:	eba7 070b 	sub.w	r7, r7, fp
 800647c:	6023      	str	r3, [r4, #0]
 800647e:	60a7      	str	r7, [r4, #8]
 8006480:	4653      	mov	r3, sl
 8006482:	4553      	cmp	r3, sl
 8006484:	bf28      	it	cs
 8006486:	4653      	movcs	r3, sl
 8006488:	461a      	mov	r2, r3
 800648a:	4629      	mov	r1, r5
 800648c:	6820      	ldr	r0, [r4, #0]
 800648e:	9301      	str	r3, [sp, #4]
 8006490:	f000 f945 	bl	800671e <memmove>
 8006494:	68a2      	ldr	r2, [r4, #8]
 8006496:	9b01      	ldr	r3, [sp, #4]
 8006498:	1ad2      	subs	r2, r2, r3
 800649a:	60a2      	str	r2, [r4, #8]
 800649c:	6822      	ldr	r2, [r4, #0]
 800649e:	4413      	add	r3, r2
 80064a0:	4657      	mov	r7, sl
 80064a2:	6023      	str	r3, [r4, #0]
 80064a4:	f8d9 3008 	ldr.w	r3, [r9, #8]
 80064a8:	443d      	add	r5, r7
 80064aa:	ebaa 0a07 	sub.w	sl, sl, r7
 80064ae:	1bdf      	subs	r7, r3, r7
 80064b0:	f8c9 7008 	str.w	r7, [r9, #8]
 80064b4:	2f00      	cmp	r7, #0
 80064b6:	d1a3      	bne.n	8006400 <__sfvwrite_r+0x114>
 80064b8:	e71f      	b.n	80062fa <__sfvwrite_r+0xe>
 80064ba:	463a      	mov	r2, r7
 80064bc:	4640      	mov	r0, r8
 80064be:	f000 fc2b 	bl	8006d18 <_realloc_r>
 80064c2:	4603      	mov	r3, r0
 80064c4:	2800      	cmp	r0, #0
 80064c6:	d1d4      	bne.n	8006472 <__sfvwrite_r+0x186>
 80064c8:	6921      	ldr	r1, [r4, #16]
 80064ca:	4640      	mov	r0, r8
 80064cc:	f7ff fe52 	bl	8006174 <_free_r>
 80064d0:	89a3      	ldrh	r3, [r4, #12]
 80064d2:	f023 0380 	bic.w	r3, r3, #128	; 0x80
 80064d6:	81a3      	strh	r3, [r4, #12]
 80064d8:	e7b5      	b.n	8006446 <__sfvwrite_r+0x15a>
 80064da:	6922      	ldr	r2, [r4, #16]
 80064dc:	4282      	cmp	r2, r0
 80064de:	d302      	bcc.n	80064e6 <__sfvwrite_r+0x1fa>
 80064e0:	6962      	ldr	r2, [r4, #20]
 80064e2:	4552      	cmp	r2, sl
 80064e4:	d916      	bls.n	8006514 <__sfvwrite_r+0x228>
 80064e6:	4553      	cmp	r3, sl
 80064e8:	bf28      	it	cs
 80064ea:	4653      	movcs	r3, sl
 80064ec:	461a      	mov	r2, r3
 80064ee:	4629      	mov	r1, r5
 80064f0:	461f      	mov	r7, r3
 80064f2:	f000 f914 	bl	800671e <memmove>
 80064f6:	68a3      	ldr	r3, [r4, #8]
 80064f8:	6822      	ldr	r2, [r4, #0]
 80064fa:	1bdb      	subs	r3, r3, r7
 80064fc:	443a      	add	r2, r7
 80064fe:	60a3      	str	r3, [r4, #8]
 8006500:	6022      	str	r2, [r4, #0]
 8006502:	2b00      	cmp	r3, #0
 8006504:	d1ce      	bne.n	80064a4 <__sfvwrite_r+0x1b8>
 8006506:	4621      	mov	r1, r4
 8006508:	4640      	mov	r0, r8
 800650a:	f7ff fd37 	bl	8005f7c <_fflush_r>
 800650e:	2800      	cmp	r0, #0
 8006510:	d0c8      	beq.n	80064a4 <__sfvwrite_r+0x1b8>
 8006512:	e79b      	b.n	800644c <__sfvwrite_r+0x160>
 8006514:	4b1a      	ldr	r3, [pc, #104]	; (8006580 <__sfvwrite_r+0x294>)
 8006516:	6a67      	ldr	r7, [r4, #36]	; 0x24
 8006518:	69e1      	ldr	r1, [r4, #28]
 800651a:	459a      	cmp	sl, r3
 800651c:	bf94      	ite	ls
 800651e:	4653      	movls	r3, sl
 8006520:	f06f 4300 	mvnhi.w	r3, #2147483648	; 0x80000000
 8006524:	4640      	mov	r0, r8
 8006526:	fb93 f3f2 	sdiv	r3, r3, r2
 800652a:	4353      	muls	r3, r2
 800652c:	462a      	mov	r2, r5
 800652e:	47b8      	blx	r7
 8006530:	1e07      	subs	r7, r0, #0
 8006532:	dcb7      	bgt.n	80064a4 <__sfvwrite_r+0x1b8>
 8006534:	e78a      	b.n	800644c <__sfvwrite_r+0x160>
 8006536:	e9d6 ab00 	ldrd	sl, fp, [r6]
 800653a:	2000      	movs	r0, #0
 800653c:	3608      	adds	r6, #8
 800653e:	e6f3      	b.n	8006328 <__sfvwrite_r+0x3c>
 8006540:	f10b 0701 	add.w	r7, fp, #1
 8006544:	e700      	b.n	8006348 <__sfvwrite_r+0x5c>
 8006546:	429a      	cmp	r2, r3
 8006548:	dc09      	bgt.n	800655e <__sfvwrite_r+0x272>
 800654a:	6a65      	ldr	r5, [r4, #36]	; 0x24
 800654c:	69e1      	ldr	r1, [r4, #28]
 800654e:	4613      	mov	r3, r2
 8006550:	4640      	mov	r0, r8
 8006552:	4652      	mov	r2, sl
 8006554:	47a8      	blx	r5
 8006556:	1e05      	subs	r5, r0, #0
 8006558:	f73f af12 	bgt.w	8006380 <__sfvwrite_r+0x94>
 800655c:	e776      	b.n	800644c <__sfvwrite_r+0x160>
 800655e:	461a      	mov	r2, r3
 8006560:	4651      	mov	r1, sl
 8006562:	9301      	str	r3, [sp, #4]
 8006564:	f000 f8db 	bl	800671e <memmove>
 8006568:	9b01      	ldr	r3, [sp, #4]
 800656a:	68a2      	ldr	r2, [r4, #8]
 800656c:	1ad2      	subs	r2, r2, r3
 800656e:	60a2      	str	r2, [r4, #8]
 8006570:	6822      	ldr	r2, [r4, #0]
 8006572:	441a      	add	r2, r3
 8006574:	6022      	str	r2, [r4, #0]
 8006576:	461d      	mov	r5, r3
 8006578:	e702      	b.n	8006380 <__sfvwrite_r+0x94>
 800657a:	2001      	movs	r0, #1
 800657c:	e709      	b.n	8006392 <__sfvwrite_r+0xa6>
 800657e:	bf00      	nop
 8006580:	7ffffffe 	.word	0x7ffffffe
 8006584:	7ffffc00 	.word	0x7ffffc00

08006588 <_fwalk_reent>:
 8006588:	e92d 43f8 	stmdb	sp!, {r3, r4, r5, r6, r7, r8, r9, lr}
 800658c:	4680      	mov	r8, r0
 800658e:	4689      	mov	r9, r1
 8006590:	f500 7438 	add.w	r4, r0, #736	; 0x2e0
 8006594:	2600      	movs	r6, #0
 8006596:	b914      	cbnz	r4, 800659e <_fwalk_reent+0x16>
 8006598:	4630      	mov	r0, r6
 800659a:	e8bd 83f8 	ldmia.w	sp!, {r3, r4, r5, r6, r7, r8, r9, pc}
 800659e:	e9d4 7501 	ldrd	r7, r5, [r4, #4]
 80065a2:	3f01      	subs	r7, #1
 80065a4:	d501      	bpl.n	80065aa <_fwalk_reent+0x22>
 80065a6:	6824      	ldr	r4, [r4, #0]
 80065a8:	e7f5      	b.n	8006596 <_fwalk_reent+0xe>
 80065aa:	89ab      	ldrh	r3, [r5, #12]
 80065ac:	2b01      	cmp	r3, #1
 80065ae:	d907      	bls.n	80065c0 <_fwalk_reent+0x38>
 80065b0:	f9b5 300e 	ldrsh.w	r3, [r5, #14]
 80065b4:	3301      	adds	r3, #1
 80065b6:	d003      	beq.n	80065c0 <_fwalk_reent+0x38>
 80065b8:	4629      	mov	r1, r5
 80065ba:	4640      	mov	r0, r8
 80065bc:	47c8      	blx	r9
 80065be:	4306      	orrs	r6, r0
 80065c0:	3568      	adds	r5, #104	; 0x68
 80065c2:	e7ee      	b.n	80065a2 <_fwalk_reent+0x1a>

080065c4 <__locale_mb_cur_max>:
 80065c4:	4b04      	ldr	r3, [pc, #16]	; (80065d8 <__locale_mb_cur_max+0x14>)
 80065c6:	4a05      	ldr	r2, [pc, #20]	; (80065dc <__locale_mb_cur_max+0x18>)
 80065c8:	681b      	ldr	r3, [r3, #0]
 80065ca:	6b5b      	ldr	r3, [r3, #52]	; 0x34
 80065cc:	2b00      	cmp	r3, #0
 80065ce:	bf08      	it	eq
 80065d0:	4613      	moveq	r3, r2
 80065d2:	f893 0128 	ldrb.w	r0, [r3, #296]	; 0x128
 80065d6:	4770      	bx	lr
 80065d8:	20000518 	.word	0x20000518
 80065dc:	20000d5c 	.word	0x20000d5c

080065e0 <__locale_ctype_ptr_l>:
 80065e0:	f8d0 00ec 	ldr.w	r0, [r0, #236]	; 0xec
 80065e4:	4770      	bx	lr
	...

080065e8 <_localeconv_r>:
 80065e8:	4b04      	ldr	r3, [pc, #16]	; (80065fc <_localeconv_r+0x14>)
 80065ea:	681b      	ldr	r3, [r3, #0]
 80065ec:	6b58      	ldr	r0, [r3, #52]	; 0x34
 80065ee:	4b04      	ldr	r3, [pc, #16]	; (8006600 <_localeconv_r+0x18>)
 80065f0:	2800      	cmp	r0, #0
 80065f2:	bf08      	it	eq
 80065f4:	4618      	moveq	r0, r3
 80065f6:	30f0      	adds	r0, #240	; 0xf0
 80065f8:	4770      	bx	lr
 80065fa:	bf00      	nop
 80065fc:	20000518 	.word	0x20000518
 8006600:	20000d5c 	.word	0x20000d5c

08006604 <__retarget_lock_init_recursive>:
 8006604:	4770      	bx	lr

08006606 <__retarget_lock_close_recursive>:
 8006606:	4770      	bx	lr

08006608 <__retarget_lock_acquire_recursive>:
 8006608:	4770      	bx	lr

0800660a <__retarget_lock_release_recursive>:
 800660a:	4770      	bx	lr

0800660c <__swhatbuf_r>:
 800660c:	b570      	push	{r4, r5, r6, lr}
 800660e:	460e      	mov	r6, r1
 8006610:	f9b1 100e 	ldrsh.w	r1, [r1, #14]
 8006614:	2900      	cmp	r1, #0
 8006616:	b096      	sub	sp, #88	; 0x58
 8006618:	4614      	mov	r4, r2
 800661a:	461d      	mov	r5, r3
 800661c:	da09      	bge.n	8006632 <__swhatbuf_r+0x26>
 800661e:	89b3      	ldrh	r3, [r6, #12]
 8006620:	2200      	movs	r2, #0
 8006622:	f013 0080 	ands.w	r0, r3, #128	; 0x80
 8006626:	602a      	str	r2, [r5, #0]
 8006628:	d116      	bne.n	8006658 <__swhatbuf_r+0x4c>
 800662a:	f44f 6380 	mov.w	r3, #1024	; 0x400
 800662e:	6023      	str	r3, [r4, #0]
 8006630:	e015      	b.n	800665e <__swhatbuf_r+0x52>
 8006632:	466a      	mov	r2, sp
 8006634:	f000 ff96 	bl	8007564 <_fstat_r>
 8006638:	2800      	cmp	r0, #0
 800663a:	dbf0      	blt.n	800661e <__swhatbuf_r+0x12>
 800663c:	9a01      	ldr	r2, [sp, #4]
 800663e:	f402 4270 	and.w	r2, r2, #61440	; 0xf000
 8006642:	f5a2 5300 	sub.w	r3, r2, #8192	; 0x2000
 8006646:	425a      	negs	r2, r3
 8006648:	415a      	adcs	r2, r3
 800664a:	f44f 6380 	mov.w	r3, #1024	; 0x400
 800664e:	602a      	str	r2, [r5, #0]
 8006650:	f44f 6000 	mov.w	r0, #2048	; 0x800
 8006654:	6023      	str	r3, [r4, #0]
 8006656:	e002      	b.n	800665e <__swhatbuf_r+0x52>
 8006658:	2340      	movs	r3, #64	; 0x40
 800665a:	6023      	str	r3, [r4, #0]
 800665c:	4610      	mov	r0, r2
 800665e:	b016      	add	sp, #88	; 0x58
 8006660:	bd70      	pop	{r4, r5, r6, pc}
	...

08006664 <__smakebuf_r>:
 8006664:	898b      	ldrh	r3, [r1, #12]
 8006666:	b573      	push	{r0, r1, r4, r5, r6, lr}
 8006668:	079d      	lsls	r5, r3, #30
 800666a:	4606      	mov	r6, r0
 800666c:	460c      	mov	r4, r1
 800666e:	d507      	bpl.n	8006680 <__smakebuf_r+0x1c>
 8006670:	f104 0343 	add.w	r3, r4, #67	; 0x43
 8006674:	6023      	str	r3, [r4, #0]
 8006676:	6123      	str	r3, [r4, #16]
 8006678:	2301      	movs	r3, #1
 800667a:	6163      	str	r3, [r4, #20]
 800667c:	b002      	add	sp, #8
 800667e:	bd70      	pop	{r4, r5, r6, pc}
 8006680:	ab01      	add	r3, sp, #4
 8006682:	466a      	mov	r2, sp
 8006684:	f7ff ffc2 	bl	800660c <__swhatbuf_r>
 8006688:	9900      	ldr	r1, [sp, #0]
 800668a:	4605      	mov	r5, r0
 800668c:	4630      	mov	r0, r6
 800668e:	f7fc ff21 	bl	80034d4 <_malloc_r>
 8006692:	b948      	cbnz	r0, 80066a8 <__smakebuf_r+0x44>
 8006694:	f9b4 300c 	ldrsh.w	r3, [r4, #12]
 8006698:	059a      	lsls	r2, r3, #22
 800669a:	d4ef      	bmi.n	800667c <__smakebuf_r+0x18>
 800669c:	f023 0303 	bic.w	r3, r3, #3
 80066a0:	f043 0302 	orr.w	r3, r3, #2
 80066a4:	81a3      	strh	r3, [r4, #12]
 80066a6:	e7e3      	b.n	8006670 <__smakebuf_r+0xc>
 80066a8:	4b0d      	ldr	r3, [pc, #52]	; (80066e0 <__smakebuf_r+0x7c>)
 80066aa:	63f3      	str	r3, [r6, #60]	; 0x3c
 80066ac:	89a3      	ldrh	r3, [r4, #12]
 80066ae:	6020      	str	r0, [r4, #0]
 80066b0:	f043 0380 	orr.w	r3, r3, #128	; 0x80
 80066b4:	81a3      	strh	r3, [r4, #12]
 80066b6:	9b00      	ldr	r3, [sp, #0]
 80066b8:	6163      	str	r3, [r4, #20]
 80066ba:	9b01      	ldr	r3, [sp, #4]
 80066bc:	6120      	str	r0, [r4, #16]
 80066be:	b15b      	cbz	r3, 80066d8 <__smakebuf_r+0x74>
 80066c0:	f9b4 100e 	ldrsh.w	r1, [r4, #14]
 80066c4:	4630      	mov	r0, r6
 80066c6:	f000 ff5f 	bl	8007588 <_isatty_r>
 80066ca:	b128      	cbz	r0, 80066d8 <__smakebuf_r+0x74>
 80066cc:	89a3      	ldrh	r3, [r4, #12]
 80066ce:	f023 0303 	bic.w	r3, r3, #3
 80066d2:	f043 0301 	orr.w	r3, r3, #1
 80066d6:	81a3      	strh	r3, [r4, #12]
 80066d8:	89a3      	ldrh	r3, [r4, #12]
 80066da:	431d      	orrs	r5, r3
 80066dc:	81a5      	strh	r5, [r4, #12]
 80066de:	e7cd      	b.n	800667c <__smakebuf_r+0x18>
 80066e0:	08006019 	.word	0x08006019

080066e4 <__ascii_mbtowc>:
 80066e4:	b082      	sub	sp, #8
 80066e6:	b901      	cbnz	r1, 80066ea <__ascii_mbtowc+0x6>
 80066e8:	a901      	add	r1, sp, #4
 80066ea:	b142      	cbz	r2, 80066fe <__ascii_mbtowc+0x1a>
 80066ec:	b14b      	cbz	r3, 8006702 <__ascii_mbtowc+0x1e>
 80066ee:	7813      	ldrb	r3, [r2, #0]
 80066f0:	600b      	str	r3, [r1, #0]
 80066f2:	7812      	ldrb	r2, [r2, #0]
 80066f4:	1c10      	adds	r0, r2, #0
 80066f6:	bf18      	it	ne
 80066f8:	2001      	movne	r0, #1
 80066fa:	b002      	add	sp, #8
 80066fc:	4770      	bx	lr
 80066fe:	4610      	mov	r0, r2
 8006700:	e7fb      	b.n	80066fa <__ascii_mbtowc+0x16>
 8006702:	f06f 0001 	mvn.w	r0, #1
 8006706:	e7f8      	b.n	80066fa <__ascii_mbtowc+0x16>

08006708 <memcpy>:
 8006708:	b510      	push	{r4, lr}
 800670a:	1e43      	subs	r3, r0, #1
 800670c:	440a      	add	r2, r1
 800670e:	4291      	cmp	r1, r2
 8006710:	d100      	bne.n	8006714 <memcpy+0xc>
 8006712:	bd10      	pop	{r4, pc}
 8006714:	f811 4b01 	ldrb.w	r4, [r1], #1
 8006718:	f803 4f01 	strb.w	r4, [r3, #1]!
 800671c:	e7f7      	b.n	800670e <memcpy+0x6>

0800671e <memmove>:
 800671e:	4288      	cmp	r0, r1
 8006720:	b510      	push	{r4, lr}
 8006722:	eb01 0302 	add.w	r3, r1, r2
 8006726:	d807      	bhi.n	8006738 <memmove+0x1a>
 8006728:	1e42      	subs	r2, r0, #1
 800672a:	4299      	cmp	r1, r3
 800672c:	d00a      	beq.n	8006744 <memmove+0x26>
 800672e:	f811 4b01 	ldrb.w	r4, [r1], #1
 8006732:	f802 4f01 	strb.w	r4, [r2, #1]!
 8006736:	e7f8      	b.n	800672a <memmove+0xc>
 8006738:	4283      	cmp	r3, r0
 800673a:	d9f5      	bls.n	8006728 <memmove+0xa>
 800673c:	1881      	adds	r1, r0, r2
 800673e:	1ad2      	subs	r2, r2, r3
 8006740:	42d3      	cmn	r3, r2
 8006742:	d100      	bne.n	8006746 <memmove+0x28>
 8006744:	bd10      	pop	{r4, pc}
 8006746:	f813 4d01 	ldrb.w	r4, [r3, #-1]!
 800674a:	f801 4d01 	strb.w	r4, [r1, #-1]!
 800674e:	e7f7      	b.n	8006740 <memmove+0x22>

08006750 <_Balloc>:
 8006750:	6cc3      	ldr	r3, [r0, #76]	; 0x4c
 8006752:	b570      	push	{r4, r5, r6, lr}
 8006754:	4605      	mov	r5, r0
 8006756:	460c      	mov	r4, r1
 8006758:	b17b      	cbz	r3, 800677a <_Balloc+0x2a>
 800675a:	6ceb      	ldr	r3, [r5, #76]	; 0x4c
 800675c:	f853 0024 	ldr.w	r0, [r3, r4, lsl #2]
 8006760:	b9a0      	cbnz	r0, 800678c <_Balloc+0x3c>
 8006762:	2101      	movs	r1, #1
 8006764:	fa01 f604 	lsl.w	r6, r1, r4
 8006768:	1d72      	adds	r2, r6, #5
 800676a:	0092      	lsls	r2, r2, #2
 800676c:	4628      	mov	r0, r5
 800676e:	f000 fdf9 	bl	8007364 <_calloc_r>
 8006772:	b148      	cbz	r0, 8006788 <_Balloc+0x38>
 8006774:	e9c0 4601 	strd	r4, r6, [r0, #4]
 8006778:	e00b      	b.n	8006792 <_Balloc+0x42>
 800677a:	2221      	movs	r2, #33	; 0x21
 800677c:	2104      	movs	r1, #4
 800677e:	f000 fdf1 	bl	8007364 <_calloc_r>
 8006782:	64e8      	str	r0, [r5, #76]	; 0x4c
 8006784:	2800      	cmp	r0, #0
 8006786:	d1e8      	bne.n	800675a <_Balloc+0xa>
 8006788:	2000      	movs	r0, #0
 800678a:	bd70      	pop	{r4, r5, r6, pc}
 800678c:	6802      	ldr	r2, [r0, #0]
 800678e:	f843 2024 	str.w	r2, [r3, r4, lsl #2]
 8006792:	2300      	movs	r3, #0
 8006794:	e9c0 3303 	strd	r3, r3, [r0, #12]
 8006798:	e7f7      	b.n	800678a <_Balloc+0x3a>

0800679a <_Bfree>:
 800679a:	b131      	cbz	r1, 80067aa <_Bfree+0x10>
 800679c:	6cc3      	ldr	r3, [r0, #76]	; 0x4c
 800679e:	684a      	ldr	r2, [r1, #4]
 80067a0:	f853 0022 	ldr.w	r0, [r3, r2, lsl #2]
 80067a4:	6008      	str	r0, [r1, #0]
 80067a6:	f843 1022 	str.w	r1, [r3, r2, lsl #2]
 80067aa:	4770      	bx	lr

080067ac <__multadd>:
 80067ac:	e92d 41f0 	stmdb	sp!, {r4, r5, r6, r7, r8, lr}
 80067b0:	690d      	ldr	r5, [r1, #16]
 80067b2:	461f      	mov	r7, r3
 80067b4:	4606      	mov	r6, r0
 80067b6:	460c      	mov	r4, r1
 80067b8:	f101 0c14 	add.w	ip, r1, #20
 80067bc:	2300      	movs	r3, #0
 80067be:	f8dc 0000 	ldr.w	r0, [ip]
 80067c2:	b281      	uxth	r1, r0
 80067c4:	fb02 7101 	mla	r1, r2, r1, r7
 80067c8:	0c0f      	lsrs	r7, r1, #16
 80067ca:	0c00      	lsrs	r0, r0, #16
 80067cc:	fb02 7000 	mla	r0, r2, r0, r7
 80067d0:	b289      	uxth	r1, r1
 80067d2:	3301      	adds	r3, #1
 80067d4:	eb01 4100 	add.w	r1, r1, r0, lsl #16
 80067d8:	429d      	cmp	r5, r3
 80067da:	ea4f 4710 	mov.w	r7, r0, lsr #16
 80067de:	f84c 1b04 	str.w	r1, [ip], #4
 80067e2:	dcec      	bgt.n	80067be <__multadd+0x12>
 80067e4:	b1d7      	cbz	r7, 800681c <__multadd+0x70>
 80067e6:	68a3      	ldr	r3, [r4, #8]
 80067e8:	42ab      	cmp	r3, r5
 80067ea:	dc12      	bgt.n	8006812 <__multadd+0x66>
 80067ec:	6861      	ldr	r1, [r4, #4]
 80067ee:	4630      	mov	r0, r6
 80067f0:	3101      	adds	r1, #1
 80067f2:	f7ff ffad 	bl	8006750 <_Balloc>
 80067f6:	6922      	ldr	r2, [r4, #16]
 80067f8:	3202      	adds	r2, #2
 80067fa:	f104 010c 	add.w	r1, r4, #12
 80067fe:	4680      	mov	r8, r0
 8006800:	0092      	lsls	r2, r2, #2
 8006802:	300c      	adds	r0, #12
 8006804:	f7ff ff80 	bl	8006708 <memcpy>
 8006808:	4621      	mov	r1, r4
 800680a:	4630      	mov	r0, r6
 800680c:	f7ff ffc5 	bl	800679a <_Bfree>
 8006810:	4644      	mov	r4, r8
 8006812:	eb04 0385 	add.w	r3, r4, r5, lsl #2
 8006816:	3501      	adds	r5, #1
 8006818:	615f      	str	r7, [r3, #20]
 800681a:	6125      	str	r5, [r4, #16]
 800681c:	4620      	mov	r0, r4
 800681e:	e8bd 81f0 	ldmia.w	sp!, {r4, r5, r6, r7, r8, pc}

08006822 <__hi0bits>:
 8006822:	0c02      	lsrs	r2, r0, #16
 8006824:	0412      	lsls	r2, r2, #16
 8006826:	4603      	mov	r3, r0
 8006828:	b9b2      	cbnz	r2, 8006858 <__hi0bits+0x36>
 800682a:	0403      	lsls	r3, r0, #16
 800682c:	2010      	movs	r0, #16
 800682e:	f013 4f7f 	tst.w	r3, #4278190080	; 0xff000000
 8006832:	bf04      	itt	eq
 8006834:	021b      	lsleq	r3, r3, #8
 8006836:	3008      	addeq	r0, #8
 8006838:	f013 4f70 	tst.w	r3, #4026531840	; 0xf0000000
 800683c:	bf04      	itt	eq
 800683e:	011b      	lsleq	r3, r3, #4
 8006840:	3004      	addeq	r0, #4
 8006842:	f013 4f40 	tst.w	r3, #3221225472	; 0xc0000000
 8006846:	bf04      	itt	eq
 8006848:	009b      	lsleq	r3, r3, #2
 800684a:	3002      	addeq	r0, #2
 800684c:	2b00      	cmp	r3, #0
 800684e:	db06      	blt.n	800685e <__hi0bits+0x3c>
 8006850:	005b      	lsls	r3, r3, #1
 8006852:	d503      	bpl.n	800685c <__hi0bits+0x3a>
 8006854:	3001      	adds	r0, #1
 8006856:	4770      	bx	lr
 8006858:	2000      	movs	r0, #0
 800685a:	e7e8      	b.n	800682e <__hi0bits+0xc>
 800685c:	2020      	movs	r0, #32
 800685e:	4770      	bx	lr

08006860 <__lo0bits>:
 8006860:	6803      	ldr	r3, [r0, #0]
 8006862:	f013 0207 	ands.w	r2, r3, #7
 8006866:	4601      	mov	r1, r0
 8006868:	d00b      	beq.n	8006882 <__lo0bits+0x22>
 800686a:	07da      	lsls	r2, r3, #31
 800686c:	d423      	bmi.n	80068b6 <__lo0bits+0x56>
 800686e:	0798      	lsls	r0, r3, #30
 8006870:	bf49      	itett	mi
 8006872:	085b      	lsrmi	r3, r3, #1
 8006874:	089b      	lsrpl	r3, r3, #2
 8006876:	2001      	movmi	r0, #1
 8006878:	600b      	strmi	r3, [r1, #0]
 800687a:	bf5c      	itt	pl
 800687c:	600b      	strpl	r3, [r1, #0]
 800687e:	2002      	movpl	r0, #2
 8006880:	4770      	bx	lr
 8006882:	b298      	uxth	r0, r3
 8006884:	b9a8      	cbnz	r0, 80068b2 <__lo0bits+0x52>
 8006886:	0c1b      	lsrs	r3, r3, #16
 8006888:	2010      	movs	r0, #16
 800688a:	f013 0fff 	tst.w	r3, #255	; 0xff
 800688e:	bf04      	itt	eq
 8006890:	0a1b      	lsreq	r3, r3, #8
 8006892:	3008      	addeq	r0, #8
 8006894:	071a      	lsls	r2, r3, #28
 8006896:	bf04      	itt	eq
 8006898:	091b      	lsreq	r3, r3, #4
 800689a:	3004      	addeq	r0, #4
 800689c:	079a      	lsls	r2, r3, #30
 800689e:	bf04      	itt	eq
 80068a0:	089b      	lsreq	r3, r3, #2
 80068a2:	3002      	addeq	r0, #2
 80068a4:	07da      	lsls	r2, r3, #31
 80068a6:	d402      	bmi.n	80068ae <__lo0bits+0x4e>
 80068a8:	085b      	lsrs	r3, r3, #1
 80068aa:	d006      	beq.n	80068ba <__lo0bits+0x5a>
 80068ac:	3001      	adds	r0, #1
 80068ae:	600b      	str	r3, [r1, #0]
 80068b0:	4770      	bx	lr
 80068b2:	4610      	mov	r0, r2
 80068b4:	e7e9      	b.n	800688a <__lo0bits+0x2a>
 80068b6:	2000      	movs	r0, #0
 80068b8:	4770      	bx	lr
 80068ba:	2020      	movs	r0, #32
 80068bc:	4770      	bx	lr

080068be <__i2b>:
 80068be:	b510      	push	{r4, lr}
 80068c0:	460c      	mov	r4, r1
 80068c2:	2101      	movs	r1, #1
 80068c4:	f7ff ff44 	bl	8006750 <_Balloc>
 80068c8:	2201      	movs	r2, #1
 80068ca:	6144      	str	r4, [r0, #20]
 80068cc:	6102      	str	r2, [r0, #16]
 80068ce:	bd10      	pop	{r4, pc}

080068d0 <__multiply>:
 80068d0:	e92d 4ff7 	stmdb	sp!, {r0, r1, r2, r4, r5, r6, r7, r8, r9, sl, fp, lr}
 80068d4:	4614      	mov	r4, r2
 80068d6:	690a      	ldr	r2, [r1, #16]
 80068d8:	6923      	ldr	r3, [r4, #16]
 80068da:	429a      	cmp	r2, r3
 80068dc:	bfb8      	it	lt
 80068de:	460b      	movlt	r3, r1
 80068e0:	4688      	mov	r8, r1
 80068e2:	bfbc      	itt	lt
 80068e4:	46a0      	movlt	r8, r4
 80068e6:	461c      	movlt	r4, r3
 80068e8:	f8d8 7010 	ldr.w	r7, [r8, #16]
 80068ec:	f8d4 9010 	ldr.w	r9, [r4, #16]
 80068f0:	f8d8 3008 	ldr.w	r3, [r8, #8]
 80068f4:	f8d8 1004 	ldr.w	r1, [r8, #4]
 80068f8:	eb07 0609 	add.w	r6, r7, r9
 80068fc:	42b3      	cmp	r3, r6
 80068fe:	bfb8      	it	lt
 8006900:	3101      	addlt	r1, #1
 8006902:	f7ff ff25 	bl	8006750 <_Balloc>
 8006906:	f100 0514 	add.w	r5, r0, #20
 800690a:	eb05 0e86 	add.w	lr, r5, r6, lsl #2
 800690e:	462b      	mov	r3, r5
 8006910:	2200      	movs	r2, #0
 8006912:	4573      	cmp	r3, lr
 8006914:	d316      	bcc.n	8006944 <__multiply+0x74>
 8006916:	f104 0214 	add.w	r2, r4, #20
 800691a:	f108 0114 	add.w	r1, r8, #20
 800691e:	eb02 0389 	add.w	r3, r2, r9, lsl #2
 8006922:	eb01 0787 	add.w	r7, r1, r7, lsl #2
 8006926:	9300      	str	r3, [sp, #0]
 8006928:	9b00      	ldr	r3, [sp, #0]
 800692a:	9201      	str	r2, [sp, #4]
 800692c:	4293      	cmp	r3, r2
 800692e:	d80c      	bhi.n	800694a <__multiply+0x7a>
 8006930:	2e00      	cmp	r6, #0
 8006932:	dd03      	ble.n	800693c <__multiply+0x6c>
 8006934:	f85e 3d04 	ldr.w	r3, [lr, #-4]!
 8006938:	2b00      	cmp	r3, #0
 800693a:	d05d      	beq.n	80069f8 <__multiply+0x128>
 800693c:	6106      	str	r6, [r0, #16]
 800693e:	b003      	add	sp, #12
 8006940:	e8bd 8ff0 	ldmia.w	sp!, {r4, r5, r6, r7, r8, r9, sl, fp, pc}
 8006944:	f843 2b04 	str.w	r2, [r3], #4
 8006948:	e7e3      	b.n	8006912 <__multiply+0x42>
 800694a:	f8b2 b000 	ldrh.w	fp, [r2]
 800694e:	f1bb 0f00 	cmp.w	fp, #0
 8006952:	d023      	beq.n	800699c <__multiply+0xcc>
 8006954:	4689      	mov	r9, r1
 8006956:	46ac      	mov	ip, r5
 8006958:	f04f 0800 	mov.w	r8, #0
 800695c:	f859 4b04 	ldr.w	r4, [r9], #4
 8006960:	f8dc a000 	ldr.w	sl, [ip]
 8006964:	b2a3      	uxth	r3, r4
 8006966:	fa1f fa8a 	uxth.w	sl, sl
 800696a:	fb0b a303 	mla	r3, fp, r3, sl
 800696e:	ea4f 4a14 	mov.w	sl, r4, lsr #16
 8006972:	f8dc 4000 	ldr.w	r4, [ip]
 8006976:	4443      	add	r3, r8
 8006978:	ea4f 4814 	mov.w	r8, r4, lsr #16
 800697c:	fb0b 840a 	mla	r4, fp, sl, r8
 8006980:	eb04 4413 	add.w	r4, r4, r3, lsr #16
 8006984:	46e2      	mov	sl, ip
 8006986:	b29b      	uxth	r3, r3
 8006988:	ea43 4304 	orr.w	r3, r3, r4, lsl #16
 800698c:	454f      	cmp	r7, r9
 800698e:	ea4f 4814 	mov.w	r8, r4, lsr #16
 8006992:	f84a 3b04 	str.w	r3, [sl], #4
 8006996:	d82b      	bhi.n	80069f0 <__multiply+0x120>
 8006998:	f8cc 8004 	str.w	r8, [ip, #4]
 800699c:	9b01      	ldr	r3, [sp, #4]
 800699e:	f8b3 a002 	ldrh.w	sl, [r3, #2]
 80069a2:	3204      	adds	r2, #4
 80069a4:	f1ba 0f00 	cmp.w	sl, #0
 80069a8:	d020      	beq.n	80069ec <__multiply+0x11c>
 80069aa:	682b      	ldr	r3, [r5, #0]
 80069ac:	4689      	mov	r9, r1
 80069ae:	46a8      	mov	r8, r5
 80069b0:	f04f 0b00 	mov.w	fp, #0
 80069b4:	f8b9 c000 	ldrh.w	ip, [r9]
 80069b8:	f8b8 4002 	ldrh.w	r4, [r8, #2]
 80069bc:	fb0a 440c 	mla	r4, sl, ip, r4
 80069c0:	445c      	add	r4, fp
 80069c2:	46c4      	mov	ip, r8
 80069c4:	b29b      	uxth	r3, r3
 80069c6:	ea43 4304 	orr.w	r3, r3, r4, lsl #16
 80069ca:	f84c 3b04 	str.w	r3, [ip], #4
 80069ce:	f859 3b04 	ldr.w	r3, [r9], #4
 80069d2:	f8b8 b004 	ldrh.w	fp, [r8, #4]
 80069d6:	0c1b      	lsrs	r3, r3, #16
 80069d8:	fb0a b303 	mla	r3, sl, r3, fp
 80069dc:	eb03 4314 	add.w	r3, r3, r4, lsr #16
 80069e0:	454f      	cmp	r7, r9
 80069e2:	ea4f 4b13 	mov.w	fp, r3, lsr #16
 80069e6:	d805      	bhi.n	80069f4 <__multiply+0x124>
 80069e8:	f8c8 3004 	str.w	r3, [r8, #4]
 80069ec:	3504      	adds	r5, #4
 80069ee:	e79b      	b.n	8006928 <__multiply+0x58>
 80069f0:	46d4      	mov	ip, sl
 80069f2:	e7b3      	b.n	800695c <__multiply+0x8c>
 80069f4:	46e0      	mov	r8, ip
 80069f6:	e7dd      	b.n	80069b4 <__multiply+0xe4>
 80069f8:	3e01      	subs	r6, #1
 80069fa:	e799      	b.n	8006930 <__multiply+0x60>

080069fc <__pow5mult>:
 80069fc:	e92d 43f8 	stmdb	sp!, {r3, r4, r5, r6, r7, r8, r9, lr}
 8006a00:	4615      	mov	r5, r2
 8006a02:	f012 0203 	ands.w	r2, r2, #3
 8006a06:	4606      	mov	r6, r0
 8006a08:	460f      	mov	r7, r1
 8006a0a:	d007      	beq.n	8006a1c <__pow5mult+0x20>
 8006a0c:	3a01      	subs	r2, #1
 8006a0e:	4c1a      	ldr	r4, [pc, #104]	; (8006a78 <__pow5mult+0x7c>)
 8006a10:	2300      	movs	r3, #0
 8006a12:	f854 2022 	ldr.w	r2, [r4, r2, lsl #2]
 8006a16:	f7ff fec9 	bl	80067ac <__multadd>
 8006a1a:	4607      	mov	r7, r0
 8006a1c:	10ad      	asrs	r5, r5, #2
 8006a1e:	d027      	beq.n	8006a70 <__pow5mult+0x74>
 8006a20:	6cb4      	ldr	r4, [r6, #72]	; 0x48
 8006a22:	b944      	cbnz	r4, 8006a36 <__pow5mult+0x3a>
 8006a24:	f240 2171 	movw	r1, #625	; 0x271
 8006a28:	4630      	mov	r0, r6
 8006a2a:	f7ff ff48 	bl	80068be <__i2b>
 8006a2e:	2300      	movs	r3, #0
 8006a30:	64b0      	str	r0, [r6, #72]	; 0x48
 8006a32:	4604      	mov	r4, r0
 8006a34:	6003      	str	r3, [r0, #0]
 8006a36:	f04f 0800 	mov.w	r8, #0
 8006a3a:	07eb      	lsls	r3, r5, #31
 8006a3c:	d50a      	bpl.n	8006a54 <__pow5mult+0x58>
 8006a3e:	4639      	mov	r1, r7
 8006a40:	4622      	mov	r2, r4
 8006a42:	4630      	mov	r0, r6
 8006a44:	f7ff ff44 	bl	80068d0 <__multiply>
 8006a48:	4639      	mov	r1, r7
 8006a4a:	4681      	mov	r9, r0
 8006a4c:	4630      	mov	r0, r6
 8006a4e:	f7ff fea4 	bl	800679a <_Bfree>
 8006a52:	464f      	mov	r7, r9
 8006a54:	106d      	asrs	r5, r5, #1
 8006a56:	d00b      	beq.n	8006a70 <__pow5mult+0x74>
 8006a58:	6820      	ldr	r0, [r4, #0]
 8006a5a:	b938      	cbnz	r0, 8006a6c <__pow5mult+0x70>
 8006a5c:	4622      	mov	r2, r4
 8006a5e:	4621      	mov	r1, r4
 8006a60:	4630      	mov	r0, r6
 8006a62:	f7ff ff35 	bl	80068d0 <__multiply>
 8006a66:	6020      	str	r0, [r4, #0]
 8006a68:	f8c0 8000 	str.w	r8, [r0]
 8006a6c:	4604      	mov	r4, r0
 8006a6e:	e7e4      	b.n	8006a3a <__pow5mult+0x3e>
 8006a70:	4638      	mov	r0, r7
 8006a72:	e8bd 83f8 	ldmia.w	sp!, {r3, r4, r5, r6, r7, r8, r9, pc}
 8006a76:	bf00      	nop
 8006a78:	08007910 	.word	0x08007910

08006a7c <__lshift>:
 8006a7c:	e92d 47f0 	stmdb	sp!, {r4, r5, r6, r7, r8, r9, sl, lr}
 8006a80:	460c      	mov	r4, r1
 8006a82:	ea4f 1a62 	mov.w	sl, r2, asr #5
 8006a86:	6923      	ldr	r3, [r4, #16]
 8006a88:	6849      	ldr	r1, [r1, #4]
 8006a8a:	eb0a 0903 	add.w	r9, sl, r3
 8006a8e:	68a3      	ldr	r3, [r4, #8]
 8006a90:	4607      	mov	r7, r0
 8006a92:	4616      	mov	r6, r2
 8006a94:	f109 0501 	add.w	r5, r9, #1
 8006a98:	42ab      	cmp	r3, r5
 8006a9a:	db32      	blt.n	8006b02 <__lshift+0x86>
 8006a9c:	4638      	mov	r0, r7
 8006a9e:	f7ff fe57 	bl	8006750 <_Balloc>
 8006aa2:	2300      	movs	r3, #0
 8006aa4:	4680      	mov	r8, r0
 8006aa6:	f100 0114 	add.w	r1, r0, #20
 8006aaa:	461a      	mov	r2, r3
 8006aac:	4553      	cmp	r3, sl
 8006aae:	db2b      	blt.n	8006b08 <__lshift+0x8c>
 8006ab0:	6920      	ldr	r0, [r4, #16]
 8006ab2:	ea2a 7aea 	bic.w	sl, sl, sl, asr #31
 8006ab6:	f104 0314 	add.w	r3, r4, #20
 8006aba:	f016 021f 	ands.w	r2, r6, #31
 8006abe:	eb01 018a 	add.w	r1, r1, sl, lsl #2
 8006ac2:	eb03 0c80 	add.w	ip, r3, r0, lsl #2
 8006ac6:	d025      	beq.n	8006b14 <__lshift+0x98>
 8006ac8:	f1c2 0e20 	rsb	lr, r2, #32
 8006acc:	2000      	movs	r0, #0
 8006ace:	681e      	ldr	r6, [r3, #0]
 8006ad0:	468a      	mov	sl, r1
 8006ad2:	4096      	lsls	r6, r2
 8006ad4:	4330      	orrs	r0, r6
 8006ad6:	f84a 0b04 	str.w	r0, [sl], #4
 8006ada:	f853 0b04 	ldr.w	r0, [r3], #4
 8006ade:	459c      	cmp	ip, r3
 8006ae0:	fa20 f00e 	lsr.w	r0, r0, lr
 8006ae4:	d814      	bhi.n	8006b10 <__lshift+0x94>
 8006ae6:	6048      	str	r0, [r1, #4]
 8006ae8:	b108      	cbz	r0, 8006aee <__lshift+0x72>
 8006aea:	f109 0502 	add.w	r5, r9, #2
 8006aee:	3d01      	subs	r5, #1
 8006af0:	4638      	mov	r0, r7
 8006af2:	f8c8 5010 	str.w	r5, [r8, #16]
 8006af6:	4621      	mov	r1, r4
 8006af8:	f7ff fe4f 	bl	800679a <_Bfree>
 8006afc:	4640      	mov	r0, r8
 8006afe:	e8bd 87f0 	ldmia.w	sp!, {r4, r5, r6, r7, r8, r9, sl, pc}
 8006b02:	3101      	adds	r1, #1
 8006b04:	005b      	lsls	r3, r3, #1
 8006b06:	e7c7      	b.n	8006a98 <__lshift+0x1c>
 8006b08:	f841 2023 	str.w	r2, [r1, r3, lsl #2]
 8006b0c:	3301      	adds	r3, #1
 8006b0e:	e7cd      	b.n	8006aac <__lshift+0x30>
 8006b10:	4651      	mov	r1, sl
 8006b12:	e7dc      	b.n	8006ace <__lshift+0x52>
 8006b14:	3904      	subs	r1, #4
 8006b16:	f853 2b04 	ldr.w	r2, [r3], #4
 8006b1a:	f841 2f04 	str.w	r2, [r1, #4]!
 8006b1e:	459c      	cmp	ip, r3
 8006b20:	d8f9      	bhi.n	8006b16 <__lshift+0x9a>
 8006b22:	e7e4      	b.n	8006aee <__lshift+0x72>

08006b24 <__mcmp>:
 8006b24:	6903      	ldr	r3, [r0, #16]
 8006b26:	690a      	ldr	r2, [r1, #16]
 8006b28:	1a9b      	subs	r3, r3, r2
 8006b2a:	b530      	push	{r4, r5, lr}
 8006b2c:	d10c      	bne.n	8006b48 <__mcmp+0x24>
 8006b2e:	0092      	lsls	r2, r2, #2
 8006b30:	3014      	adds	r0, #20
 8006b32:	3114      	adds	r1, #20
 8006b34:	1884      	adds	r4, r0, r2
 8006b36:	4411      	add	r1, r2
 8006b38:	f854 5d04 	ldr.w	r5, [r4, #-4]!
 8006b3c:	f851 2d04 	ldr.w	r2, [r1, #-4]!
 8006b40:	4295      	cmp	r5, r2
 8006b42:	d003      	beq.n	8006b4c <__mcmp+0x28>
 8006b44:	d305      	bcc.n	8006b52 <__mcmp+0x2e>
 8006b46:	2301      	movs	r3, #1
 8006b48:	4618      	mov	r0, r3
 8006b4a:	bd30      	pop	{r4, r5, pc}
 8006b4c:	42a0      	cmp	r0, r4
 8006b4e:	d3f3      	bcc.n	8006b38 <__mcmp+0x14>
 8006b50:	e7fa      	b.n	8006b48 <__mcmp+0x24>
 8006b52:	f04f 33ff 	mov.w	r3, #4294967295	; 0xffffffff
 8006b56:	e7f7      	b.n	8006b48 <__mcmp+0x24>

08006b58 <__mdiff>:
 8006b58:	e92d 47f0 	stmdb	sp!, {r4, r5, r6, r7, r8, r9, sl, lr}
 8006b5c:	460d      	mov	r5, r1
 8006b5e:	4607      	mov	r7, r0
 8006b60:	4611      	mov	r1, r2
 8006b62:	4628      	mov	r0, r5
 8006b64:	4614      	mov	r4, r2
 8006b66:	f7ff ffdd 	bl	8006b24 <__mcmp>
 8006b6a:	1e06      	subs	r6, r0, #0
 8006b6c:	d108      	bne.n	8006b80 <__mdiff+0x28>
 8006b6e:	4631      	mov	r1, r6
 8006b70:	4638      	mov	r0, r7
 8006b72:	f7ff fded 	bl	8006750 <_Balloc>
 8006b76:	2301      	movs	r3, #1
 8006b78:	e9c0 3604 	strd	r3, r6, [r0, #16]
 8006b7c:	e8bd 87f0 	ldmia.w	sp!, {r4, r5, r6, r7, r8, r9, sl, pc}
 8006b80:	bfa4      	itt	ge
 8006b82:	4623      	movge	r3, r4
 8006b84:	462c      	movge	r4, r5
 8006b86:	4638      	mov	r0, r7
 8006b88:	6861      	ldr	r1, [r4, #4]
 8006b8a:	bfa6      	itte	ge
 8006b8c:	461d      	movge	r5, r3
 8006b8e:	2600      	movge	r6, #0
 8006b90:	2601      	movlt	r6, #1
 8006b92:	f7ff fddd 	bl	8006750 <_Balloc>
 8006b96:	692b      	ldr	r3, [r5, #16]
 8006b98:	60c6      	str	r6, [r0, #12]
 8006b9a:	6926      	ldr	r6, [r4, #16]
 8006b9c:	f105 0914 	add.w	r9, r5, #20
 8006ba0:	f104 0214 	add.w	r2, r4, #20
 8006ba4:	eb02 0786 	add.w	r7, r2, r6, lsl #2
 8006ba8:	eb09 0883 	add.w	r8, r9, r3, lsl #2
 8006bac:	f100 0514 	add.w	r5, r0, #20
 8006bb0:	f04f 0e00 	mov.w	lr, #0
 8006bb4:	f852 ab04 	ldr.w	sl, [r2], #4
 8006bb8:	f859 4b04 	ldr.w	r4, [r9], #4
 8006bbc:	fa1e f18a 	uxtah	r1, lr, sl
 8006bc0:	b2a3      	uxth	r3, r4
 8006bc2:	1ac9      	subs	r1, r1, r3
 8006bc4:	0c23      	lsrs	r3, r4, #16
 8006bc6:	ebc3 431a 	rsb	r3, r3, sl, lsr #16
 8006bca:	eb03 4321 	add.w	r3, r3, r1, asr #16
 8006bce:	b289      	uxth	r1, r1
 8006bd0:	ea4f 4e23 	mov.w	lr, r3, asr #16
 8006bd4:	45c8      	cmp	r8, r9
 8006bd6:	ea41 4303 	orr.w	r3, r1, r3, lsl #16
 8006bda:	4694      	mov	ip, r2
 8006bdc:	f845 3b04 	str.w	r3, [r5], #4
 8006be0:	d8e8      	bhi.n	8006bb4 <__mdiff+0x5c>
 8006be2:	45bc      	cmp	ip, r7
 8006be4:	d304      	bcc.n	8006bf0 <__mdiff+0x98>
 8006be6:	f855 3d04 	ldr.w	r3, [r5, #-4]!
 8006bea:	b183      	cbz	r3, 8006c0e <__mdiff+0xb6>
 8006bec:	6106      	str	r6, [r0, #16]
 8006bee:	e7c5      	b.n	8006b7c <__mdiff+0x24>
 8006bf0:	f85c 1b04 	ldr.w	r1, [ip], #4
 8006bf4:	fa1e f381 	uxtah	r3, lr, r1
 8006bf8:	141a      	asrs	r2, r3, #16
 8006bfa:	eb02 4211 	add.w	r2, r2, r1, lsr #16
 8006bfe:	b29b      	uxth	r3, r3
 8006c00:	ea43 4302 	orr.w	r3, r3, r2, lsl #16
 8006c04:	ea4f 4e22 	mov.w	lr, r2, asr #16
 8006c08:	f845 3b04 	str.w	r3, [r5], #4
 8006c0c:	e7e9      	b.n	8006be2 <__mdiff+0x8a>
 8006c0e:	3e01      	subs	r6, #1
 8006c10:	e7e9      	b.n	8006be6 <__mdiff+0x8e>

08006c12 <__d2b>:
 8006c12:	e92d 43f7 	stmdb	sp!, {r0, r1, r2, r4, r5, r6, r7, r8, r9, lr}
 8006c16:	460e      	mov	r6, r1
 8006c18:	2101      	movs	r1, #1
 8006c1a:	ec59 8b10 	vmov	r8, r9, d0
 8006c1e:	4615      	mov	r5, r2
 8006c20:	f7ff fd96 	bl	8006750 <_Balloc>
 8006c24:	f3c9 540a 	ubfx	r4, r9, #20, #11
 8006c28:	4607      	mov	r7, r0
 8006c2a:	f3c9 0313 	ubfx	r3, r9, #0, #20
 8006c2e:	bb34      	cbnz	r4, 8006c7e <__d2b+0x6c>
 8006c30:	9301      	str	r3, [sp, #4]
 8006c32:	f1b8 0300 	subs.w	r3, r8, #0
 8006c36:	d027      	beq.n	8006c88 <__d2b+0x76>
 8006c38:	a802      	add	r0, sp, #8
 8006c3a:	f840 3d08 	str.w	r3, [r0, #-8]!
 8006c3e:	f7ff fe0f 	bl	8006860 <__lo0bits>
 8006c42:	9900      	ldr	r1, [sp, #0]
 8006c44:	b1f0      	cbz	r0, 8006c84 <__d2b+0x72>
 8006c46:	9a01      	ldr	r2, [sp, #4]
 8006c48:	f1c0 0320 	rsb	r3, r0, #32
 8006c4c:	fa02 f303 	lsl.w	r3, r2, r3
 8006c50:	430b      	orrs	r3, r1
 8006c52:	40c2      	lsrs	r2, r0
 8006c54:	617b      	str	r3, [r7, #20]
 8006c56:	9201      	str	r2, [sp, #4]
 8006c58:	9b01      	ldr	r3, [sp, #4]
 8006c5a:	61bb      	str	r3, [r7, #24]
 8006c5c:	2b00      	cmp	r3, #0
 8006c5e:	bf14      	ite	ne
 8006c60:	2102      	movne	r1, #2
 8006c62:	2101      	moveq	r1, #1
 8006c64:	6139      	str	r1, [r7, #16]
 8006c66:	b1c4      	cbz	r4, 8006c9a <__d2b+0x88>
 8006c68:	f2a4 4433 	subw	r4, r4, #1075	; 0x433
 8006c6c:	4404      	add	r4, r0
 8006c6e:	6034      	str	r4, [r6, #0]
 8006c70:	f1c0 0035 	rsb	r0, r0, #53	; 0x35
 8006c74:	6028      	str	r0, [r5, #0]
 8006c76:	4638      	mov	r0, r7
 8006c78:	b003      	add	sp, #12
 8006c7a:	e8bd 83f0 	ldmia.w	sp!, {r4, r5, r6, r7, r8, r9, pc}
 8006c7e:	f443 1380 	orr.w	r3, r3, #1048576	; 0x100000
 8006c82:	e7d5      	b.n	8006c30 <__d2b+0x1e>
 8006c84:	6179      	str	r1, [r7, #20]
 8006c86:	e7e7      	b.n	8006c58 <__d2b+0x46>
 8006c88:	a801      	add	r0, sp, #4
 8006c8a:	f7ff fde9 	bl	8006860 <__lo0bits>
 8006c8e:	9b01      	ldr	r3, [sp, #4]
 8006c90:	617b      	str	r3, [r7, #20]
 8006c92:	2101      	movs	r1, #1
 8006c94:	6139      	str	r1, [r7, #16]
 8006c96:	3020      	adds	r0, #32
 8006c98:	e7e5      	b.n	8006c66 <__d2b+0x54>
 8006c9a:	eb07 0381 	add.w	r3, r7, r1, lsl #2
 8006c9e:	f2a0 4032 	subw	r0, r0, #1074	; 0x432
 8006ca2:	6030      	str	r0, [r6, #0]
 8006ca4:	6918      	ldr	r0, [r3, #16]
 8006ca6:	f7ff fdbc 	bl	8006822 <__hi0bits>
 8006caa:	ebc0 1041 	rsb	r0, r0, r1, lsl #5
 8006cae:	e7e1      	b.n	8006c74 <__d2b+0x62>

08006cb0 <_putc_r>:
 8006cb0:	b570      	push	{r4, r5, r6, lr}
 8006cb2:	460d      	mov	r5, r1
 8006cb4:	4614      	mov	r4, r2
 8006cb6:	4606      	mov	r6, r0
 8006cb8:	b118      	cbz	r0, 8006cc2 <_putc_r+0x12>
 8006cba:	6b83      	ldr	r3, [r0, #56]	; 0x38
 8006cbc:	b90b      	cbnz	r3, 8006cc2 <_putc_r+0x12>
 8006cbe:	f7ff f9c9 	bl	8006054 <__sinit>
 8006cc2:	6e63      	ldr	r3, [r4, #100]	; 0x64
 8006cc4:	07d8      	lsls	r0, r3, #31
 8006cc6:	d405      	bmi.n	8006cd4 <_putc_r+0x24>
 8006cc8:	89a3      	ldrh	r3, [r4, #12]
 8006cca:	0599      	lsls	r1, r3, #22
 8006ccc:	d402      	bmi.n	8006cd4 <_putc_r+0x24>
 8006cce:	6da0      	ldr	r0, [r4, #88]	; 0x58
 8006cd0:	f7ff fc9a 	bl	8006608 <__retarget_lock_acquire_recursive>
 8006cd4:	68a3      	ldr	r3, [r4, #8]
 8006cd6:	3b01      	subs	r3, #1
 8006cd8:	2b00      	cmp	r3, #0
 8006cda:	60a3      	str	r3, [r4, #8]
 8006cdc:	da05      	bge.n	8006cea <_putc_r+0x3a>
 8006cde:	69a2      	ldr	r2, [r4, #24]
 8006ce0:	4293      	cmp	r3, r2
 8006ce2:	db12      	blt.n	8006d0a <_putc_r+0x5a>
 8006ce4:	b2eb      	uxtb	r3, r5
 8006ce6:	2b0a      	cmp	r3, #10
 8006ce8:	d00f      	beq.n	8006d0a <_putc_r+0x5a>
 8006cea:	6823      	ldr	r3, [r4, #0]
 8006cec:	1c5a      	adds	r2, r3, #1
 8006cee:	6022      	str	r2, [r4, #0]
 8006cf0:	701d      	strb	r5, [r3, #0]
 8006cf2:	b2ed      	uxtb	r5, r5
 8006cf4:	6e63      	ldr	r3, [r4, #100]	; 0x64
 8006cf6:	07da      	lsls	r2, r3, #31
 8006cf8:	d405      	bmi.n	8006d06 <_putc_r+0x56>
 8006cfa:	89a3      	ldrh	r3, [r4, #12]
 8006cfc:	059b      	lsls	r3, r3, #22
 8006cfe:	d402      	bmi.n	8006d06 <_putc_r+0x56>
 8006d00:	6da0      	ldr	r0, [r4, #88]	; 0x58
 8006d02:	f7ff fc82 	bl	800660a <__retarget_lock_release_recursive>
 8006d06:	4628      	mov	r0, r5
 8006d08:	bd70      	pop	{r4, r5, r6, pc}
 8006d0a:	4629      	mov	r1, r5
 8006d0c:	4622      	mov	r2, r4
 8006d0e:	4630      	mov	r0, r6
 8006d10:	f000 fa6a 	bl	80071e8 <__swbuf_r>
 8006d14:	4605      	mov	r5, r0
 8006d16:	e7ed      	b.n	8006cf4 <_putc_r+0x44>

08006d18 <_realloc_r>:
 8006d18:	e92d 4ff7 	stmdb	sp!, {r0, r1, r2, r4, r5, r6, r7, r8, r9, sl, fp, lr}
 8006d1c:	4682      	mov	sl, r0
 8006d1e:	460c      	mov	r4, r1
 8006d20:	b929      	cbnz	r1, 8006d2e <_realloc_r+0x16>
 8006d22:	4611      	mov	r1, r2
 8006d24:	b003      	add	sp, #12
 8006d26:	e8bd 4ff0 	ldmia.w	sp!, {r4, r5, r6, r7, r8, r9, sl, fp, lr}
 8006d2a:	f7fc bbd3 	b.w	80034d4 <_malloc_r>
 8006d2e:	9201      	str	r2, [sp, #4]
 8006d30:	f7fc fe0e 	bl	8003950 <__malloc_lock>
 8006d34:	9a01      	ldr	r2, [sp, #4]
 8006d36:	f854 5c04 	ldr.w	r5, [r4, #-4]
 8006d3a:	f102 080b 	add.w	r8, r2, #11
 8006d3e:	f1b8 0f16 	cmp.w	r8, #22
 8006d42:	f1a4 0908 	sub.w	r9, r4, #8
 8006d46:	f025 0603 	bic.w	r6, r5, #3
 8006d4a:	d90b      	bls.n	8006d64 <_realloc_r+0x4c>
 8006d4c:	f038 0807 	bics.w	r8, r8, #7
 8006d50:	d50a      	bpl.n	8006d68 <_realloc_r+0x50>
 8006d52:	230c      	movs	r3, #12
 8006d54:	f8ca 3000 	str.w	r3, [sl]
 8006d58:	f04f 0b00 	mov.w	fp, #0
 8006d5c:	4658      	mov	r0, fp
 8006d5e:	b003      	add	sp, #12
 8006d60:	e8bd 8ff0 	ldmia.w	sp!, {r4, r5, r6, r7, r8, r9, sl, fp, pc}
 8006d64:	f04f 0810 	mov.w	r8, #16
 8006d68:	4590      	cmp	r8, r2
 8006d6a:	d3f2      	bcc.n	8006d52 <_realloc_r+0x3a>
 8006d6c:	45b0      	cmp	r8, r6
 8006d6e:	f340 8170 	ble.w	8007052 <_realloc_r+0x33a>
 8006d72:	49a9      	ldr	r1, [pc, #676]	; (8007018 <_realloc_r+0x300>)
 8006d74:	9101      	str	r1, [sp, #4]
 8006d76:	f8d1 c008 	ldr.w	ip, [r1, #8]
 8006d7a:	eb09 0306 	add.w	r3, r9, r6
 8006d7e:	459c      	cmp	ip, r3
 8006d80:	6858      	ldr	r0, [r3, #4]
 8006d82:	d005      	beq.n	8006d90 <_realloc_r+0x78>
 8006d84:	f020 0101 	bic.w	r1, r0, #1
 8006d88:	4419      	add	r1, r3
 8006d8a:	6849      	ldr	r1, [r1, #4]
 8006d8c:	07cf      	lsls	r7, r1, #31
 8006d8e:	d447      	bmi.n	8006e20 <_realloc_r+0x108>
 8006d90:	f020 0003 	bic.w	r0, r0, #3
 8006d94:	459c      	cmp	ip, r3
 8006d96:	eb06 0700 	add.w	r7, r6, r0
 8006d9a:	d119      	bne.n	8006dd0 <_realloc_r+0xb8>
 8006d9c:	f108 0110 	add.w	r1, r8, #16
 8006da0:	42b9      	cmp	r1, r7
 8006da2:	dc3f      	bgt.n	8006e24 <_realloc_r+0x10c>
 8006da4:	eb09 0308 	add.w	r3, r9, r8
 8006da8:	9a01      	ldr	r2, [sp, #4]
 8006daa:	eba7 0708 	sub.w	r7, r7, r8
 8006dae:	f047 0701 	orr.w	r7, r7, #1
 8006db2:	6093      	str	r3, [r2, #8]
 8006db4:	605f      	str	r7, [r3, #4]
 8006db6:	f854 3c04 	ldr.w	r3, [r4, #-4]
 8006dba:	f003 0301 	and.w	r3, r3, #1
 8006dbe:	ea43 0308 	orr.w	r3, r3, r8
 8006dc2:	f844 3c04 	str.w	r3, [r4, #-4]
 8006dc6:	4650      	mov	r0, sl
 8006dc8:	f7fc fdc8 	bl	800395c <__malloc_unlock>
 8006dcc:	46a3      	mov	fp, r4
 8006dce:	e7c5      	b.n	8006d5c <_realloc_r+0x44>
 8006dd0:	45b8      	cmp	r8, r7
 8006dd2:	dc27      	bgt.n	8006e24 <_realloc_r+0x10c>
 8006dd4:	e9d3 3202 	ldrd	r3, r2, [r3, #8]
 8006dd8:	60da      	str	r2, [r3, #12]
 8006dda:	6093      	str	r3, [r2, #8]
 8006ddc:	eba7 0008 	sub.w	r0, r7, r8
 8006de0:	f8d9 2004 	ldr.w	r2, [r9, #4]
 8006de4:	280f      	cmp	r0, #15
 8006de6:	f002 0201 	and.w	r2, r2, #1
 8006dea:	eb09 0307 	add.w	r3, r9, r7
 8006dee:	f240 8132 	bls.w	8007056 <_realloc_r+0x33e>
 8006df2:	eb09 0108 	add.w	r1, r9, r8
 8006df6:	ea48 0202 	orr.w	r2, r8, r2
 8006dfa:	f040 0001 	orr.w	r0, r0, #1
 8006dfe:	f8c9 2004 	str.w	r2, [r9, #4]
 8006e02:	6048      	str	r0, [r1, #4]
 8006e04:	685a      	ldr	r2, [r3, #4]
 8006e06:	f042 0201 	orr.w	r2, r2, #1
 8006e0a:	605a      	str	r2, [r3, #4]
 8006e0c:	3108      	adds	r1, #8
 8006e0e:	4650      	mov	r0, sl
 8006e10:	f7ff f9b0 	bl	8006174 <_free_r>
 8006e14:	4650      	mov	r0, sl
 8006e16:	f7fc fda1 	bl	800395c <__malloc_unlock>
 8006e1a:	f109 0b08 	add.w	fp, r9, #8
 8006e1e:	e79d      	b.n	8006d5c <_realloc_r+0x44>
 8006e20:	2000      	movs	r0, #0
 8006e22:	4603      	mov	r3, r0
 8006e24:	07e9      	lsls	r1, r5, #31
 8006e26:	f100 80c6 	bmi.w	8006fb6 <_realloc_r+0x29e>
 8006e2a:	f854 5c08 	ldr.w	r5, [r4, #-8]
 8006e2e:	eba9 0505 	sub.w	r5, r9, r5
 8006e32:	6869      	ldr	r1, [r5, #4]
 8006e34:	f021 0103 	bic.w	r1, r1, #3
 8006e38:	eb01 0b06 	add.w	fp, r1, r6
 8006e3c:	2b00      	cmp	r3, #0
 8006e3e:	f000 8086 	beq.w	8006f4e <_realloc_r+0x236>
 8006e42:	459c      	cmp	ip, r3
 8006e44:	eb00 070b 	add.w	r7, r0, fp
 8006e48:	d149      	bne.n	8006ede <_realloc_r+0x1c6>
 8006e4a:	f108 0310 	add.w	r3, r8, #16
 8006e4e:	42bb      	cmp	r3, r7
 8006e50:	dc7d      	bgt.n	8006f4e <_realloc_r+0x236>
 8006e52:	46ab      	mov	fp, r5
 8006e54:	68eb      	ldr	r3, [r5, #12]
 8006e56:	f85b 2f08 	ldr.w	r2, [fp, #8]!
 8006e5a:	60d3      	str	r3, [r2, #12]
 8006e5c:	609a      	str	r2, [r3, #8]
 8006e5e:	1f32      	subs	r2, r6, #4
 8006e60:	2a24      	cmp	r2, #36	; 0x24
 8006e62:	d837      	bhi.n	8006ed4 <_realloc_r+0x1bc>
 8006e64:	2a13      	cmp	r2, #19
 8006e66:	d933      	bls.n	8006ed0 <_realloc_r+0x1b8>
 8006e68:	6823      	ldr	r3, [r4, #0]
 8006e6a:	60ab      	str	r3, [r5, #8]
 8006e6c:	6863      	ldr	r3, [r4, #4]
 8006e6e:	60eb      	str	r3, [r5, #12]
 8006e70:	2a1b      	cmp	r2, #27
 8006e72:	d81b      	bhi.n	8006eac <_realloc_r+0x194>
 8006e74:	3408      	adds	r4, #8
 8006e76:	f105 0310 	add.w	r3, r5, #16
 8006e7a:	6822      	ldr	r2, [r4, #0]
 8006e7c:	601a      	str	r2, [r3, #0]
 8006e7e:	6862      	ldr	r2, [r4, #4]
 8006e80:	605a      	str	r2, [r3, #4]
 8006e82:	68a2      	ldr	r2, [r4, #8]
 8006e84:	609a      	str	r2, [r3, #8]
 8006e86:	eb05 0308 	add.w	r3, r5, r8
 8006e8a:	9a01      	ldr	r2, [sp, #4]
 8006e8c:	eba7 0708 	sub.w	r7, r7, r8
 8006e90:	f047 0701 	orr.w	r7, r7, #1
 8006e94:	6093      	str	r3, [r2, #8]
 8006e96:	605f      	str	r7, [r3, #4]
 8006e98:	686b      	ldr	r3, [r5, #4]
 8006e9a:	f003 0301 	and.w	r3, r3, #1
 8006e9e:	ea43 0308 	orr.w	r3, r3, r8
 8006ea2:	606b      	str	r3, [r5, #4]
 8006ea4:	4650      	mov	r0, sl
 8006ea6:	f7fc fd59 	bl	800395c <__malloc_unlock>
 8006eaa:	e757      	b.n	8006d5c <_realloc_r+0x44>
 8006eac:	68a3      	ldr	r3, [r4, #8]
 8006eae:	612b      	str	r3, [r5, #16]
 8006eb0:	68e3      	ldr	r3, [r4, #12]
 8006eb2:	616b      	str	r3, [r5, #20]
 8006eb4:	2a24      	cmp	r2, #36	; 0x24
 8006eb6:	bf01      	itttt	eq
 8006eb8:	6923      	ldreq	r3, [r4, #16]
 8006eba:	61ab      	streq	r3, [r5, #24]
 8006ebc:	6962      	ldreq	r2, [r4, #20]
 8006ebe:	61ea      	streq	r2, [r5, #28]
 8006ec0:	bf19      	ittee	ne
 8006ec2:	3410      	addne	r4, #16
 8006ec4:	f105 0318 	addne.w	r3, r5, #24
 8006ec8:	f105 0320 	addeq.w	r3, r5, #32
 8006ecc:	3418      	addeq	r4, #24
 8006ece:	e7d4      	b.n	8006e7a <_realloc_r+0x162>
 8006ed0:	465b      	mov	r3, fp
 8006ed2:	e7d2      	b.n	8006e7a <_realloc_r+0x162>
 8006ed4:	4621      	mov	r1, r4
 8006ed6:	4658      	mov	r0, fp
 8006ed8:	f7ff fc21 	bl	800671e <memmove>
 8006edc:	e7d3      	b.n	8006e86 <_realloc_r+0x16e>
 8006ede:	45b8      	cmp	r8, r7
 8006ee0:	dc35      	bgt.n	8006f4e <_realloc_r+0x236>
 8006ee2:	e9d3 3202 	ldrd	r3, r2, [r3, #8]
 8006ee6:	4628      	mov	r0, r5
 8006ee8:	60da      	str	r2, [r3, #12]
 8006eea:	6093      	str	r3, [r2, #8]
 8006eec:	f850 2f08 	ldr.w	r2, [r0, #8]!
 8006ef0:	68eb      	ldr	r3, [r5, #12]
 8006ef2:	60d3      	str	r3, [r2, #12]
 8006ef4:	609a      	str	r2, [r3, #8]
 8006ef6:	1f32      	subs	r2, r6, #4
 8006ef8:	2a24      	cmp	r2, #36	; 0x24
 8006efa:	d824      	bhi.n	8006f46 <_realloc_r+0x22e>
 8006efc:	2a13      	cmp	r2, #19
 8006efe:	d908      	bls.n	8006f12 <_realloc_r+0x1fa>
 8006f00:	6823      	ldr	r3, [r4, #0]
 8006f02:	60ab      	str	r3, [r5, #8]
 8006f04:	6863      	ldr	r3, [r4, #4]
 8006f06:	60eb      	str	r3, [r5, #12]
 8006f08:	2a1b      	cmp	r2, #27
 8006f0a:	d80a      	bhi.n	8006f22 <_realloc_r+0x20a>
 8006f0c:	3408      	adds	r4, #8
 8006f0e:	f105 0010 	add.w	r0, r5, #16
 8006f12:	6823      	ldr	r3, [r4, #0]
 8006f14:	6003      	str	r3, [r0, #0]
 8006f16:	6863      	ldr	r3, [r4, #4]
 8006f18:	6043      	str	r3, [r0, #4]
 8006f1a:	68a3      	ldr	r3, [r4, #8]
 8006f1c:	6083      	str	r3, [r0, #8]
 8006f1e:	46a9      	mov	r9, r5
 8006f20:	e75c      	b.n	8006ddc <_realloc_r+0xc4>
 8006f22:	68a3      	ldr	r3, [r4, #8]
 8006f24:	612b      	str	r3, [r5, #16]
 8006f26:	68e3      	ldr	r3, [r4, #12]
 8006f28:	616b      	str	r3, [r5, #20]
 8006f2a:	2a24      	cmp	r2, #36	; 0x24
 8006f2c:	bf01      	itttt	eq
 8006f2e:	6923      	ldreq	r3, [r4, #16]
 8006f30:	61ab      	streq	r3, [r5, #24]
 8006f32:	6963      	ldreq	r3, [r4, #20]
 8006f34:	61eb      	streq	r3, [r5, #28]
 8006f36:	bf19      	ittee	ne
 8006f38:	3410      	addne	r4, #16
 8006f3a:	f105 0018 	addne.w	r0, r5, #24
 8006f3e:	f105 0020 	addeq.w	r0, r5, #32
 8006f42:	3418      	addeq	r4, #24
 8006f44:	e7e5      	b.n	8006f12 <_realloc_r+0x1fa>
 8006f46:	4621      	mov	r1, r4
 8006f48:	f7ff fbe9 	bl	800671e <memmove>
 8006f4c:	e7e7      	b.n	8006f1e <_realloc_r+0x206>
 8006f4e:	45d8      	cmp	r8, fp
 8006f50:	dc31      	bgt.n	8006fb6 <_realloc_r+0x29e>
 8006f52:	4628      	mov	r0, r5
 8006f54:	68eb      	ldr	r3, [r5, #12]
 8006f56:	f850 2f08 	ldr.w	r2, [r0, #8]!
 8006f5a:	60d3      	str	r3, [r2, #12]
 8006f5c:	609a      	str	r2, [r3, #8]
 8006f5e:	1f32      	subs	r2, r6, #4
 8006f60:	2a24      	cmp	r2, #36	; 0x24
 8006f62:	d824      	bhi.n	8006fae <_realloc_r+0x296>
 8006f64:	2a13      	cmp	r2, #19
 8006f66:	d908      	bls.n	8006f7a <_realloc_r+0x262>
 8006f68:	6823      	ldr	r3, [r4, #0]
 8006f6a:	60ab      	str	r3, [r5, #8]
 8006f6c:	6863      	ldr	r3, [r4, #4]
 8006f6e:	60eb      	str	r3, [r5, #12]
 8006f70:	2a1b      	cmp	r2, #27
 8006f72:	d80a      	bhi.n	8006f8a <_realloc_r+0x272>
 8006f74:	3408      	adds	r4, #8
 8006f76:	f105 0010 	add.w	r0, r5, #16
 8006f7a:	6823      	ldr	r3, [r4, #0]
 8006f7c:	6003      	str	r3, [r0, #0]
 8006f7e:	6863      	ldr	r3, [r4, #4]
 8006f80:	6043      	str	r3, [r0, #4]
 8006f82:	68a3      	ldr	r3, [r4, #8]
 8006f84:	6083      	str	r3, [r0, #8]
 8006f86:	465f      	mov	r7, fp
 8006f88:	e7c9      	b.n	8006f1e <_realloc_r+0x206>
 8006f8a:	68a3      	ldr	r3, [r4, #8]
 8006f8c:	612b      	str	r3, [r5, #16]
 8006f8e:	68e3      	ldr	r3, [r4, #12]
 8006f90:	616b      	str	r3, [r5, #20]
 8006f92:	2a24      	cmp	r2, #36	; 0x24
 8006f94:	bf01      	itttt	eq
 8006f96:	6923      	ldreq	r3, [r4, #16]
 8006f98:	61ab      	streq	r3, [r5, #24]
 8006f9a:	6963      	ldreq	r3, [r4, #20]
 8006f9c:	61eb      	streq	r3, [r5, #28]
 8006f9e:	bf19      	ittee	ne
 8006fa0:	3410      	addne	r4, #16
 8006fa2:	f105 0018 	addne.w	r0, r5, #24
 8006fa6:	f105 0020 	addeq.w	r0, r5, #32
 8006faa:	3418      	addeq	r4, #24
 8006fac:	e7e5      	b.n	8006f7a <_realloc_r+0x262>
 8006fae:	4621      	mov	r1, r4
 8006fb0:	f7ff fbb5 	bl	800671e <memmove>
 8006fb4:	e7e7      	b.n	8006f86 <_realloc_r+0x26e>
 8006fb6:	4611      	mov	r1, r2
 8006fb8:	4650      	mov	r0, sl
 8006fba:	f7fc fa8b 	bl	80034d4 <_malloc_r>
 8006fbe:	4683      	mov	fp, r0
 8006fc0:	2800      	cmp	r0, #0
 8006fc2:	f43f af6f 	beq.w	8006ea4 <_realloc_r+0x18c>
 8006fc6:	f854 3c04 	ldr.w	r3, [r4, #-4]
 8006fca:	f023 0301 	bic.w	r3, r3, #1
 8006fce:	444b      	add	r3, r9
 8006fd0:	f1a0 0208 	sub.w	r2, r0, #8
 8006fd4:	4293      	cmp	r3, r2
 8006fd6:	d105      	bne.n	8006fe4 <_realloc_r+0x2cc>
 8006fd8:	f850 7c04 	ldr.w	r7, [r0, #-4]
 8006fdc:	f027 0703 	bic.w	r7, r7, #3
 8006fe0:	4437      	add	r7, r6
 8006fe2:	e6fb      	b.n	8006ddc <_realloc_r+0xc4>
 8006fe4:	1f32      	subs	r2, r6, #4
 8006fe6:	2a24      	cmp	r2, #36	; 0x24
 8006fe8:	d82f      	bhi.n	800704a <_realloc_r+0x332>
 8006fea:	2a13      	cmp	r2, #19
 8006fec:	d92a      	bls.n	8007044 <_realloc_r+0x32c>
 8006fee:	6823      	ldr	r3, [r4, #0]
 8006ff0:	6003      	str	r3, [r0, #0]
 8006ff2:	6863      	ldr	r3, [r4, #4]
 8006ff4:	6043      	str	r3, [r0, #4]
 8006ff6:	2a1b      	cmp	r2, #27
 8006ff8:	d810      	bhi.n	800701c <_realloc_r+0x304>
 8006ffa:	f104 0208 	add.w	r2, r4, #8
 8006ffe:	f100 0308 	add.w	r3, r0, #8
 8007002:	6811      	ldr	r1, [r2, #0]
 8007004:	6019      	str	r1, [r3, #0]
 8007006:	6851      	ldr	r1, [r2, #4]
 8007008:	6059      	str	r1, [r3, #4]
 800700a:	6892      	ldr	r2, [r2, #8]
 800700c:	609a      	str	r2, [r3, #8]
 800700e:	4621      	mov	r1, r4
 8007010:	4650      	mov	r0, sl
 8007012:	f7ff f8af 	bl	8006174 <_free_r>
 8007016:	e745      	b.n	8006ea4 <_realloc_r+0x18c>
 8007018:	20000948 	.word	0x20000948
 800701c:	68a3      	ldr	r3, [r4, #8]
 800701e:	6083      	str	r3, [r0, #8]
 8007020:	68e3      	ldr	r3, [r4, #12]
 8007022:	60c3      	str	r3, [r0, #12]
 8007024:	2a24      	cmp	r2, #36	; 0x24
 8007026:	bf01      	itttt	eq
 8007028:	6923      	ldreq	r3, [r4, #16]
 800702a:	6103      	streq	r3, [r0, #16]
 800702c:	6961      	ldreq	r1, [r4, #20]
 800702e:	6141      	streq	r1, [r0, #20]
 8007030:	bf19      	ittee	ne
 8007032:	f104 0210 	addne.w	r2, r4, #16
 8007036:	f100 0310 	addne.w	r3, r0, #16
 800703a:	f104 0218 	addeq.w	r2, r4, #24
 800703e:	f100 0318 	addeq.w	r3, r0, #24
 8007042:	e7de      	b.n	8007002 <_realloc_r+0x2ea>
 8007044:	4603      	mov	r3, r0
 8007046:	4622      	mov	r2, r4
 8007048:	e7db      	b.n	8007002 <_realloc_r+0x2ea>
 800704a:	4621      	mov	r1, r4
 800704c:	f7ff fb67 	bl	800671e <memmove>
 8007050:	e7dd      	b.n	800700e <_realloc_r+0x2f6>
 8007052:	4637      	mov	r7, r6
 8007054:	e6c2      	b.n	8006ddc <_realloc_r+0xc4>
 8007056:	4317      	orrs	r7, r2
 8007058:	f8c9 7004 	str.w	r7, [r9, #4]
 800705c:	685a      	ldr	r2, [r3, #4]
 800705e:	f042 0201 	orr.w	r2, r2, #1
 8007062:	605a      	str	r2, [r3, #4]
 8007064:	e6d6      	b.n	8006e14 <_realloc_r+0xfc>
 8007066:	bf00      	nop

08007068 <frexp>:
 8007068:	b570      	push	{r4, r5, r6, lr}
 800706a:	2100      	movs	r1, #0
 800706c:	ec55 4b10 	vmov	r4, r5, d0
 8007070:	6001      	str	r1, [r0, #0]
 8007072:	4916      	ldr	r1, [pc, #88]	; (80070cc <frexp+0x64>)
 8007074:	f025 4300 	bic.w	r3, r5, #2147483648	; 0x80000000
 8007078:	428b      	cmp	r3, r1
 800707a:	4606      	mov	r6, r0
 800707c:	462a      	mov	r2, r5
 800707e:	dc22      	bgt.n	80070c6 <frexp+0x5e>
 8007080:	ee10 1a10 	vmov	r1, s0
 8007084:	4319      	orrs	r1, r3
 8007086:	d01e      	beq.n	80070c6 <frexp+0x5e>
 8007088:	f5b3 1f80 	cmp.w	r3, #1048576	; 0x100000
 800708c:	da0d      	bge.n	80070aa <frexp+0x42>
 800708e:	2200      	movs	r2, #0
 8007090:	4b0f      	ldr	r3, [pc, #60]	; (80070d0 <frexp+0x68>)
 8007092:	ee10 0a10 	vmov	r0, s0
 8007096:	4629      	mov	r1, r5
 8007098:	f7f9 face 	bl	8000638 <__aeabi_dmul>
 800709c:	460a      	mov	r2, r1
 800709e:	f021 4300 	bic.w	r3, r1, #2147483648	; 0x80000000
 80070a2:	f06f 0135 	mvn.w	r1, #53	; 0x35
 80070a6:	4604      	mov	r4, r0
 80070a8:	6031      	str	r1, [r6, #0]
 80070aa:	6831      	ldr	r1, [r6, #0]
 80070ac:	151b      	asrs	r3, r3, #20
 80070ae:	f022 42ff 	bic.w	r2, r2, #2139095040	; 0x7f800000
 80070b2:	f2a3 33fe 	subw	r3, r3, #1022	; 0x3fe
 80070b6:	f422 02e0 	bic.w	r2, r2, #7340032	; 0x700000
 80070ba:	440b      	add	r3, r1
 80070bc:	f042 557f 	orr.w	r5, r2, #1069547520	; 0x3fc00000
 80070c0:	6033      	str	r3, [r6, #0]
 80070c2:	f445 1500 	orr.w	r5, r5, #2097152	; 0x200000
 80070c6:	ec45 4b10 	vmov	d0, r4, r5
 80070ca:	bd70      	pop	{r4, r5, r6, pc}
 80070cc:	7fefffff 	.word	0x7fefffff
 80070d0:	43500000 	.word	0x43500000

080070d4 <__sread>:
 80070d4:	b510      	push	{r4, lr}
 80070d6:	460c      	mov	r4, r1
 80070d8:	f9b1 100e 	ldrsh.w	r1, [r1, #14]
 80070dc:	f000 fa76 	bl	80075cc <_read_r>
 80070e0:	2800      	cmp	r0, #0
 80070e2:	bfab      	itete	ge
 80070e4:	6d23      	ldrge	r3, [r4, #80]	; 0x50
 80070e6:	89a3      	ldrhlt	r3, [r4, #12]
 80070e8:	181b      	addge	r3, r3, r0
 80070ea:	f423 5380 	biclt.w	r3, r3, #4096	; 0x1000
 80070ee:	bfac      	ite	ge
 80070f0:	6523      	strge	r3, [r4, #80]	; 0x50
 80070f2:	81a3      	strhlt	r3, [r4, #12]
 80070f4:	bd10      	pop	{r4, pc}

080070f6 <__swrite>:
 80070f6:	e92d 41f0 	stmdb	sp!, {r4, r5, r6, r7, r8, lr}
 80070fa:	461f      	mov	r7, r3
 80070fc:	898b      	ldrh	r3, [r1, #12]
 80070fe:	05db      	lsls	r3, r3, #23
 8007100:	4605      	mov	r5, r0
 8007102:	460c      	mov	r4, r1
 8007104:	4616      	mov	r6, r2
 8007106:	d505      	bpl.n	8007114 <__swrite+0x1e>
 8007108:	2302      	movs	r3, #2
 800710a:	2200      	movs	r2, #0
 800710c:	f9b1 100e 	ldrsh.w	r1, [r1, #14]
 8007110:	f000 fa4a 	bl	80075a8 <_lseek_r>
 8007114:	89a3      	ldrh	r3, [r4, #12]
 8007116:	f9b4 100e 	ldrsh.w	r1, [r4, #14]
 800711a:	f423 5380 	bic.w	r3, r3, #4096	; 0x1000
 800711e:	81a3      	strh	r3, [r4, #12]
 8007120:	4632      	mov	r2, r6
 8007122:	463b      	mov	r3, r7
 8007124:	4628      	mov	r0, r5
 8007126:	e8bd 41f0 	ldmia.w	sp!, {r4, r5, r6, r7, r8, lr}
 800712a:	f000 b8b3 	b.w	8007294 <_write_r>

0800712e <__sseek>:
 800712e:	b510      	push	{r4, lr}
 8007130:	460c      	mov	r4, r1
 8007132:	f9b1 100e 	ldrsh.w	r1, [r1, #14]
 8007136:	f000 fa37 	bl	80075a8 <_lseek_r>
 800713a:	1c43      	adds	r3, r0, #1
 800713c:	89a3      	ldrh	r3, [r4, #12]
 800713e:	bf15      	itete	ne
 8007140:	6520      	strne	r0, [r4, #80]	; 0x50
 8007142:	f423 5380 	biceq.w	r3, r3, #4096	; 0x1000
 8007146:	f443 5380 	orrne.w	r3, r3, #4096	; 0x1000
 800714a:	81a3      	strheq	r3, [r4, #12]
 800714c:	bf18      	it	ne
 800714e:	81a3      	strhne	r3, [r4, #12]
 8007150:	bd10      	pop	{r4, pc}

08007152 <__sclose>:
 8007152:	f9b1 100e 	ldrsh.w	r1, [r1, #14]
 8007156:	f000 b933 	b.w	80073c0 <_close_r>

0800715a <strncpy>:
 800715a:	b570      	push	{r4, r5, r6, lr}
 800715c:	3901      	subs	r1, #1
 800715e:	4604      	mov	r4, r0
 8007160:	b902      	cbnz	r2, 8007164 <strncpy+0xa>
 8007162:	bd70      	pop	{r4, r5, r6, pc}
 8007164:	4623      	mov	r3, r4
 8007166:	f811 5f01 	ldrb.w	r5, [r1, #1]!
 800716a:	f803 5b01 	strb.w	r5, [r3], #1
 800716e:	1e56      	subs	r6, r2, #1
 8007170:	b92d      	cbnz	r5, 800717e <strncpy+0x24>
 8007172:	4414      	add	r4, r2
 8007174:	42a3      	cmp	r3, r4
 8007176:	d0f4      	beq.n	8007162 <strncpy+0x8>
 8007178:	f803 5b01 	strb.w	r5, [r3], #1
 800717c:	e7fa      	b.n	8007174 <strncpy+0x1a>
 800717e:	461c      	mov	r4, r3
 8007180:	4632      	mov	r2, r6
 8007182:	e7ed      	b.n	8007160 <strncpy+0x6>

08007184 <__sprint_r>:
 8007184:	e92d 4ff8 	stmdb	sp!, {r3, r4, r5, r6, r7, r8, r9, sl, fp, lr}
 8007188:	6893      	ldr	r3, [r2, #8]
 800718a:	4680      	mov	r8, r0
 800718c:	460f      	mov	r7, r1
 800718e:	4614      	mov	r4, r2
 8007190:	b91b      	cbnz	r3, 800719a <__sprint_r+0x16>
 8007192:	6053      	str	r3, [r2, #4]
 8007194:	4618      	mov	r0, r3
 8007196:	e8bd 8ff8 	ldmia.w	sp!, {r3, r4, r5, r6, r7, r8, r9, sl, fp, pc}
 800719a:	6e4b      	ldr	r3, [r1, #100]	; 0x64
 800719c:	049d      	lsls	r5, r3, #18
 800719e:	d520      	bpl.n	80071e2 <__sprint_r+0x5e>
 80071a0:	6815      	ldr	r5, [r2, #0]
 80071a2:	68a0      	ldr	r0, [r4, #8]
 80071a4:	3508      	adds	r5, #8
 80071a6:	b918      	cbnz	r0, 80071b0 <__sprint_r+0x2c>
 80071a8:	2300      	movs	r3, #0
 80071aa:	e9c4 3301 	strd	r3, r3, [r4, #4]
 80071ae:	e7f2      	b.n	8007196 <__sprint_r+0x12>
 80071b0:	e955 b602 	ldrd	fp, r6, [r5, #-8]
 80071b4:	f04f 0900 	mov.w	r9, #0
 80071b8:	ea4f 0a96 	mov.w	sl, r6, lsr #2
 80071bc:	45ca      	cmp	sl, r9
 80071be:	dc05      	bgt.n	80071cc <__sprint_r+0x48>
 80071c0:	68a3      	ldr	r3, [r4, #8]
 80071c2:	f026 0603 	bic.w	r6, r6, #3
 80071c6:	1b9e      	subs	r6, r3, r6
 80071c8:	60a6      	str	r6, [r4, #8]
 80071ca:	e7ea      	b.n	80071a2 <__sprint_r+0x1e>
 80071cc:	463a      	mov	r2, r7
 80071ce:	f85b 1029 	ldr.w	r1, [fp, r9, lsl #2]
 80071d2:	4640      	mov	r0, r8
 80071d4:	f000 f99c 	bl	8007510 <_fputwc_r>
 80071d8:	1c43      	adds	r3, r0, #1
 80071da:	d0e5      	beq.n	80071a8 <__sprint_r+0x24>
 80071dc:	f109 0901 	add.w	r9, r9, #1
 80071e0:	e7ec      	b.n	80071bc <__sprint_r+0x38>
 80071e2:	f7ff f883 	bl	80062ec <__sfvwrite_r>
 80071e6:	e7df      	b.n	80071a8 <__sprint_r+0x24>

080071e8 <__swbuf_r>:
 80071e8:	b5f8      	push	{r3, r4, r5, r6, r7, lr}
 80071ea:	460d      	mov	r5, r1
 80071ec:	4614      	mov	r4, r2
 80071ee:	4606      	mov	r6, r0
 80071f0:	b118      	cbz	r0, 80071fa <__swbuf_r+0x12>
 80071f2:	6b83      	ldr	r3, [r0, #56]	; 0x38
 80071f4:	b90b      	cbnz	r3, 80071fa <__swbuf_r+0x12>
 80071f6:	f7fe ff2d 	bl	8006054 <__sinit>
 80071fa:	69a3      	ldr	r3, [r4, #24]
 80071fc:	60a3      	str	r3, [r4, #8]
 80071fe:	89a3      	ldrh	r3, [r4, #12]
 8007200:	0719      	lsls	r1, r3, #28
 8007202:	d528      	bpl.n	8007256 <__swbuf_r+0x6e>
 8007204:	6923      	ldr	r3, [r4, #16]
 8007206:	b333      	cbz	r3, 8007256 <__swbuf_r+0x6e>
 8007208:	f9b4 300c 	ldrsh.w	r3, [r4, #12]
 800720c:	b2ed      	uxtb	r5, r5
 800720e:	049a      	lsls	r2, r3, #18
 8007210:	462f      	mov	r7, r5
 8007212:	d52a      	bpl.n	800726a <__swbuf_r+0x82>
 8007214:	6923      	ldr	r3, [r4, #16]
 8007216:	6820      	ldr	r0, [r4, #0]
 8007218:	1ac0      	subs	r0, r0, r3
 800721a:	6963      	ldr	r3, [r4, #20]
 800721c:	4283      	cmp	r3, r0
 800721e:	dc04      	bgt.n	800722a <__swbuf_r+0x42>
 8007220:	4621      	mov	r1, r4
 8007222:	4630      	mov	r0, r6
 8007224:	f7fe feaa 	bl	8005f7c <_fflush_r>
 8007228:	b9d8      	cbnz	r0, 8007262 <__swbuf_r+0x7a>
 800722a:	68a3      	ldr	r3, [r4, #8]
 800722c:	3b01      	subs	r3, #1
 800722e:	60a3      	str	r3, [r4, #8]
 8007230:	6823      	ldr	r3, [r4, #0]
 8007232:	1c5a      	adds	r2, r3, #1
 8007234:	6022      	str	r2, [r4, #0]
 8007236:	701d      	strb	r5, [r3, #0]
 8007238:	6963      	ldr	r3, [r4, #20]
 800723a:	3001      	adds	r0, #1
 800723c:	4283      	cmp	r3, r0
 800723e:	d004      	beq.n	800724a <__swbuf_r+0x62>
 8007240:	89a3      	ldrh	r3, [r4, #12]
 8007242:	07db      	lsls	r3, r3, #31
 8007244:	d50f      	bpl.n	8007266 <__swbuf_r+0x7e>
 8007246:	2d0a      	cmp	r5, #10
 8007248:	d10d      	bne.n	8007266 <__swbuf_r+0x7e>
 800724a:	4621      	mov	r1, r4
 800724c:	4630      	mov	r0, r6
 800724e:	f7fe fe95 	bl	8005f7c <_fflush_r>
 8007252:	b140      	cbz	r0, 8007266 <__swbuf_r+0x7e>
 8007254:	e005      	b.n	8007262 <__swbuf_r+0x7a>
 8007256:	4621      	mov	r1, r4
 8007258:	4630      	mov	r0, r6
 800725a:	f7fd ff63 	bl	8005124 <__swsetup_r>
 800725e:	2800      	cmp	r0, #0
 8007260:	d0d2      	beq.n	8007208 <__swbuf_r+0x20>
 8007262:	f04f 37ff 	mov.w	r7, #4294967295	; 0xffffffff
 8007266:	4638      	mov	r0, r7
 8007268:	bdf8      	pop	{r3, r4, r5, r6, r7, pc}
 800726a:	f443 5300 	orr.w	r3, r3, #8192	; 0x2000
 800726e:	81a3      	strh	r3, [r4, #12]
 8007270:	6e63      	ldr	r3, [r4, #100]	; 0x64
 8007272:	f423 5300 	bic.w	r3, r3, #8192	; 0x2000
 8007276:	6663      	str	r3, [r4, #100]	; 0x64
 8007278:	e7cc      	b.n	8007214 <__swbuf_r+0x2c>

0800727a <__ascii_wctomb>:
 800727a:	b149      	cbz	r1, 8007290 <__ascii_wctomb+0x16>
 800727c:	2aff      	cmp	r2, #255	; 0xff
 800727e:	bf85      	ittet	hi
 8007280:	238a      	movhi	r3, #138	; 0x8a
 8007282:	6003      	strhi	r3, [r0, #0]
 8007284:	700a      	strbls	r2, [r1, #0]
 8007286:	f04f 30ff 	movhi.w	r0, #4294967295	; 0xffffffff
 800728a:	bf98      	it	ls
 800728c:	2001      	movls	r0, #1
 800728e:	4770      	bx	lr
 8007290:	4608      	mov	r0, r1
 8007292:	4770      	bx	lr

08007294 <_write_r>:
 8007294:	b538      	push	{r3, r4, r5, lr}
 8007296:	4c07      	ldr	r4, [pc, #28]	; (80072b4 <_write_r+0x20>)
 8007298:	4605      	mov	r5, r0
 800729a:	4608      	mov	r0, r1
 800729c:	4611      	mov	r1, r2
 800729e:	2200      	movs	r2, #0
 80072a0:	6022      	str	r2, [r4, #0]
 80072a2:	461a      	mov	r2, r3
 80072a4:	f7fb fe56 	bl	8002f54 <_write>
 80072a8:	1c43      	adds	r3, r0, #1
 80072aa:	d102      	bne.n	80072b2 <_write_r+0x1e>
 80072ac:	6823      	ldr	r3, [r4, #0]
 80072ae:	b103      	cbz	r3, 80072b2 <_write_r+0x1e>
 80072b0:	602b      	str	r3, [r5, #0]
 80072b2:	bd38      	pop	{r3, r4, r5, pc}
 80072b4:	200011c0 	.word	0x200011c0

080072b8 <__register_exitproc>:
 80072b8:	e92d 43f8 	stmdb	sp!, {r3, r4, r5, r6, r7, r8, r9, lr}
 80072bc:	4c26      	ldr	r4, [pc, #152]	; (8007358 <__register_exitproc+0xa0>)
 80072be:	4606      	mov	r6, r0
 80072c0:	6820      	ldr	r0, [r4, #0]
 80072c2:	4698      	mov	r8, r3
 80072c4:	460f      	mov	r7, r1
 80072c6:	4691      	mov	r9, r2
 80072c8:	f7ff f99e 	bl	8006608 <__retarget_lock_acquire_recursive>
 80072cc:	4b23      	ldr	r3, [pc, #140]	; (800735c <__register_exitproc+0xa4>)
 80072ce:	681d      	ldr	r5, [r3, #0]
 80072d0:	f8d5 0148 	ldr.w	r0, [r5, #328]	; 0x148
 80072d4:	b918      	cbnz	r0, 80072de <__register_exitproc+0x26>
 80072d6:	f505 70a6 	add.w	r0, r5, #332	; 0x14c
 80072da:	f8c5 0148 	str.w	r0, [r5, #328]	; 0x148
 80072de:	6843      	ldr	r3, [r0, #4]
 80072e0:	2b1f      	cmp	r3, #31
 80072e2:	dd19      	ble.n	8007318 <__register_exitproc+0x60>
 80072e4:	4b1e      	ldr	r3, [pc, #120]	; (8007360 <__register_exitproc+0xa8>)
 80072e6:	b933      	cbnz	r3, 80072f6 <__register_exitproc+0x3e>
 80072e8:	6820      	ldr	r0, [r4, #0]
 80072ea:	f7ff f98e 	bl	800660a <__retarget_lock_release_recursive>
 80072ee:	f04f 30ff 	mov.w	r0, #4294967295	; 0xffffffff
 80072f2:	e8bd 83f8 	ldmia.w	sp!, {r3, r4, r5, r6, r7, r8, r9, pc}
 80072f6:	f44f 70c8 	mov.w	r0, #400	; 0x190
 80072fa:	f7fc f8db 	bl	80034b4 <malloc>
 80072fe:	2800      	cmp	r0, #0
 8007300:	d0f2      	beq.n	80072e8 <__register_exitproc+0x30>
 8007302:	f8d5 3148 	ldr.w	r3, [r5, #328]	; 0x148
 8007306:	6003      	str	r3, [r0, #0]
 8007308:	2200      	movs	r2, #0
 800730a:	6042      	str	r2, [r0, #4]
 800730c:	f8c5 0148 	str.w	r0, [r5, #328]	; 0x148
 8007310:	f8c0 2188 	str.w	r2, [r0, #392]	; 0x188
 8007314:	f8c0 218c 	str.w	r2, [r0, #396]	; 0x18c
 8007318:	6843      	ldr	r3, [r0, #4]
 800731a:	b19e      	cbz	r6, 8007344 <__register_exitproc+0x8c>
 800731c:	eb00 0583 	add.w	r5, r0, r3, lsl #2
 8007320:	2201      	movs	r2, #1
 8007322:	f8c5 9088 	str.w	r9, [r5, #136]	; 0x88
 8007326:	f8d0 1188 	ldr.w	r1, [r0, #392]	; 0x188
 800732a:	409a      	lsls	r2, r3
 800732c:	4311      	orrs	r1, r2
 800732e:	2e02      	cmp	r6, #2
 8007330:	f8c0 1188 	str.w	r1, [r0, #392]	; 0x188
 8007334:	f8c5 8108 	str.w	r8, [r5, #264]	; 0x108
 8007338:	bf02      	ittt	eq
 800733a:	f8d0 118c 	ldreq.w	r1, [r0, #396]	; 0x18c
 800733e:	430a      	orreq	r2, r1
 8007340:	f8c0 218c 	streq.w	r2, [r0, #396]	; 0x18c
 8007344:	1c5a      	adds	r2, r3, #1
 8007346:	3302      	adds	r3, #2
 8007348:	6042      	str	r2, [r0, #4]
 800734a:	f840 7023 	str.w	r7, [r0, r3, lsl #2]
 800734e:	6820      	ldr	r0, [r4, #0]
 8007350:	f7ff f95b 	bl	800660a <__retarget_lock_release_recursive>
 8007354:	2000      	movs	r0, #0
 8007356:	e7cc      	b.n	80072f2 <__register_exitproc+0x3a>
 8007358:	20000d58 	.word	0x20000d58
 800735c:	080077a8 	.word	0x080077a8
 8007360:	080034b5 	.word	0x080034b5

08007364 <_calloc_r>:
 8007364:	b510      	push	{r4, lr}
 8007366:	4351      	muls	r1, r2
 8007368:	f7fc f8b4 	bl	80034d4 <_malloc_r>
 800736c:	4604      	mov	r4, r0
 800736e:	b198      	cbz	r0, 8007398 <_calloc_r+0x34>
 8007370:	f850 2c04 	ldr.w	r2, [r0, #-4]
 8007374:	f022 0203 	bic.w	r2, r2, #3
 8007378:	3a04      	subs	r2, #4
 800737a:	2a24      	cmp	r2, #36	; 0x24
 800737c:	d81b      	bhi.n	80073b6 <_calloc_r+0x52>
 800737e:	2a13      	cmp	r2, #19
 8007380:	d917      	bls.n	80073b2 <_calloc_r+0x4e>
 8007382:	2100      	movs	r1, #0
 8007384:	2a1b      	cmp	r2, #27
 8007386:	e9c0 1100 	strd	r1, r1, [r0]
 800738a:	d807      	bhi.n	800739c <_calloc_r+0x38>
 800738c:	f100 0308 	add.w	r3, r0, #8
 8007390:	2200      	movs	r2, #0
 8007392:	e9c3 2200 	strd	r2, r2, [r3]
 8007396:	609a      	str	r2, [r3, #8]
 8007398:	4620      	mov	r0, r4
 800739a:	bd10      	pop	{r4, pc}
 800739c:	2a24      	cmp	r2, #36	; 0x24
 800739e:	e9c0 1102 	strd	r1, r1, [r0, #8]
 80073a2:	bf11      	iteee	ne
 80073a4:	f100 0310 	addne.w	r3, r0, #16
 80073a8:	6101      	streq	r1, [r0, #16]
 80073aa:	f100 0318 	addeq.w	r3, r0, #24
 80073ae:	6141      	streq	r1, [r0, #20]
 80073b0:	e7ee      	b.n	8007390 <_calloc_r+0x2c>
 80073b2:	4603      	mov	r3, r0
 80073b4:	e7ec      	b.n	8007390 <_calloc_r+0x2c>
 80073b6:	2100      	movs	r1, #0
 80073b8:	f7fc fac2 	bl	8003940 <memset>
 80073bc:	e7ec      	b.n	8007398 <_calloc_r+0x34>
	...

080073c0 <_close_r>:
 80073c0:	b538      	push	{r3, r4, r5, lr}
 80073c2:	4c06      	ldr	r4, [pc, #24]	; (80073dc <_close_r+0x1c>)
 80073c4:	2300      	movs	r3, #0
 80073c6:	4605      	mov	r5, r0
 80073c8:	4608      	mov	r0, r1
 80073ca:	6023      	str	r3, [r4, #0]
 80073cc:	f7fb fdd0 	bl	8002f70 <_close>
 80073d0:	1c43      	adds	r3, r0, #1
 80073d2:	d102      	bne.n	80073da <_close_r+0x1a>
 80073d4:	6823      	ldr	r3, [r4, #0]
 80073d6:	b103      	cbz	r3, 80073da <_close_r+0x1a>
 80073d8:	602b      	str	r3, [r5, #0]
 80073da:	bd38      	pop	{r3, r4, r5, pc}
 80073dc:	200011c0 	.word	0x200011c0

080073e0 <_fclose_r>:
 80073e0:	b570      	push	{r4, r5, r6, lr}
 80073e2:	4606      	mov	r6, r0
 80073e4:	460c      	mov	r4, r1
 80073e6:	b911      	cbnz	r1, 80073ee <_fclose_r+0xe>
 80073e8:	2500      	movs	r5, #0
 80073ea:	4628      	mov	r0, r5
 80073ec:	bd70      	pop	{r4, r5, r6, pc}
 80073ee:	b118      	cbz	r0, 80073f8 <_fclose_r+0x18>
 80073f0:	6b83      	ldr	r3, [r0, #56]	; 0x38
 80073f2:	b90b      	cbnz	r3, 80073f8 <_fclose_r+0x18>
 80073f4:	f7fe fe2e 	bl	8006054 <__sinit>
 80073f8:	6e63      	ldr	r3, [r4, #100]	; 0x64
 80073fa:	07d8      	lsls	r0, r3, #31
 80073fc:	d405      	bmi.n	800740a <_fclose_r+0x2a>
 80073fe:	89a3      	ldrh	r3, [r4, #12]
 8007400:	0599      	lsls	r1, r3, #22
 8007402:	d402      	bmi.n	800740a <_fclose_r+0x2a>
 8007404:	6da0      	ldr	r0, [r4, #88]	; 0x58
 8007406:	f7ff f8ff 	bl	8006608 <__retarget_lock_acquire_recursive>
 800740a:	f9b4 300c 	ldrsh.w	r3, [r4, #12]
 800740e:	b93b      	cbnz	r3, 8007420 <_fclose_r+0x40>
 8007410:	6e65      	ldr	r5, [r4, #100]	; 0x64
 8007412:	f015 0501 	ands.w	r5, r5, #1
 8007416:	d1e7      	bne.n	80073e8 <_fclose_r+0x8>
 8007418:	6da0      	ldr	r0, [r4, #88]	; 0x58
 800741a:	f7ff f8f6 	bl	800660a <__retarget_lock_release_recursive>
 800741e:	e7e4      	b.n	80073ea <_fclose_r+0xa>
 8007420:	4621      	mov	r1, r4
 8007422:	4630      	mov	r0, r6
 8007424:	f7fe fd1c 	bl	8005e60 <__sflush_r>
 8007428:	6ae3      	ldr	r3, [r4, #44]	; 0x2c
 800742a:	4605      	mov	r5, r0
 800742c:	b133      	cbz	r3, 800743c <_fclose_r+0x5c>
 800742e:	69e1      	ldr	r1, [r4, #28]
 8007430:	4630      	mov	r0, r6
 8007432:	4798      	blx	r3
 8007434:	2800      	cmp	r0, #0
 8007436:	bfb8      	it	lt
 8007438:	f04f 35ff 	movlt.w	r5, #4294967295	; 0xffffffff
 800743c:	89a3      	ldrh	r3, [r4, #12]
 800743e:	061a      	lsls	r2, r3, #24
 8007440:	d503      	bpl.n	800744a <_fclose_r+0x6a>
 8007442:	6921      	ldr	r1, [r4, #16]
 8007444:	4630      	mov	r0, r6
 8007446:	f7fe fe95 	bl	8006174 <_free_r>
 800744a:	6b21      	ldr	r1, [r4, #48]	; 0x30
 800744c:	b141      	cbz	r1, 8007460 <_fclose_r+0x80>
 800744e:	f104 0340 	add.w	r3, r4, #64	; 0x40
 8007452:	4299      	cmp	r1, r3
 8007454:	d002      	beq.n	800745c <_fclose_r+0x7c>
 8007456:	4630      	mov	r0, r6
 8007458:	f7fe fe8c 	bl	8006174 <_free_r>
 800745c:	2300      	movs	r3, #0
 800745e:	6323      	str	r3, [r4, #48]	; 0x30
 8007460:	6c61      	ldr	r1, [r4, #68]	; 0x44
 8007462:	b121      	cbz	r1, 800746e <_fclose_r+0x8e>
 8007464:	4630      	mov	r0, r6
 8007466:	f7fe fe85 	bl	8006174 <_free_r>
 800746a:	2300      	movs	r3, #0
 800746c:	6463      	str	r3, [r4, #68]	; 0x44
 800746e:	f7fe fdd9 	bl	8006024 <__sfp_lock_acquire>
 8007472:	2300      	movs	r3, #0
 8007474:	81a3      	strh	r3, [r4, #12]
 8007476:	6e63      	ldr	r3, [r4, #100]	; 0x64
 8007478:	07db      	lsls	r3, r3, #31
 800747a:	d402      	bmi.n	8007482 <_fclose_r+0xa2>
 800747c:	6da0      	ldr	r0, [r4, #88]	; 0x58
 800747e:	f7ff f8c4 	bl	800660a <__retarget_lock_release_recursive>
 8007482:	6da0      	ldr	r0, [r4, #88]	; 0x58
 8007484:	f7ff f8bf 	bl	8006606 <__retarget_lock_close_recursive>
 8007488:	f7fe fdd2 	bl	8006030 <__sfp_lock_release>
 800748c:	e7ad      	b.n	80073ea <_fclose_r+0xa>

0800748e <__fputwc>:
 800748e:	e92d 43f7 	stmdb	sp!, {r0, r1, r2, r4, r5, r6, r7, r8, r9, lr}
 8007492:	4680      	mov	r8, r0
 8007494:	460e      	mov	r6, r1
 8007496:	4614      	mov	r4, r2
 8007498:	f7ff f894 	bl	80065c4 <__locale_mb_cur_max>
 800749c:	2801      	cmp	r0, #1
 800749e:	d11c      	bne.n	80074da <__fputwc+0x4c>
 80074a0:	1e73      	subs	r3, r6, #1
 80074a2:	2bfe      	cmp	r3, #254	; 0xfe
 80074a4:	d819      	bhi.n	80074da <__fputwc+0x4c>
 80074a6:	f88d 6004 	strb.w	r6, [sp, #4]
 80074aa:	4605      	mov	r5, r0
 80074ac:	2700      	movs	r7, #0
 80074ae:	f10d 0904 	add.w	r9, sp, #4
 80074b2:	42af      	cmp	r7, r5
 80074b4:	d020      	beq.n	80074f8 <__fputwc+0x6a>
 80074b6:	68a3      	ldr	r3, [r4, #8]
 80074b8:	f817 1009 	ldrb.w	r1, [r7, r9]
 80074bc:	3b01      	subs	r3, #1
 80074be:	2b00      	cmp	r3, #0
 80074c0:	60a3      	str	r3, [r4, #8]
 80074c2:	da04      	bge.n	80074ce <__fputwc+0x40>
 80074c4:	69a2      	ldr	r2, [r4, #24]
 80074c6:	4293      	cmp	r3, r2
 80074c8:	db1a      	blt.n	8007500 <__fputwc+0x72>
 80074ca:	290a      	cmp	r1, #10
 80074cc:	d018      	beq.n	8007500 <__fputwc+0x72>
 80074ce:	6823      	ldr	r3, [r4, #0]
 80074d0:	1c5a      	adds	r2, r3, #1
 80074d2:	6022      	str	r2, [r4, #0]
 80074d4:	7019      	strb	r1, [r3, #0]
 80074d6:	3701      	adds	r7, #1
 80074d8:	e7eb      	b.n	80074b2 <__fputwc+0x24>
 80074da:	4632      	mov	r2, r6
 80074dc:	f104 035c 	add.w	r3, r4, #92	; 0x5c
 80074e0:	a901      	add	r1, sp, #4
 80074e2:	4640      	mov	r0, r8
 80074e4:	f000 f884 	bl	80075f0 <_wcrtomb_r>
 80074e8:	1c42      	adds	r2, r0, #1
 80074ea:	4605      	mov	r5, r0
 80074ec:	d1de      	bne.n	80074ac <__fputwc+0x1e>
 80074ee:	89a3      	ldrh	r3, [r4, #12]
 80074f0:	f043 0340 	orr.w	r3, r3, #64	; 0x40
 80074f4:	81a3      	strh	r3, [r4, #12]
 80074f6:	4606      	mov	r6, r0
 80074f8:	4630      	mov	r0, r6
 80074fa:	b003      	add	sp, #12
 80074fc:	e8bd 83f0 	ldmia.w	sp!, {r4, r5, r6, r7, r8, r9, pc}
 8007500:	4622      	mov	r2, r4
 8007502:	4640      	mov	r0, r8
 8007504:	f7ff fe70 	bl	80071e8 <__swbuf_r>
 8007508:	1c43      	adds	r3, r0, #1
 800750a:	d1e4      	bne.n	80074d6 <__fputwc+0x48>
 800750c:	4606      	mov	r6, r0
 800750e:	e7f3      	b.n	80074f8 <__fputwc+0x6a>

08007510 <_fputwc_r>:
 8007510:	6e53      	ldr	r3, [r2, #100]	; 0x64
 8007512:	07db      	lsls	r3, r3, #31
 8007514:	b570      	push	{r4, r5, r6, lr}
 8007516:	4605      	mov	r5, r0
 8007518:	460e      	mov	r6, r1
 800751a:	4614      	mov	r4, r2
 800751c:	d405      	bmi.n	800752a <_fputwc_r+0x1a>
 800751e:	8993      	ldrh	r3, [r2, #12]
 8007520:	0598      	lsls	r0, r3, #22
 8007522:	d402      	bmi.n	800752a <_fputwc_r+0x1a>
 8007524:	6d90      	ldr	r0, [r2, #88]	; 0x58
 8007526:	f7ff f86f 	bl	8006608 <__retarget_lock_acquire_recursive>
 800752a:	f9b4 300c 	ldrsh.w	r3, [r4, #12]
 800752e:	0499      	lsls	r1, r3, #18
 8007530:	d406      	bmi.n	8007540 <_fputwc_r+0x30>
 8007532:	f443 5300 	orr.w	r3, r3, #8192	; 0x2000
 8007536:	81a3      	strh	r3, [r4, #12]
 8007538:	6e63      	ldr	r3, [r4, #100]	; 0x64
 800753a:	f443 5300 	orr.w	r3, r3, #8192	; 0x2000
 800753e:	6663      	str	r3, [r4, #100]	; 0x64
 8007540:	4622      	mov	r2, r4
 8007542:	4628      	mov	r0, r5
 8007544:	4631      	mov	r1, r6
 8007546:	f7ff ffa2 	bl	800748e <__fputwc>
 800754a:	6e63      	ldr	r3, [r4, #100]	; 0x64
 800754c:	07da      	lsls	r2, r3, #31
 800754e:	4605      	mov	r5, r0
 8007550:	d405      	bmi.n	800755e <_fputwc_r+0x4e>
 8007552:	89a3      	ldrh	r3, [r4, #12]
 8007554:	059b      	lsls	r3, r3, #22
 8007556:	d402      	bmi.n	800755e <_fputwc_r+0x4e>
 8007558:	6da0      	ldr	r0, [r4, #88]	; 0x58
 800755a:	f7ff f856 	bl	800660a <__retarget_lock_release_recursive>
 800755e:	4628      	mov	r0, r5
 8007560:	bd70      	pop	{r4, r5, r6, pc}
	...

08007564 <_fstat_r>:
 8007564:	b538      	push	{r3, r4, r5, lr}
 8007566:	4c07      	ldr	r4, [pc, #28]	; (8007584 <_fstat_r+0x20>)
 8007568:	2300      	movs	r3, #0
 800756a:	4605      	mov	r5, r0
 800756c:	4608      	mov	r0, r1
 800756e:	4611      	mov	r1, r2
 8007570:	6023      	str	r3, [r4, #0]
 8007572:	f7fb fd01 	bl	8002f78 <_fstat>
 8007576:	1c43      	adds	r3, r0, #1
 8007578:	d102      	bne.n	8007580 <_fstat_r+0x1c>
 800757a:	6823      	ldr	r3, [r4, #0]
 800757c:	b103      	cbz	r3, 8007580 <_fstat_r+0x1c>
 800757e:	602b      	str	r3, [r5, #0]
 8007580:	bd38      	pop	{r3, r4, r5, pc}
 8007582:	bf00      	nop
 8007584:	200011c0 	.word	0x200011c0

08007588 <_isatty_r>:
 8007588:	b538      	push	{r3, r4, r5, lr}
 800758a:	4c06      	ldr	r4, [pc, #24]	; (80075a4 <_isatty_r+0x1c>)
 800758c:	2300      	movs	r3, #0
 800758e:	4605      	mov	r5, r0
 8007590:	4608      	mov	r0, r1
 8007592:	6023      	str	r3, [r4, #0]
 8007594:	f7fb fcf6 	bl	8002f84 <_isatty>
 8007598:	1c43      	adds	r3, r0, #1
 800759a:	d102      	bne.n	80075a2 <_isatty_r+0x1a>
 800759c:	6823      	ldr	r3, [r4, #0]
 800759e:	b103      	cbz	r3, 80075a2 <_isatty_r+0x1a>
 80075a0:	602b      	str	r3, [r5, #0]
 80075a2:	bd38      	pop	{r3, r4, r5, pc}
 80075a4:	200011c0 	.word	0x200011c0

080075a8 <_lseek_r>:
 80075a8:	b538      	push	{r3, r4, r5, lr}
 80075aa:	4c07      	ldr	r4, [pc, #28]	; (80075c8 <_lseek_r+0x20>)
 80075ac:	4605      	mov	r5, r0
 80075ae:	4608      	mov	r0, r1
 80075b0:	4611      	mov	r1, r2
 80075b2:	2200      	movs	r2, #0
 80075b4:	6022      	str	r2, [r4, #0]
 80075b6:	461a      	mov	r2, r3
 80075b8:	f7fb fce6 	bl	8002f88 <_lseek>
 80075bc:	1c43      	adds	r3, r0, #1
 80075be:	d102      	bne.n	80075c6 <_lseek_r+0x1e>
 80075c0:	6823      	ldr	r3, [r4, #0]
 80075c2:	b103      	cbz	r3, 80075c6 <_lseek_r+0x1e>
 80075c4:	602b      	str	r3, [r5, #0]
 80075c6:	bd38      	pop	{r3, r4, r5, pc}
 80075c8:	200011c0 	.word	0x200011c0

080075cc <_read_r>:
 80075cc:	b538      	push	{r3, r4, r5, lr}
 80075ce:	4c07      	ldr	r4, [pc, #28]	; (80075ec <_read_r+0x20>)
 80075d0:	4605      	mov	r5, r0
 80075d2:	4608      	mov	r0, r1
 80075d4:	4611      	mov	r1, r2
 80075d6:	2200      	movs	r2, #0
 80075d8:	6022      	str	r2, [r4, #0]
 80075da:	461a      	mov	r2, r3
 80075dc:	f7fb fcac 	bl	8002f38 <_read>
 80075e0:	1c43      	adds	r3, r0, #1
 80075e2:	d102      	bne.n	80075ea <_read_r+0x1e>
 80075e4:	6823      	ldr	r3, [r4, #0]
 80075e6:	b103      	cbz	r3, 80075ea <_read_r+0x1e>
 80075e8:	602b      	str	r3, [r5, #0]
 80075ea:	bd38      	pop	{r3, r4, r5, pc}
 80075ec:	200011c0 	.word	0x200011c0

080075f0 <_wcrtomb_r>:
 80075f0:	b5f0      	push	{r4, r5, r6, r7, lr}
 80075f2:	4c0f      	ldr	r4, [pc, #60]	; (8007630 <_wcrtomb_r+0x40>)
 80075f4:	6824      	ldr	r4, [r4, #0]
 80075f6:	b085      	sub	sp, #20
 80075f8:	4605      	mov	r5, r0
 80075fa:	461e      	mov	r6, r3
 80075fc:	6b64      	ldr	r4, [r4, #52]	; 0x34
 80075fe:	b981      	cbnz	r1, 8007622 <_wcrtomb_r+0x32>
 8007600:	4a0c      	ldr	r2, [pc, #48]	; (8007634 <_wcrtomb_r+0x44>)
 8007602:	2c00      	cmp	r4, #0
 8007604:	bf08      	it	eq
 8007606:	4614      	moveq	r4, r2
 8007608:	460a      	mov	r2, r1
 800760a:	f8d4 40e0 	ldr.w	r4, [r4, #224]	; 0xe0
 800760e:	a901      	add	r1, sp, #4
 8007610:	47a0      	blx	r4
 8007612:	1c43      	adds	r3, r0, #1
 8007614:	bf01      	itttt	eq
 8007616:	2300      	moveq	r3, #0
 8007618:	6033      	streq	r3, [r6, #0]
 800761a:	238a      	moveq	r3, #138	; 0x8a
 800761c:	602b      	streq	r3, [r5, #0]
 800761e:	b005      	add	sp, #20
 8007620:	bdf0      	pop	{r4, r5, r6, r7, pc}
 8007622:	4f04      	ldr	r7, [pc, #16]	; (8007634 <_wcrtomb_r+0x44>)
 8007624:	2c00      	cmp	r4, #0
 8007626:	bf08      	it	eq
 8007628:	463c      	moveq	r4, r7
 800762a:	f8d4 40e0 	ldr.w	r4, [r4, #224]	; 0xe0
 800762e:	e7ef      	b.n	8007610 <_wcrtomb_r+0x20>
 8007630:	20000518 	.word	0x20000518
 8007634:	20000d5c 	.word	0x20000d5c

08007638 <_init>:
 8007638:	b5f8      	push	{r3, r4, r5, r6, r7, lr}
 800763a:	bf00      	nop
 800763c:	bcf8      	pop	{r3, r4, r5, r6, r7}
 800763e:	bc08      	pop	{r3}
 8007640:	469e      	mov	lr, r3
 8007642:	4770      	bx	lr

08007644 <_fini>:
 8007644:	b5f8      	push	{r3, r4, r5, r6, r7, lr}
 8007646:	bf00      	nop
 8007648:	bcf8      	pop	{r3, r4, r5, r6, r7}
 800764a:	bc08      	pop	{r3}
 800764c:	469e      	mov	lr, r3
 800764e:	4770      	bx	lr
